
rtos.elf:     file format elf32-littlearm


Disassembly of section .text:

00000000 <_text>:
       0:	2000c000 	andcs	ip, r0, r0
       4:	00000ea9 	andeq	r0, r0, r9, lsr #29
       8:	0000026d 	andeq	r0, r0, sp, ror #4
       c:	00000275 	andeq	r0, r0, r5, ror r2
      10:	0000027d 	andeq	r0, r0, sp, ror r2
      14:	0000027d 	andeq	r0, r0, sp, ror r2
      18:	0000027d 	andeq	r0, r0, sp, ror r2
	...
      2c:	0000027d 	andeq	r0, r0, sp, ror r2
      30:	0000027d 	andeq	r0, r0, sp, ror r2
      34:	00000000 	andeq	r0, r0, r0
      38:	00000edf 	ldrdeq	r0, [r0], -pc	; <UNPREDICTABLE>
      3c:	000004f9 	strdeq	r0, [r0], -r9
      40:	0000027d 	andeq	r0, r0, sp, ror r2
      44:	0000027d 	andeq	r0, r0, sp, ror r2
      48:	0000027d 	andeq	r0, r0, sp, ror r2
      4c:	0000027d 	andeq	r0, r0, sp, ror r2
      50:	0000027d 	andeq	r0, r0, sp, ror r2
      54:	0000027d 	andeq	r0, r0, sp, ror r2
      58:	0000027d 	andeq	r0, r0, sp, ror r2
      5c:	0000027d 	andeq	r0, r0, sp, ror r2
      60:	0000027d 	andeq	r0, r0, sp, ror r2
      64:	0000027d 	andeq	r0, r0, sp, ror r2
      68:	0000027d 	andeq	r0, r0, sp, ror r2
      6c:	0000027d 	andeq	r0, r0, sp, ror r2
      70:	0000027d 	andeq	r0, r0, sp, ror r2
      74:	0000027d 	andeq	r0, r0, sp, ror r2
      78:	0000027d 	andeq	r0, r0, sp, ror r2
      7c:	0000027d 	andeq	r0, r0, sp, ror r2
      80:	0000027d 	andeq	r0, r0, sp, ror r2
      84:	0000027d 	andeq	r0, r0, sp, ror r2
      88:	0000027d 	andeq	r0, r0, sp, ror r2
      8c:	0000027d 	andeq	r0, r0, sp, ror r2
      90:	0000027d 	andeq	r0, r0, sp, ror r2
      94:	0000027d 	andeq	r0, r0, sp, ror r2
      98:	0000027d 	andeq	r0, r0, sp, ror r2
      9c:	0000027d 	andeq	r0, r0, sp, ror r2
      a0:	0000027d 	andeq	r0, r0, sp, ror r2
      a4:	0000027d 	andeq	r0, r0, sp, ror r2
      a8:	0000027d 	andeq	r0, r0, sp, ror r2
      ac:	0000027d 	andeq	r0, r0, sp, ror r2
      b0:	0000027d 	andeq	r0, r0, sp, ror r2
      b4:	0000027d 	andeq	r0, r0, sp, ror r2
      b8:	0000027d 	andeq	r0, r0, sp, ror r2
      bc:	0000027d 	andeq	r0, r0, sp, ror r2
      c0:	0000027d 	andeq	r0, r0, sp, ror r2
      c4:	0000027d 	andeq	r0, r0, sp, ror r2
      c8:	0000027d 	andeq	r0, r0, sp, ror r2
      cc:	0000027d 	andeq	r0, r0, sp, ror r2
      d0:	0000027d 	andeq	r0, r0, sp, ror r2
      d4:	0000027d 	andeq	r0, r0, sp, ror r2
      d8:	0000027d 	andeq	r0, r0, sp, ror r2
      dc:	0000027d 	andeq	r0, r0, sp, ror r2
      e0:	0000027d 	andeq	r0, r0, sp, ror r2
      e4:	0000027d 	andeq	r0, r0, sp, ror r2
      e8:	0000027d 	andeq	r0, r0, sp, ror r2
      ec:	0000027d 	andeq	r0, r0, sp, ror r2
      f0:	0000027d 	andeq	r0, r0, sp, ror r2
      f4:	0000027d 	andeq	r0, r0, sp, ror r2
      f8:	0000027d 	andeq	r0, r0, sp, ror r2
      fc:	0000027d 	andeq	r0, r0, sp, ror r2
     100:	0000027d 	andeq	r0, r0, sp, ror r2
     104:	0000027d 	andeq	r0, r0, sp, ror r2
     108:	0000027d 	andeq	r0, r0, sp, ror r2
     10c:	0000027d 	andeq	r0, r0, sp, ror r2
     110:	0000027d 	andeq	r0, r0, sp, ror r2
     114:	0000027d 	andeq	r0, r0, sp, ror r2
     118:	0000027d 	andeq	r0, r0, sp, ror r2
     11c:	0000027d 	andeq	r0, r0, sp, ror r2
     120:	0000027d 	andeq	r0, r0, sp, ror r2
     124:	0000027d 	andeq	r0, r0, sp, ror r2
     128:	0000027d 	andeq	r0, r0, sp, ror r2
     12c:	0000027d 	andeq	r0, r0, sp, ror r2
     130:	0000027d 	andeq	r0, r0, sp, ror r2
     134:	0000027d 	andeq	r0, r0, sp, ror r2
     138:	0000027d 	andeq	r0, r0, sp, ror r2
     13c:	0000027d 	andeq	r0, r0, sp, ror r2
	...
     150:	0000027d 	andeq	r0, r0, sp, ror r2
     154:	0000027d 	andeq	r0, r0, sp, ror r2
     158:	0000027d 	andeq	r0, r0, sp, ror r2
     15c:	0000027d 	andeq	r0, r0, sp, ror r2
	...
     1b0:	0000027d 	andeq	r0, r0, sp, ror r2
     1b4:	0000027d 	andeq	r0, r0, sp, ror r2
     1b8:	0000027d 	andeq	r0, r0, sp, ror r2
     1bc:	0000027d 	andeq	r0, r0, sp, ror r2
     1c0:	0000027d 	andeq	r0, r0, sp, ror r2
     1c4:	0000027d 	andeq	r0, r0, sp, ror r2
     1c8:	0000027d 	andeq	r0, r0, sp, ror r2
     1cc:	0000027d 	andeq	r0, r0, sp, ror r2
     1d0:	0000027d 	andeq	r0, r0, sp, ror r2
     1d4:	0000027d 	andeq	r0, r0, sp, ror r2
     1d8:	0000027d 	andeq	r0, r0, sp, ror r2
     1dc:	0000027d 	andeq	r0, r0, sp, ror r2
     1e0:	0000027d 	andeq	r0, r0, sp, ror r2
     1e4:	0000027d 	andeq	r0, r0, sp, ror r2
     1e8:	0000027d 	andeq	r0, r0, sp, ror r2
     1ec:	0000027d 	andeq	r0, r0, sp, ror r2
     1f0:	0000027d 	andeq	r0, r0, sp, ror r2
     1f4:	0000027d 	andeq	r0, r0, sp, ror r2
     1f8:	0000027d 	andeq	r0, r0, sp, ror r2
     1fc:	0000027d 	andeq	r0, r0, sp, ror r2
     200:	0000027d 	andeq	r0, r0, sp, ror r2
     204:	0000027d 	andeq	r0, r0, sp, ror r2
     208:	0000027d 	andeq	r0, r0, sp, ror r2
     20c:	00000000 	andeq	r0, r0, r0
     210:	0000027d 	andeq	r0, r0, sp, ror r2
     214:	0000027d 	andeq	r0, r0, sp, ror r2
     218:	0000027d 	andeq	r0, r0, sp, ror r2
     21c:	0000027d 	andeq	r0, r0, sp, ror r2
     220:	0000027d 	andeq	r0, r0, sp, ror r2
     224:	0000027d 	andeq	r0, r0, sp, ror r2
     228:	0000027d 	andeq	r0, r0, sp, ror r2
     22c:	0000027d 	andeq	r0, r0, sp, ror r2
     230:	0000027d 	andeq	r0, r0, sp, ror r2
     234:	0000027d 	andeq	r0, r0, sp, ror r2
     238:	0000027d 	andeq	r0, r0, sp, ror r2
     23c:	0000027d 	andeq	r0, r0, sp, ror r2
     240:	0000027d 	andeq	r0, r0, sp, ror r2
     244:	0000027d 	andeq	r0, r0, sp, ror r2
     248:	0000027d 	andeq	r0, r0, sp, ror r2
     24c:	0000027d 	andeq	r0, r0, sp, ror r2
     250:	0000027d 	andeq	r0, r0, sp, ror r2
     254:	0000027d 	andeq	r0, r0, sp, ror r2
     258:	0000027d 	andeq	r0, r0, sp, ror r2
     25c:	0000027d 	andeq	r0, r0, sp, ror r2
     260:	0000027d 	andeq	r0, r0, sp, ror r2
     264:	0000027d 	andeq	r0, r0, sp, ror r2
     268:	0000027d 	andeq	r0, r0, sp, ror r2

0000026c <NmiSR>:
     26c:	b480      	push	{r7}
     26e:	af00      	add	r7, sp, #0
     270:	e7fe      	b.n	270 <NmiSR+0x4>
     272:	bf00      	nop

00000274 <FaultISR>:
     274:	b480      	push	{r7}
     276:	af00      	add	r7, sp, #0
     278:	e7fe      	b.n	278 <FaultISR+0x4>
     27a:	bf00      	nop

0000027c <IntDefaultHandler>:
     27c:	b580      	push	{r7, lr}
     27e:	af00      	add	r7, sp, #0
     280:	4801      	ldr	r0, [pc, #4]	; (288 <IntDefaultHandler+0xc>)
     282:	f000 fbab 	bl	9dc <printk>
     286:	e7fe      	b.n	286 <IntDefaultHandler+0xa>
     288:	0000248c 	andeq	r2, r0, ip, lsl #9

0000028c <clear_bss>:
     28c:	b480      	push	{r7}
     28e:	b083      	sub	sp, #12
     290:	af00      	add	r7, sp, #0
     292:	4b0a      	ldr	r3, [pc, #40]	; (2bc <clear_bss+0x30>)
     294:	681b      	ldr	r3, [r3, #0]
     296:	607b      	str	r3, [r7, #4]
     298:	e005      	b.n	2a6 <clear_bss+0x1a>
     29a:	687b      	ldr	r3, [r7, #4]
     29c:	2200      	movs	r2, #0
     29e:	701a      	strb	r2, [r3, #0]
     2a0:	687b      	ldr	r3, [r7, #4]
     2a2:	3301      	adds	r3, #1
     2a4:	607b      	str	r3, [r7, #4]
     2a6:	687a      	ldr	r2, [r7, #4]
     2a8:	4b05      	ldr	r3, [pc, #20]	; (2c0 <clear_bss+0x34>)
     2aa:	681b      	ldr	r3, [r3, #0]
     2ac:	429a      	cmp	r2, r3
     2ae:	d3f4      	bcc.n	29a <clear_bss+0xe>
     2b0:	370c      	adds	r7, #12
     2b2:	46bd      	mov	sp, r7
     2b4:	f85d 7b04 	ldr.w	r7, [sp], #4
     2b8:	4770      	bx	lr
     2ba:	bf00      	nop
     2bc:	20000000 	andcs	r0, r0, r0
     2c0:	20005adc 	ldrdcs	r5, [r0], -ip

000002c4 <task1_entry>:
     2c4:	b580      	push	{r7, lr}
     2c6:	b098      	sub	sp, #96	; 0x60
     2c8:	af00      	add	r7, sp, #0
     2ca:	6078      	str	r0, [r7, #4]
     2cc:	200a      	movs	r0, #10
     2ce:	f000 f8f1 	bl	4b4 <init_systick>
     2d2:	4824      	ldr	r0, [pc, #144]	; (364 <task1_entry+0xa0>)
     2d4:	4924      	ldr	r1, [pc, #144]	; (368 <task1_entry+0xa4>)
     2d6:	2264      	movs	r2, #100	; 0x64
     2d8:	2314      	movs	r3, #20
     2da:	f001 ffc5 	bl	2268 <mem_block_init>
     2de:	4823      	ldr	r0, [pc, #140]	; (36c <task1_entry+0xa8>)
     2e0:	4923      	ldr	r1, [pc, #140]	; (370 <task1_entry+0xac>)
     2e2:	f000 fb7b 	bl	9dc <printk>
     2e6:	2300      	movs	r3, #0
     2e8:	f887 305f 	strb.w	r3, [r7, #95]	; 0x5f
     2ec:	e00f      	b.n	30e <task1_entry+0x4a>
     2ee:	f897 305f 	ldrb.w	r3, [r7, #95]	; 0x5f
     2f2:	f107 020c 	add.w	r2, r7, #12
     2f6:	009b      	lsls	r3, r3, #2
     2f8:	4413      	add	r3, r2
     2fa:	481a      	ldr	r0, [pc, #104]	; (364 <task1_entry+0xa0>)
     2fc:	4619      	mov	r1, r3
     2fe:	2200      	movs	r2, #0
     300:	f001 fff0 	bl	22e4 <mem_block_alloc>
     304:	f897 305f 	ldrb.w	r3, [r7, #95]	; 0x5f
     308:	3301      	adds	r3, #1
     30a:	f887 305f 	strb.w	r3, [r7, #95]	; 0x5f
     30e:	f897 305f 	ldrb.w	r3, [r7, #95]	; 0x5f
     312:	2b13      	cmp	r3, #19
     314:	d9eb      	bls.n	2ee <task1_entry+0x2a>
     316:	2002      	movs	r0, #2
     318:	f000 ff2e 	bl	1178 <task_delay_s>
     31c:	4815      	ldr	r0, [pc, #84]	; (374 <task1_entry+0xb0>)
     31e:	4914      	ldr	r1, [pc, #80]	; (370 <task1_entry+0xac>)
     320:	f000 fb5c 	bl	9dc <printk>
     324:	2300      	movs	r3, #0
     326:	f887 305f 	strb.w	r3, [r7, #95]	; 0x5f
     32a:	e00e      	b.n	34a <task1_entry+0x86>
     32c:	f897 305f 	ldrb.w	r3, [r7, #95]	; 0x5f
     330:	f107 020c 	add.w	r2, r7, #12
     334:	009b      	lsls	r3, r3, #2
     336:	4413      	add	r3, r2
     338:	480a      	ldr	r0, [pc, #40]	; (364 <task1_entry+0xa0>)
     33a:	4619      	mov	r1, r3
     33c:	f002 f834 	bl	23a8 <mem_block_free>
     340:	f897 305f 	ldrb.w	r3, [r7, #95]	; 0x5f
     344:	3301      	adds	r3, #1
     346:	f887 305f 	strb.w	r3, [r7, #95]	; 0x5f
     34a:	f897 305f 	ldrb.w	r3, [r7, #95]	; 0x5f
     34e:	2b13      	cmp	r3, #19
     350:	d9ec      	bls.n	32c <task1_entry+0x68>
     352:	4809      	ldr	r0, [pc, #36]	; (378 <task1_entry+0xb4>)
     354:	4906      	ldr	r1, [pc, #24]	; (370 <task1_entry+0xac>)
     356:	f000 fb41 	bl	9dc <printk>
     35a:	2001      	movs	r0, #1
     35c:	f000 ff0c 	bl	1178 <task_delay_s>
     360:	e7bd      	b.n	2de <task1_entry+0x1a>
     362:	bf00      	nop
     364:	20002098 	mulcs	r0, r8, r0
     368:	20003140 	andcs	r3, r0, r0, asr #2
     36c:	000024a0 	andeq	r2, r0, r0, lsr #9
     370:	000024f8 	strdeq	r2, [r0], -r8
     374:	000024ac 	andeq	r2, r0, ip, lsr #9
     378:	000024b8 			; <UNDEFINED> instruction: 0x000024b8

0000037c <task2_entry>:
     37c:	b580      	push	{r7, lr}
     37e:	b084      	sub	sp, #16
     380:	af00      	add	r7, sp, #0
     382:	6078      	str	r0, [r7, #4]
     384:	f107 030c 	add.w	r3, r7, #12
     388:	4805      	ldr	r0, [pc, #20]	; (3a0 <task2_entry+0x24>)
     38a:	4619      	mov	r1, r3
     38c:	2200      	movs	r2, #0
     38e:	f001 ffa9 	bl	22e4 <mem_block_alloc>
     392:	68fb      	ldr	r3, [r7, #12]
     394:	4803      	ldr	r0, [pc, #12]	; (3a4 <task2_entry+0x28>)
     396:	4904      	ldr	r1, [pc, #16]	; (3a8 <task2_entry+0x2c>)
     398:	461a      	mov	r2, r3
     39a:	f000 fb1f 	bl	9dc <printk>
     39e:	e7f1      	b.n	384 <task2_entry+0x8>
     3a0:	20002098 	mulcs	r0, r8, r0
     3a4:	000024bc 			; <UNDEFINED> instruction: 0x000024bc
     3a8:	00002504 	andeq	r2, r0, r4, lsl #10

000003ac <task3_entry>:
     3ac:	b580      	push	{r7, lr}
     3ae:	b082      	sub	sp, #8
     3b0:	af00      	add	r7, sp, #0
     3b2:	6078      	str	r0, [r7, #4]
     3b4:	4803      	ldr	r0, [pc, #12]	; (3c4 <task3_entry+0x18>)
     3b6:	4904      	ldr	r1, [pc, #16]	; (3c8 <task3_entry+0x1c>)
     3b8:	f000 fb10 	bl	9dc <printk>
     3bc:	2001      	movs	r0, #1
     3be:	f000 fedb 	bl	1178 <task_delay_s>
     3c2:	e7f7      	b.n	3b4 <task3_entry+0x8>
     3c4:	000024b8 			; <UNDEFINED> instruction: 0x000024b8
     3c8:	00002510 	andeq	r2, r0, r0, lsl r5

000003cc <task4_entry>:
     3cc:	b580      	push	{r7, lr}
     3ce:	b082      	sub	sp, #8
     3d0:	af00      	add	r7, sp, #0
     3d2:	6078      	str	r0, [r7, #4]
     3d4:	4803      	ldr	r0, [pc, #12]	; (3e4 <task4_entry+0x18>)
     3d6:	4904      	ldr	r1, [pc, #16]	; (3e8 <task4_entry+0x1c>)
     3d8:	f000 fb00 	bl	9dc <printk>
     3dc:	2001      	movs	r0, #1
     3de:	f000 fecb 	bl	1178 <task_delay_s>
     3e2:	e7f7      	b.n	3d4 <task4_entry+0x8>
     3e4:	000024b8 			; <UNDEFINED> instruction: 0x000024b8
     3e8:	0000251c 	andeq	r2, r0, ip, lsl r5

000003ec <main>:
     3ec:	b580      	push	{r7, lr}
     3ee:	b082      	sub	sp, #8
     3f0:	af02      	add	r7, sp, #8
     3f2:	f7ff ff4b 	bl	28c <clear_bss>
     3f6:	481f      	ldr	r0, [pc, #124]	; (474 <main+0x88>)
     3f8:	f000 faf0 	bl	9dc <printk>
     3fc:	f000 fd63 	bl	ec6 <get_psp>
     400:	4603      	mov	r3, r0
     402:	481d      	ldr	r0, [pc, #116]	; (478 <main+0x8c>)
     404:	4619      	mov	r1, r3
     406:	f000 fae9 	bl	9dc <printk>
     40a:	f000 fd62 	bl	ed2 <get_msp>
     40e:	4603      	mov	r3, r0
     410:	481a      	ldr	r0, [pc, #104]	; (47c <main+0x90>)
     412:	4619      	mov	r1, r3
     414:	f000 fae2 	bl	9dc <printk>
     418:	f000 ff36 	bl	1288 <init_task_module>
     41c:	4b18      	ldr	r3, [pc, #96]	; (480 <main+0x94>)
     41e:	9300      	str	r3, [sp, #0]
     420:	4818      	ldr	r0, [pc, #96]	; (484 <main+0x98>)
     422:	4919      	ldr	r1, [pc, #100]	; (488 <main+0x9c>)
     424:	f04f 3211 	mov.w	r2, #286331153	; 0x11111111
     428:	2300      	movs	r3, #0
     42a:	f000 fd85 	bl	f38 <task_init>
     42e:	4b17      	ldr	r3, [pc, #92]	; (48c <main+0xa0>)
     430:	9300      	str	r3, [sp, #0]
     432:	4817      	ldr	r0, [pc, #92]	; (490 <main+0xa4>)
     434:	4917      	ldr	r1, [pc, #92]	; (494 <main+0xa8>)
     436:	f04f 3222 	mov.w	r2, #572662306	; 0x22222222
     43a:	2301      	movs	r3, #1
     43c:	f000 fd7c 	bl	f38 <task_init>
     440:	4b15      	ldr	r3, [pc, #84]	; (498 <main+0xac>)
     442:	9300      	str	r3, [sp, #0]
     444:	4815      	ldr	r0, [pc, #84]	; (49c <main+0xb0>)
     446:	4916      	ldr	r1, [pc, #88]	; (4a0 <main+0xb4>)
     448:	f04f 3233 	mov.w	r2, #858993459	; 0x33333333
     44c:	2300      	movs	r3, #0
     44e:	f000 fd73 	bl	f38 <task_init>
     452:	4b14      	ldr	r3, [pc, #80]	; (4a4 <main+0xb8>)
     454:	9300      	str	r3, [sp, #0]
     456:	4814      	ldr	r0, [pc, #80]	; (4a8 <main+0xbc>)
     458:	4914      	ldr	r1, [pc, #80]	; (4ac <main+0xc0>)
     45a:	f04f 3244 	mov.w	r2, #1145324612	; 0x44444444
     45e:	2301      	movs	r3, #1
     460:	f000 fd6a 	bl	f38 <task_init>
     464:	f000 ffa0 	bl	13a8 <task_highest_ready>
     468:	4602      	mov	r2, r0
     46a:	4b11      	ldr	r3, [pc, #68]	; (4b0 <main+0xc4>)
     46c:	601a      	str	r2, [r3, #0]
     46e:	f000 fe4d 	bl	110c <task_run_first>
     472:	e7fe      	b.n	472 <main+0x86>
     474:	000024c4 	andeq	r2, r0, r4, asr #9
     478:	000024e0 	andeq	r2, r0, r0, ror #9
     47c:	000024ec 	andeq	r2, r0, ip, ror #9
     480:	20002058 	andcs	r2, r0, r8, asr r0
     484:	200030c0 	andcs	r3, r0, r0, asr #1
     488:	000002c5 	andeq	r0, r0, r5, asr #5
     48c:	20004910 	andcs	r4, r0, r0, lsl r9
     490:	20003100 	andcs	r3, r0, r0, lsl #2
     494:	0000037d 	andeq	r0, r0, sp, ror r3
     498:	20005910 	andcs	r5, r0, r0, lsl r9
     49c:	20005910 	andcs	r5, r0, r0, lsl r9
     4a0:	000003ad 	andeq	r0, r0, sp, lsr #7
     4a4:	200030c0 	andcs	r3, r0, r0, asr #1
     4a8:	20002058 	andcs	r2, r0, r8, asr r0
     4ac:	000003cd 	andeq	r0, r0, sp, asr #7
     4b0:	20005950 	andcs	r5, r0, r0, asr r9

000004b4 <init_systick>:
     4b4:	b480      	push	{r7}
     4b6:	b085      	sub	sp, #20
     4b8:	af00      	add	r7, sp, #0
     4ba:	6078      	str	r0, [r7, #4]
     4bc:	4b0c      	ldr	r3, [pc, #48]	; (4f0 <init_systick+0x3c>)
     4be:	60fb      	str	r3, [r7, #12]
     4c0:	4b0c      	ldr	r3, [pc, #48]	; (4f4 <init_systick+0x40>)
     4c2:	60bb      	str	r3, [r7, #8]
     4c4:	68bb      	ldr	r3, [r7, #8]
     4c6:	22f0      	movs	r2, #240	; 0xf0
     4c8:	701a      	strb	r2, [r3, #0]
     4ca:	687b      	ldr	r3, [r7, #4]
     4cc:	f642 62e0 	movw	r2, #12000	; 0x2ee0
     4d0:	fb02 f303 	mul.w	r3, r2, r3
     4d4:	1e5a      	subs	r2, r3, #1
     4d6:	68fb      	ldr	r3, [r7, #12]
     4d8:	605a      	str	r2, [r3, #4]
     4da:	68fb      	ldr	r3, [r7, #12]
     4dc:	2200      	movs	r2, #0
     4de:	609a      	str	r2, [r3, #8]
     4e0:	68fb      	ldr	r3, [r7, #12]
     4e2:	2207      	movs	r2, #7
     4e4:	601a      	str	r2, [r3, #0]
     4e6:	3714      	adds	r7, #20
     4e8:	46bd      	mov	sp, r7
     4ea:	f85d 7b04 	ldr.w	r7, [sp], #4
     4ee:	4770      	bx	lr
     4f0:	e000e010 	and	lr, r0, r0, lsl r0
     4f4:	e000ed23 	and	lr, r0, r3, lsr #26

000004f8 <systick_handler>:
     4f8:	b580      	push	{r7, lr}
     4fa:	af00      	add	r7, sp, #0
     4fc:	f000 fe4a 	bl	1194 <task_system_tick_handler>
     500:	bd80      	pop	{r7, pc}
     502:	bf00      	nop

00000504 <trigger_pend_sv>:
     504:	b480      	push	{r7}
     506:	af00      	add	r7, sp, #0
     508:	4b05      	ldr	r3, [pc, #20]	; (520 <trigger_pend_sv+0x1c>)
     50a:	22ff      	movs	r2, #255	; 0xff
     50c:	701a      	strb	r2, [r3, #0]
     50e:	4b05      	ldr	r3, [pc, #20]	; (524 <trigger_pend_sv+0x20>)
     510:	f04f 5280 	mov.w	r2, #268435456	; 0x10000000
     514:	601a      	str	r2, [r3, #0]
     516:	46bd      	mov	sp, r7
     518:	f85d 7b04 	ldr.w	r7, [sp], #4
     51c:	4770      	bx	lr
     51e:	bf00      	nop
     520:	e000ed22 	and	lr, r0, r2, lsr #26
     524:	e000ed04 	and	lr, r0, r4, lsl #26

00000528 <send_char>:
     528:	b480      	push	{r7}
     52a:	b083      	sub	sp, #12
     52c:	af00      	add	r7, sp, #0
     52e:	6078      	str	r0, [r7, #4]
     530:	4a05      	ldr	r2, [pc, #20]	; (548 <send_char+0x20>)
     532:	687b      	ldr	r3, [r7, #4]
     534:	781b      	ldrb	r3, [r3, #0]
     536:	6013      	str	r3, [r2, #0]
     538:	687b      	ldr	r3, [r7, #4]
     53a:	781b      	ldrb	r3, [r3, #0]
     53c:	4618      	mov	r0, r3
     53e:	370c      	adds	r7, #12
     540:	46bd      	mov	sp, r7
     542:	f85d 7b04 	ldr.w	r7, [sp], #4
     546:	4770      	bx	lr
     548:	4000c000 	andmi	ip, r0, r0

0000054c <is_dec_asc>:
     54c:	b480      	push	{r7}
     54e:	b085      	sub	sp, #20
     550:	af00      	add	r7, sp, #0
     552:	4603      	mov	r3, r0
     554:	71fb      	strb	r3, [r7, #7]
     556:	2300      	movs	r3, #0
     558:	60fb      	str	r3, [r7, #12]
     55a:	e00b      	b.n	574 <is_dec_asc+0x28>
     55c:	4a0a      	ldr	r2, [pc, #40]	; (588 <is_dec_asc+0x3c>)
     55e:	68fb      	ldr	r3, [r7, #12]
     560:	4413      	add	r3, r2
     562:	781b      	ldrb	r3, [r3, #0]
     564:	79fa      	ldrb	r2, [r7, #7]
     566:	429a      	cmp	r2, r3
     568:	d101      	bne.n	56e <is_dec_asc+0x22>
     56a:	2301      	movs	r3, #1
     56c:	e006      	b.n	57c <is_dec_asc+0x30>
     56e:	68fb      	ldr	r3, [r7, #12]
     570:	3301      	adds	r3, #1
     572:	60fb      	str	r3, [r7, #12]
     574:	68fb      	ldr	r3, [r7, #12]
     576:	2b09      	cmp	r3, #9
     578:	d9f0      	bls.n	55c <is_dec_asc+0x10>
     57a:	2300      	movs	r3, #0
     57c:	4618      	mov	r0, r3
     57e:	3714      	adds	r7, #20
     580:	46bd      	mov	sp, r7
     582:	f85d 7b04 	ldr.w	r7, [sp], #4
     586:	4770      	bx	lr
     588:	0000252c 	andeq	r2, r0, ip, lsr #10

0000058c <is_asc>:
     58c:	b480      	push	{r7}
     58e:	b083      	sub	sp, #12
     590:	af00      	add	r7, sp, #0
     592:	4603      	mov	r3, r0
     594:	71fb      	strb	r3, [r7, #7]
     596:	79fb      	ldrb	r3, [r7, #7]
     598:	2b40      	cmp	r3, #64	; 0x40
     59a:	d902      	bls.n	5a2 <is_asc+0x16>
     59c:	79fb      	ldrb	r3, [r7, #7]
     59e:	2b5a      	cmp	r3, #90	; 0x5a
     5a0:	d905      	bls.n	5ae <is_asc+0x22>
     5a2:	79fb      	ldrb	r3, [r7, #7]
     5a4:	2b60      	cmp	r3, #96	; 0x60
     5a6:	d904      	bls.n	5b2 <is_asc+0x26>
     5a8:	79fb      	ldrb	r3, [r7, #7]
     5aa:	2b7a      	cmp	r3, #122	; 0x7a
     5ac:	d801      	bhi.n	5b2 <is_asc+0x26>
     5ae:	2301      	movs	r3, #1
     5b0:	e000      	b.n	5b4 <is_asc+0x28>
     5b2:	2300      	movs	r3, #0
     5b4:	4618      	mov	r0, r3
     5b6:	370c      	adds	r7, #12
     5b8:	46bd      	mov	sp, r7
     5ba:	f85d 7b04 	ldr.w	r7, [sp], #4
     5be:	4770      	bx	lr

000005c0 <is_hex_asc>:
     5c0:	b480      	push	{r7}
     5c2:	b083      	sub	sp, #12
     5c4:	af00      	add	r7, sp, #0
     5c6:	4603      	mov	r3, r0
     5c8:	71fb      	strb	r3, [r7, #7]
     5ca:	79fb      	ldrb	r3, [r7, #7]
     5cc:	2b2f      	cmp	r3, #47	; 0x2f
     5ce:	d902      	bls.n	5d6 <is_hex_asc+0x16>
     5d0:	79fb      	ldrb	r3, [r7, #7]
     5d2:	2b39      	cmp	r3, #57	; 0x39
     5d4:	d90b      	bls.n	5ee <is_hex_asc+0x2e>
     5d6:	79fb      	ldrb	r3, [r7, #7]
     5d8:	2b40      	cmp	r3, #64	; 0x40
     5da:	d902      	bls.n	5e2 <is_hex_asc+0x22>
     5dc:	79fb      	ldrb	r3, [r7, #7]
     5de:	2b46      	cmp	r3, #70	; 0x46
     5e0:	d905      	bls.n	5ee <is_hex_asc+0x2e>
     5e2:	79fb      	ldrb	r3, [r7, #7]
     5e4:	2b60      	cmp	r3, #96	; 0x60
     5e6:	d904      	bls.n	5f2 <is_hex_asc+0x32>
     5e8:	79fb      	ldrb	r3, [r7, #7]
     5ea:	2b66      	cmp	r3, #102	; 0x66
     5ec:	d801      	bhi.n	5f2 <is_hex_asc+0x32>
     5ee:	2301      	movs	r3, #1
     5f0:	e000      	b.n	5f4 <is_hex_asc+0x34>
     5f2:	2300      	movs	r3, #0
     5f4:	4618      	mov	r0, r3
     5f6:	370c      	adds	r7, #12
     5f8:	46bd      	mov	sp, r7
     5fa:	f85d 7b04 	ldr.w	r7, [sp], #4
     5fe:	4770      	bx	lr

00000600 <printf_char>:
     600:	b580      	push	{r7, lr}
     602:	b084      	sub	sp, #16
     604:	af00      	add	r7, sp, #0
     606:	4603      	mov	r3, r0
     608:	71fb      	strb	r3, [r7, #7]
     60a:	230d      	movs	r3, #13
     60c:	73fb      	strb	r3, [r7, #15]
     60e:	2300      	movs	r3, #0
     610:	73bb      	strb	r3, [r7, #14]
     612:	79fb      	ldrb	r3, [r7, #7]
     614:	73bb      	strb	r3, [r7, #14]
     616:	f107 030e 	add.w	r3, r7, #14
     61a:	4618      	mov	r0, r3
     61c:	f7ff ff84 	bl	528 <send_char>
     620:	7bbb      	ldrb	r3, [r7, #14]
     622:	2b0a      	cmp	r3, #10
     624:	d104      	bne.n	630 <printf_char+0x30>
     626:	f107 030f 	add.w	r3, r7, #15
     62a:	4618      	mov	r0, r3
     62c:	f7ff ff7c 	bl	528 <send_char>
     630:	2300      	movs	r3, #0
     632:	4618      	mov	r0, r3
     634:	3710      	adds	r7, #16
     636:	46bd      	mov	sp, r7
     638:	bd80      	pop	{r7, pc}
     63a:	bf00      	nop

0000063c <printf_str>:
     63c:	b580      	push	{r7, lr}
     63e:	b082      	sub	sp, #8
     640:	af00      	add	r7, sp, #0
     642:	6078      	str	r0, [r7, #4]
     644:	e007      	b.n	656 <printf_str+0x1a>
     646:	687b      	ldr	r3, [r7, #4]
     648:	781b      	ldrb	r3, [r3, #0]
     64a:	4618      	mov	r0, r3
     64c:	f7ff ffd8 	bl	600 <printf_char>
     650:	687b      	ldr	r3, [r7, #4]
     652:	3301      	adds	r3, #1
     654:	607b      	str	r3, [r7, #4]
     656:	687b      	ldr	r3, [r7, #4]
     658:	2b00      	cmp	r3, #0
     65a:	d003      	beq.n	664 <printf_str+0x28>
     65c:	687b      	ldr	r3, [r7, #4]
     65e:	781b      	ldrb	r3, [r3, #0]
     660:	2b00      	cmp	r3, #0
     662:	d1f0      	bne.n	646 <printf_str+0xa>
     664:	2300      	movs	r3, #0
     666:	4618      	mov	r0, r3
     668:	3708      	adds	r7, #8
     66a:	46bd      	mov	sp, r7
     66c:	bd80      	pop	{r7, pc}
     66e:	bf00      	nop

00000670 <printf_hex>:
     670:	b580      	push	{r7, lr}
     672:	b084      	sub	sp, #16
     674:	af00      	add	r7, sp, #0
     676:	6078      	str	r0, [r7, #4]
     678:	6039      	str	r1, [r7, #0]
     67a:	2300      	movs	r3, #0
     67c:	60fb      	str	r3, [r7, #12]
     67e:	2300      	movs	r3, #0
     680:	72fb      	strb	r3, [r7, #11]
     682:	2300      	movs	r3, #0
     684:	72bb      	strb	r3, [r7, #10]
     686:	683b      	ldr	r3, [r7, #0]
     688:	2b08      	cmp	r3, #8
     68a:	d802      	bhi.n	692 <printf_hex+0x22>
     68c:	683b      	ldr	r3, [r7, #0]
     68e:	2b00      	cmp	r3, #0
     690:	d101      	bne.n	696 <printf_hex+0x26>
     692:	2308      	movs	r3, #8
     694:	603b      	str	r3, [r7, #0]
     696:	683b      	ldr	r3, [r7, #0]
     698:	3b01      	subs	r3, #1
     69a:	60fb      	str	r3, [r7, #12]
     69c:	e017      	b.n	6ce <printf_hex+0x5e>
     69e:	68fb      	ldr	r3, [r7, #12]
     6a0:	009b      	lsls	r3, r3, #2
     6a2:	220f      	movs	r2, #15
     6a4:	fa02 f303 	lsl.w	r3, r2, r3
     6a8:	461a      	mov	r2, r3
     6aa:	687b      	ldr	r3, [r7, #4]
     6ac:	401a      	ands	r2, r3
     6ae:	68fb      	ldr	r3, [r7, #12]
     6b0:	009b      	lsls	r3, r3, #2
     6b2:	fa22 f303 	lsr.w	r3, r2, r3
     6b6:	72fb      	strb	r3, [r7, #11]
     6b8:	7afb      	ldrb	r3, [r7, #11]
     6ba:	4a09      	ldr	r2, [pc, #36]	; (6e0 <printf_hex+0x70>)
     6bc:	5cd3      	ldrb	r3, [r2, r3]
     6be:	72bb      	strb	r3, [r7, #10]
     6c0:	7abb      	ldrb	r3, [r7, #10]
     6c2:	4618      	mov	r0, r3
     6c4:	f7ff ff9c 	bl	600 <printf_char>
     6c8:	68fb      	ldr	r3, [r7, #12]
     6ca:	3b01      	subs	r3, #1
     6cc:	60fb      	str	r3, [r7, #12]
     6ce:	68fb      	ldr	r3, [r7, #12]
     6d0:	2b00      	cmp	r3, #0
     6d2:	dae4      	bge.n	69e <printf_hex+0x2e>
     6d4:	2300      	movs	r3, #0
     6d6:	4618      	mov	r0, r3
     6d8:	3710      	adds	r7, #16
     6da:	46bd      	mov	sp, r7
     6dc:	bd80      	pop	{r7, pc}
     6de:	bf00      	nop
     6e0:	0000252c 	andeq	r2, r0, ip, lsr #10

000006e4 <printf_hex_upper>:
     6e4:	b580      	push	{r7, lr}
     6e6:	b084      	sub	sp, #16
     6e8:	af00      	add	r7, sp, #0
     6ea:	6078      	str	r0, [r7, #4]
     6ec:	6039      	str	r1, [r7, #0]
     6ee:	2300      	movs	r3, #0
     6f0:	60fb      	str	r3, [r7, #12]
     6f2:	2300      	movs	r3, #0
     6f4:	72fb      	strb	r3, [r7, #11]
     6f6:	2300      	movs	r3, #0
     6f8:	72bb      	strb	r3, [r7, #10]
     6fa:	683b      	ldr	r3, [r7, #0]
     6fc:	2b08      	cmp	r3, #8
     6fe:	d802      	bhi.n	706 <printf_hex_upper+0x22>
     700:	683b      	ldr	r3, [r7, #0]
     702:	2b00      	cmp	r3, #0
     704:	d101      	bne.n	70a <printf_hex_upper+0x26>
     706:	2308      	movs	r3, #8
     708:	603b      	str	r3, [r7, #0]
     70a:	683b      	ldr	r3, [r7, #0]
     70c:	3b01      	subs	r3, #1
     70e:	60fb      	str	r3, [r7, #12]
     710:	e017      	b.n	742 <printf_hex_upper+0x5e>
     712:	68fb      	ldr	r3, [r7, #12]
     714:	009b      	lsls	r3, r3, #2
     716:	220f      	movs	r2, #15
     718:	fa02 f303 	lsl.w	r3, r2, r3
     71c:	461a      	mov	r2, r3
     71e:	687b      	ldr	r3, [r7, #4]
     720:	401a      	ands	r2, r3
     722:	68fb      	ldr	r3, [r7, #12]
     724:	009b      	lsls	r3, r3, #2
     726:	fa22 f303 	lsr.w	r3, r2, r3
     72a:	72fb      	strb	r3, [r7, #11]
     72c:	7afb      	ldrb	r3, [r7, #11]
     72e:	4a09      	ldr	r2, [pc, #36]	; (754 <printf_hex_upper+0x70>)
     730:	5cd3      	ldrb	r3, [r2, r3]
     732:	72bb      	strb	r3, [r7, #10]
     734:	7abb      	ldrb	r3, [r7, #10]
     736:	4618      	mov	r0, r3
     738:	f7ff ff62 	bl	600 <printf_char>
     73c:	68fb      	ldr	r3, [r7, #12]
     73e:	3b01      	subs	r3, #1
     740:	60fb      	str	r3, [r7, #12]
     742:	68fb      	ldr	r3, [r7, #12]
     744:	2b00      	cmp	r3, #0
     746:	dae4      	bge.n	712 <printf_hex_upper+0x2e>
     748:	2300      	movs	r3, #0
     74a:	4618      	mov	r0, r3
     74c:	3710      	adds	r7, #16
     74e:	46bd      	mov	sp, r7
     750:	bd80      	pop	{r7, pc}
     752:	bf00      	nop
     754:	0000253c 	andeq	r2, r0, ip, lsr r5

00000758 <printf_dec>:
     758:	b580      	push	{r7, lr}
     75a:	b086      	sub	sp, #24
     75c:	af00      	add	r7, sp, #0
     75e:	6078      	str	r0, [r7, #4]
     760:	2300      	movs	r3, #0
     762:	617b      	str	r3, [r7, #20]
     764:	2301      	movs	r3, #1
     766:	613b      	str	r3, [r7, #16]
     768:	2301      	movs	r3, #1
     76a:	60fb      	str	r3, [r7, #12]
     76c:	2300      	movs	r3, #0
     76e:	72fb      	strb	r3, [r7, #11]
     770:	693b      	ldr	r3, [r7, #16]
     772:	00da      	lsls	r2, r3, #3
     774:	693b      	ldr	r3, [r7, #16]
     776:	005b      	lsls	r3, r3, #1
     778:	4413      	add	r3, r2
     77a:	613b      	str	r3, [r7, #16]
     77c:	697b      	ldr	r3, [r7, #20]
     77e:	3301      	adds	r3, #1
     780:	617b      	str	r3, [r7, #20]
     782:	693a      	ldr	r2, [r7, #16]
     784:	687b      	ldr	r3, [r7, #4]
     786:	429a      	cmp	r2, r3
     788:	d904      	bls.n	794 <printf_dec+0x3c>
     78a:	bf00      	nop
     78c:	697b      	ldr	r3, [r7, #20]
     78e:	2b08      	cmp	r3, #8
     790:	d904      	bls.n	79c <printf_dec+0x44>
     792:	e000      	b.n	796 <printf_dec+0x3e>
     794:	e7ec      	b.n	770 <printf_dec+0x18>
     796:	f04f 33ff 	mov.w	r3, #4294967295	; 0xffffffff
     79a:	e10e      	b.n	9ba <printf_dec+0x262>
     79c:	e108      	b.n	9b0 <printf_dec+0x258>
     79e:	697b      	ldr	r3, [r7, #20]
     7a0:	3b01      	subs	r3, #1
     7a2:	4a88      	ldr	r2, [pc, #544]	; (9c4 <printf_dec+0x26c>)
     7a4:	f852 3023 	ldr.w	r3, [r2, r3, lsl #2]
     7a8:	00da      	lsls	r2, r3, #3
     7aa:	697b      	ldr	r3, [r7, #20]
     7ac:	3b01      	subs	r3, #1
     7ae:	4985      	ldr	r1, [pc, #532]	; (9c4 <printf_dec+0x26c>)
     7b0:	f851 3023 	ldr.w	r3, [r1, r3, lsl #2]
     7b4:	441a      	add	r2, r3
     7b6:	687b      	ldr	r3, [r7, #4]
     7b8:	429a      	cmp	r2, r3
     7ba:	d80f      	bhi.n	7dc <printf_dec+0x84>
     7bc:	2309      	movs	r3, #9
     7be:	613b      	str	r3, [r7, #16]
     7c0:	697b      	ldr	r3, [r7, #20]
     7c2:	3b01      	subs	r3, #1
     7c4:	4a7f      	ldr	r2, [pc, #508]	; (9c4 <printf_dec+0x26c>)
     7c6:	f852 3023 	ldr.w	r3, [r2, r3, lsl #2]
     7ca:	00da      	lsls	r2, r3, #3
     7cc:	697b      	ldr	r3, [r7, #20]
     7ce:	3b01      	subs	r3, #1
     7d0:	497c      	ldr	r1, [pc, #496]	; (9c4 <printf_dec+0x26c>)
     7d2:	f851 3023 	ldr.w	r3, [r1, r3, lsl #2]
     7d6:	4413      	add	r3, r2
     7d8:	60fb      	str	r3, [r7, #12]
     7da:	e0d9      	b.n	990 <printf_dec+0x238>
     7dc:	697b      	ldr	r3, [r7, #20]
     7de:	3b01      	subs	r3, #1
     7e0:	4a78      	ldr	r2, [pc, #480]	; (9c4 <printf_dec+0x26c>)
     7e2:	f852 3023 	ldr.w	r3, [r2, r3, lsl #2]
     7e6:	00da      	lsls	r2, r3, #3
     7e8:	687b      	ldr	r3, [r7, #4]
     7ea:	429a      	cmp	r2, r3
     7ec:	d809      	bhi.n	802 <printf_dec+0xaa>
     7ee:	2308      	movs	r3, #8
     7f0:	613b      	str	r3, [r7, #16]
     7f2:	697b      	ldr	r3, [r7, #20]
     7f4:	3b01      	subs	r3, #1
     7f6:	4a73      	ldr	r2, [pc, #460]	; (9c4 <printf_dec+0x26c>)
     7f8:	f852 3023 	ldr.w	r3, [r2, r3, lsl #2]
     7fc:	00db      	lsls	r3, r3, #3
     7fe:	60fb      	str	r3, [r7, #12]
     800:	e0c6      	b.n	990 <printf_dec+0x238>
     802:	697b      	ldr	r3, [r7, #20]
     804:	3b01      	subs	r3, #1
     806:	4a6f      	ldr	r2, [pc, #444]	; (9c4 <printf_dec+0x26c>)
     808:	f852 3023 	ldr.w	r3, [r2, r3, lsl #2]
     80c:	009a      	lsls	r2, r3, #2
     80e:	697b      	ldr	r3, [r7, #20]
     810:	3b01      	subs	r3, #1
     812:	496c      	ldr	r1, [pc, #432]	; (9c4 <printf_dec+0x26c>)
     814:	f851 3023 	ldr.w	r3, [r1, r3, lsl #2]
     818:	005b      	lsls	r3, r3, #1
     81a:	441a      	add	r2, r3
     81c:	697b      	ldr	r3, [r7, #20]
     81e:	3b01      	subs	r3, #1
     820:	4968      	ldr	r1, [pc, #416]	; (9c4 <printf_dec+0x26c>)
     822:	f851 3023 	ldr.w	r3, [r1, r3, lsl #2]
     826:	441a      	add	r2, r3
     828:	687b      	ldr	r3, [r7, #4]
     82a:	429a      	cmp	r2, r3
     82c:	d816      	bhi.n	85c <printf_dec+0x104>
     82e:	2307      	movs	r3, #7
     830:	613b      	str	r3, [r7, #16]
     832:	697b      	ldr	r3, [r7, #20]
     834:	3b01      	subs	r3, #1
     836:	4a63      	ldr	r2, [pc, #396]	; (9c4 <printf_dec+0x26c>)
     838:	f852 3023 	ldr.w	r3, [r2, r3, lsl #2]
     83c:	009a      	lsls	r2, r3, #2
     83e:	697b      	ldr	r3, [r7, #20]
     840:	3b01      	subs	r3, #1
     842:	4960      	ldr	r1, [pc, #384]	; (9c4 <printf_dec+0x26c>)
     844:	f851 3023 	ldr.w	r3, [r1, r3, lsl #2]
     848:	005b      	lsls	r3, r3, #1
     84a:	441a      	add	r2, r3
     84c:	697b      	ldr	r3, [r7, #20]
     84e:	3b01      	subs	r3, #1
     850:	495c      	ldr	r1, [pc, #368]	; (9c4 <printf_dec+0x26c>)
     852:	f851 3023 	ldr.w	r3, [r1, r3, lsl #2]
     856:	4413      	add	r3, r2
     858:	60fb      	str	r3, [r7, #12]
     85a:	e099      	b.n	990 <printf_dec+0x238>
     85c:	697b      	ldr	r3, [r7, #20]
     85e:	3b01      	subs	r3, #1
     860:	4a58      	ldr	r2, [pc, #352]	; (9c4 <printf_dec+0x26c>)
     862:	f852 3023 	ldr.w	r3, [r2, r3, lsl #2]
     866:	009a      	lsls	r2, r3, #2
     868:	697b      	ldr	r3, [r7, #20]
     86a:	3b01      	subs	r3, #1
     86c:	4955      	ldr	r1, [pc, #340]	; (9c4 <printf_dec+0x26c>)
     86e:	f851 3023 	ldr.w	r3, [r1, r3, lsl #2]
     872:	005b      	lsls	r3, r3, #1
     874:	441a      	add	r2, r3
     876:	687b      	ldr	r3, [r7, #4]
     878:	429a      	cmp	r2, r3
     87a:	d810      	bhi.n	89e <printf_dec+0x146>
     87c:	2306      	movs	r3, #6
     87e:	613b      	str	r3, [r7, #16]
     880:	697b      	ldr	r3, [r7, #20]
     882:	3b01      	subs	r3, #1
     884:	4a4f      	ldr	r2, [pc, #316]	; (9c4 <printf_dec+0x26c>)
     886:	f852 3023 	ldr.w	r3, [r2, r3, lsl #2]
     88a:	009a      	lsls	r2, r3, #2
     88c:	697b      	ldr	r3, [r7, #20]
     88e:	3b01      	subs	r3, #1
     890:	494c      	ldr	r1, [pc, #304]	; (9c4 <printf_dec+0x26c>)
     892:	f851 3023 	ldr.w	r3, [r1, r3, lsl #2]
     896:	005b      	lsls	r3, r3, #1
     898:	4413      	add	r3, r2
     89a:	60fb      	str	r3, [r7, #12]
     89c:	e078      	b.n	990 <printf_dec+0x238>
     89e:	697b      	ldr	r3, [r7, #20]
     8a0:	3b01      	subs	r3, #1
     8a2:	4a48      	ldr	r2, [pc, #288]	; (9c4 <printf_dec+0x26c>)
     8a4:	f852 3023 	ldr.w	r3, [r2, r3, lsl #2]
     8a8:	009a      	lsls	r2, r3, #2
     8aa:	697b      	ldr	r3, [r7, #20]
     8ac:	3b01      	subs	r3, #1
     8ae:	4945      	ldr	r1, [pc, #276]	; (9c4 <printf_dec+0x26c>)
     8b0:	f851 3023 	ldr.w	r3, [r1, r3, lsl #2]
     8b4:	441a      	add	r2, r3
     8b6:	687b      	ldr	r3, [r7, #4]
     8b8:	429a      	cmp	r2, r3
     8ba:	d80f      	bhi.n	8dc <printf_dec+0x184>
     8bc:	2305      	movs	r3, #5
     8be:	613b      	str	r3, [r7, #16]
     8c0:	697b      	ldr	r3, [r7, #20]
     8c2:	3b01      	subs	r3, #1
     8c4:	4a3f      	ldr	r2, [pc, #252]	; (9c4 <printf_dec+0x26c>)
     8c6:	f852 3023 	ldr.w	r3, [r2, r3, lsl #2]
     8ca:	009a      	lsls	r2, r3, #2
     8cc:	697b      	ldr	r3, [r7, #20]
     8ce:	3b01      	subs	r3, #1
     8d0:	493c      	ldr	r1, [pc, #240]	; (9c4 <printf_dec+0x26c>)
     8d2:	f851 3023 	ldr.w	r3, [r1, r3, lsl #2]
     8d6:	4413      	add	r3, r2
     8d8:	60fb      	str	r3, [r7, #12]
     8da:	e059      	b.n	990 <printf_dec+0x238>
     8dc:	697b      	ldr	r3, [r7, #20]
     8de:	3b01      	subs	r3, #1
     8e0:	4a38      	ldr	r2, [pc, #224]	; (9c4 <printf_dec+0x26c>)
     8e2:	f852 3023 	ldr.w	r3, [r2, r3, lsl #2]
     8e6:	009a      	lsls	r2, r3, #2
     8e8:	687b      	ldr	r3, [r7, #4]
     8ea:	429a      	cmp	r2, r3
     8ec:	d809      	bhi.n	902 <printf_dec+0x1aa>
     8ee:	2304      	movs	r3, #4
     8f0:	613b      	str	r3, [r7, #16]
     8f2:	697b      	ldr	r3, [r7, #20]
     8f4:	3b01      	subs	r3, #1
     8f6:	4a33      	ldr	r2, [pc, #204]	; (9c4 <printf_dec+0x26c>)
     8f8:	f852 3023 	ldr.w	r3, [r2, r3, lsl #2]
     8fc:	009b      	lsls	r3, r3, #2
     8fe:	60fb      	str	r3, [r7, #12]
     900:	e046      	b.n	990 <printf_dec+0x238>
     902:	697b      	ldr	r3, [r7, #20]
     904:	3b01      	subs	r3, #1
     906:	4a2f      	ldr	r2, [pc, #188]	; (9c4 <printf_dec+0x26c>)
     908:	f852 3023 	ldr.w	r3, [r2, r3, lsl #2]
     90c:	005a      	lsls	r2, r3, #1
     90e:	697b      	ldr	r3, [r7, #20]
     910:	3b01      	subs	r3, #1
     912:	492c      	ldr	r1, [pc, #176]	; (9c4 <printf_dec+0x26c>)
     914:	f851 3023 	ldr.w	r3, [r1, r3, lsl #2]
     918:	441a      	add	r2, r3
     91a:	687b      	ldr	r3, [r7, #4]
     91c:	429a      	cmp	r2, r3
     91e:	d80f      	bhi.n	940 <printf_dec+0x1e8>
     920:	2303      	movs	r3, #3
     922:	613b      	str	r3, [r7, #16]
     924:	697b      	ldr	r3, [r7, #20]
     926:	3b01      	subs	r3, #1
     928:	4a26      	ldr	r2, [pc, #152]	; (9c4 <printf_dec+0x26c>)
     92a:	f852 3023 	ldr.w	r3, [r2, r3, lsl #2]
     92e:	005a      	lsls	r2, r3, #1
     930:	697b      	ldr	r3, [r7, #20]
     932:	3b01      	subs	r3, #1
     934:	4923      	ldr	r1, [pc, #140]	; (9c4 <printf_dec+0x26c>)
     936:	f851 3023 	ldr.w	r3, [r1, r3, lsl #2]
     93a:	4413      	add	r3, r2
     93c:	60fb      	str	r3, [r7, #12]
     93e:	e027      	b.n	990 <printf_dec+0x238>
     940:	697b      	ldr	r3, [r7, #20]
     942:	3b01      	subs	r3, #1
     944:	4a1f      	ldr	r2, [pc, #124]	; (9c4 <printf_dec+0x26c>)
     946:	f852 3023 	ldr.w	r3, [r2, r3, lsl #2]
     94a:	005a      	lsls	r2, r3, #1
     94c:	687b      	ldr	r3, [r7, #4]
     94e:	429a      	cmp	r2, r3
     950:	d809      	bhi.n	966 <printf_dec+0x20e>
     952:	2302      	movs	r3, #2
     954:	613b      	str	r3, [r7, #16]
     956:	697b      	ldr	r3, [r7, #20]
     958:	3b01      	subs	r3, #1
     95a:	4a1a      	ldr	r2, [pc, #104]	; (9c4 <printf_dec+0x26c>)
     95c:	f852 3023 	ldr.w	r3, [r2, r3, lsl #2]
     960:	005b      	lsls	r3, r3, #1
     962:	60fb      	str	r3, [r7, #12]
     964:	e014      	b.n	990 <printf_dec+0x238>
     966:	697b      	ldr	r3, [r7, #20]
     968:	3b01      	subs	r3, #1
     96a:	4a16      	ldr	r2, [pc, #88]	; (9c4 <printf_dec+0x26c>)
     96c:	f852 2023 	ldr.w	r2, [r2, r3, lsl #2]
     970:	687b      	ldr	r3, [r7, #4]
     972:	429a      	cmp	r2, r3
     974:	d808      	bhi.n	988 <printf_dec+0x230>
     976:	2301      	movs	r3, #1
     978:	613b      	str	r3, [r7, #16]
     97a:	697b      	ldr	r3, [r7, #20]
     97c:	3b01      	subs	r3, #1
     97e:	4a11      	ldr	r2, [pc, #68]	; (9c4 <printf_dec+0x26c>)
     980:	f852 3023 	ldr.w	r3, [r2, r3, lsl #2]
     984:	60fb      	str	r3, [r7, #12]
     986:	e003      	b.n	990 <printf_dec+0x238>
     988:	2300      	movs	r3, #0
     98a:	613b      	str	r3, [r7, #16]
     98c:	2300      	movs	r3, #0
     98e:	60fb      	str	r3, [r7, #12]
     990:	4a0d      	ldr	r2, [pc, #52]	; (9c8 <printf_dec+0x270>)
     992:	693b      	ldr	r3, [r7, #16]
     994:	4413      	add	r3, r2
     996:	781b      	ldrb	r3, [r3, #0]
     998:	72fb      	strb	r3, [r7, #11]
     99a:	7afb      	ldrb	r3, [r7, #11]
     99c:	4618      	mov	r0, r3
     99e:	f7ff fe2f 	bl	600 <printf_char>
     9a2:	697b      	ldr	r3, [r7, #20]
     9a4:	3b01      	subs	r3, #1
     9a6:	617b      	str	r3, [r7, #20]
     9a8:	687a      	ldr	r2, [r7, #4]
     9aa:	68fb      	ldr	r3, [r7, #12]
     9ac:	1ad3      	subs	r3, r2, r3
     9ae:	607b      	str	r3, [r7, #4]
     9b0:	697b      	ldr	r3, [r7, #20]
     9b2:	2b00      	cmp	r3, #0
     9b4:	f47f aef3 	bne.w	79e <printf_dec+0x46>
     9b8:	2300      	movs	r3, #0
     9ba:	4618      	mov	r0, r3
     9bc:	3718      	adds	r7, #24
     9be:	46bd      	mov	sp, r7
     9c0:	bd80      	pop	{r7, pc}
     9c2:	bf00      	nop
     9c4:	0000254c 	andeq	r2, r0, ip, asr #10
     9c8:	0000252c 	andeq	r2, r0, ip, lsr #10

000009cc <no_printk>:
     9cc:	b40f      	push	{r0, r1, r2, r3}
     9ce:	b480      	push	{r7}
     9d0:	af00      	add	r7, sp, #0
     9d2:	46bd      	mov	sp, r7
     9d4:	f85d 7b04 	ldr.w	r7, [sp], #4
     9d8:	b004      	add	sp, #16
     9da:	4770      	bx	lr

000009dc <printk>:
     9dc:	b40f      	push	{r0, r1, r2, r3}
     9de:	b580      	push	{r7, lr}
     9e0:	b084      	sub	sp, #16
     9e2:	af00      	add	r7, sp, #0
     9e4:	2300      	movs	r3, #0
     9e6:	60fb      	str	r3, [r7, #12]
     9e8:	f107 031c 	add.w	r3, r7, #28
     9ec:	607b      	str	r3, [r7, #4]
     9ee:	69bb      	ldr	r3, [r7, #24]
     9f0:	781b      	ldrb	r3, [r3, #0]
     9f2:	72fb      	strb	r3, [r7, #11]
     9f4:	7afb      	ldrb	r3, [r7, #11]
     9f6:	2b25      	cmp	r3, #37	; 0x25
     9f8:	d004      	beq.n	a04 <printk+0x28>
     9fa:	7afb      	ldrb	r3, [r7, #11]
     9fc:	4618      	mov	r0, r3
     9fe:	f7ff fdff 	bl	600 <printf_char>
     a02:	e09f      	b.n	b44 <printk+0x168>
     a04:	69bb      	ldr	r3, [r7, #24]
     a06:	3301      	adds	r3, #1
     a08:	61bb      	str	r3, [r7, #24]
     a0a:	69bb      	ldr	r3, [r7, #24]
     a0c:	781b      	ldrb	r3, [r3, #0]
     a0e:	72fb      	strb	r3, [r7, #11]
     a10:	7afb      	ldrb	r3, [r7, #11]
     a12:	2b64      	cmp	r3, #100	; 0x64
     a14:	d00b      	beq.n	a2e <printk+0x52>
     a16:	7afb      	ldrb	r3, [r7, #11]
     a18:	2b78      	cmp	r3, #120	; 0x78
     a1a:	d008      	beq.n	a2e <printk+0x52>
     a1c:	7afb      	ldrb	r3, [r7, #11]
     a1e:	2b58      	cmp	r3, #88	; 0x58
     a20:	d005      	beq.n	a2e <printk+0x52>
     a22:	7afb      	ldrb	r3, [r7, #11]
     a24:	2b73      	cmp	r3, #115	; 0x73
     a26:	d002      	beq.n	a2e <printk+0x52>
     a28:	7afb      	ldrb	r3, [r7, #11]
     a2a:	2b63      	cmp	r3, #99	; 0x63
     a2c:	d114      	bne.n	a58 <printk+0x7c>
     a2e:	7afb      	ldrb	r3, [r7, #11]
     a30:	2b78      	cmp	r3, #120	; 0x78
     a32:	d002      	beq.n	a3a <printk+0x5e>
     a34:	7afb      	ldrb	r3, [r7, #11]
     a36:	2b58      	cmp	r3, #88	; 0x58
     a38:	d10d      	bne.n	a56 <printk+0x7a>
     a3a:	69bb      	ldr	r3, [r7, #24]
     a3c:	3b01      	subs	r3, #1
     a3e:	781b      	ldrb	r3, [r3, #0]
     a40:	2b25      	cmp	r3, #37	; 0x25
     a42:	d102      	bne.n	a4a <printk+0x6e>
     a44:	2308      	movs	r3, #8
     a46:	60fb      	str	r3, [r7, #12]
     a48:	e005      	b.n	a56 <printk+0x7a>
     a4a:	69bb      	ldr	r3, [r7, #24]
     a4c:	3b01      	subs	r3, #1
     a4e:	781b      	ldrb	r3, [r3, #0]
     a50:	3b30      	subs	r3, #48	; 0x30
     a52:	60fb      	str	r3, [r7, #12]
     a54:	e001      	b.n	a5a <printk+0x7e>
     a56:	e000      	b.n	a5a <printk+0x7e>
     a58:	e7d4      	b.n	a04 <printk+0x28>
     a5a:	7afb      	ldrb	r3, [r7, #11]
     a5c:	3b58      	subs	r3, #88	; 0x58
     a5e:	2b20      	cmp	r3, #32
     a60:	d86f      	bhi.n	b42 <printk+0x166>
     a62:	a201      	add	r2, pc, #4	; (adr r2, a68 <printk+0x8c>)
     a64:	f852 f023 	ldr.w	pc, [r2, r3, lsl #2]
     a68:	00000b0f 	andeq	r0, r0, pc, lsl #22
     a6c:	00000b43 	andeq	r0, r0, r3, asr #22
     a70:	00000b43 	andeq	r0, r0, r3, asr #22
     a74:	00000b43 	andeq	r0, r0, r3, asr #22
     a78:	00000b43 	andeq	r0, r0, r3, asr #22
     a7c:	00000b43 	andeq	r0, r0, r3, asr #22
     a80:	00000b43 	andeq	r0, r0, r3, asr #22
     a84:	00000b43 	andeq	r0, r0, r3, asr #22
     a88:	00000b43 	andeq	r0, r0, r3, asr #22
     a8c:	00000b43 	andeq	r0, r0, r3, asr #22
     a90:	00000b43 	andeq	r0, r0, r3, asr #22
     a94:	00000b31 	andeq	r0, r0, r1, lsr fp
     a98:	00000aed 	andeq	r0, r0, sp, ror #21
     a9c:	00000b43 	andeq	r0, r0, r3, asr #22
     aa0:	00000b43 	andeq	r0, r0, r3, asr #22
     aa4:	00000b43 	andeq	r0, r0, r3, asr #22
     aa8:	00000b43 	andeq	r0, r0, r3, asr #22
     aac:	00000b43 	andeq	r0, r0, r3, asr #22
     ab0:	00000b43 	andeq	r0, r0, r3, asr #22
     ab4:	00000b43 	andeq	r0, r0, r3, asr #22
     ab8:	00000b43 	andeq	r0, r0, r3, asr #22
     abc:	00000b43 	andeq	r0, r0, r3, asr #22
     ac0:	00000b43 	andeq	r0, r0, r3, asr #22
     ac4:	00000b43 	andeq	r0, r0, r3, asr #22
     ac8:	00000b43 	andeq	r0, r0, r3, asr #22
     acc:	00000b43 	andeq	r0, r0, r3, asr #22
     ad0:	00000b43 	andeq	r0, r0, r3, asr #22
     ad4:	00000b21 	andeq	r0, r0, r1, lsr #22
     ad8:	00000b43 	andeq	r0, r0, r3, asr #22
     adc:	00000b43 	andeq	r0, r0, r3, asr #22
     ae0:	00000b43 	andeq	r0, r0, r3, asr #22
     ae4:	00000b43 	andeq	r0, r0, r3, asr #22
     ae8:	00000afd 	strdeq	r0, [r0], -sp
     aec:	687b      	ldr	r3, [r7, #4]
     aee:	1d1a      	adds	r2, r3, #4
     af0:	607a      	str	r2, [r7, #4]
     af2:	681b      	ldr	r3, [r3, #0]
     af4:	4618      	mov	r0, r3
     af6:	f7ff fe2f 	bl	758 <printf_dec>
     afa:	e023      	b.n	b44 <printk+0x168>
     afc:	687b      	ldr	r3, [r7, #4]
     afe:	1d1a      	adds	r2, r3, #4
     b00:	607a      	str	r2, [r7, #4]
     b02:	681b      	ldr	r3, [r3, #0]
     b04:	4618      	mov	r0, r3
     b06:	68f9      	ldr	r1, [r7, #12]
     b08:	f7ff fdb2 	bl	670 <printf_hex>
     b0c:	e01a      	b.n	b44 <printk+0x168>
     b0e:	687b      	ldr	r3, [r7, #4]
     b10:	1d1a      	adds	r2, r3, #4
     b12:	607a      	str	r2, [r7, #4]
     b14:	681b      	ldr	r3, [r3, #0]
     b16:	4618      	mov	r0, r3
     b18:	68f9      	ldr	r1, [r7, #12]
     b1a:	f7ff fde3 	bl	6e4 <printf_hex_upper>
     b1e:	e011      	b.n	b44 <printk+0x168>
     b20:	687b      	ldr	r3, [r7, #4]
     b22:	1d1a      	adds	r2, r3, #4
     b24:	607a      	str	r2, [r7, #4]
     b26:	681b      	ldr	r3, [r3, #0]
     b28:	4618      	mov	r0, r3
     b2a:	f7ff fd87 	bl	63c <printf_str>
     b2e:	e009      	b.n	b44 <printk+0x168>
     b30:	687b      	ldr	r3, [r7, #4]
     b32:	1d1a      	adds	r2, r3, #4
     b34:	607a      	str	r2, [r7, #4]
     b36:	681b      	ldr	r3, [r3, #0]
     b38:	b2db      	uxtb	r3, r3
     b3a:	4618      	mov	r0, r3
     b3c:	f7ff fd60 	bl	600 <printf_char>
     b40:	e000      	b.n	b44 <printk+0x168>
     b42:	bf00      	nop
     b44:	69bb      	ldr	r3, [r7, #24]
     b46:	3301      	adds	r3, #1
     b48:	61bb      	str	r3, [r7, #24]
     b4a:	69bb      	ldr	r3, [r7, #24]
     b4c:	781b      	ldrb	r3, [r3, #0]
     b4e:	2b00      	cmp	r3, #0
     b50:	f47f af4d 	bne.w	9ee <printk+0x12>
     b54:	3710      	adds	r7, #16
     b56:	46bd      	mov	sp, r7
     b58:	e8bd 4080 	ldmia.w	sp!, {r7, lr}
     b5c:	b004      	add	sp, #16
     b5e:	4770      	bx	lr

00000b60 <memset>:
     b60:	b480      	push	{r7}
     b62:	b087      	sub	sp, #28
     b64:	af00      	add	r7, sp, #0
     b66:	60f8      	str	r0, [r7, #12]
     b68:	460b      	mov	r3, r1
     b6a:	607a      	str	r2, [r7, #4]
     b6c:	72fb      	strb	r3, [r7, #11]
     b6e:	68fb      	ldr	r3, [r7, #12]
     b70:	617b      	str	r3, [r7, #20]
     b72:	2300      	movs	r3, #0
     b74:	613b      	str	r3, [r7, #16]
     b76:	2300      	movs	r3, #0
     b78:	613b      	str	r3, [r7, #16]
     b7a:	e007      	b.n	b8c <memset+0x2c>
     b7c:	693b      	ldr	r3, [r7, #16]
     b7e:	3301      	adds	r3, #1
     b80:	613b      	str	r3, [r7, #16]
     b82:	697b      	ldr	r3, [r7, #20]
     b84:	1c5a      	adds	r2, r3, #1
     b86:	617a      	str	r2, [r7, #20]
     b88:	7afa      	ldrb	r2, [r7, #11]
     b8a:	701a      	strb	r2, [r3, #0]
     b8c:	693a      	ldr	r2, [r7, #16]
     b8e:	687b      	ldr	r3, [r7, #4]
     b90:	429a      	cmp	r2, r3
     b92:	d3f3      	bcc.n	b7c <memset+0x1c>
     b94:	2300      	movs	r3, #0
     b96:	4618      	mov	r0, r3
     b98:	371c      	adds	r7, #28
     b9a:	46bd      	mov	sp, r7
     b9c:	f85d 7b04 	ldr.w	r7, [sp], #4
     ba0:	4770      	bx	lr
     ba2:	bf00      	nop

00000ba4 <memcpy>:
     ba4:	b480      	push	{r7}
     ba6:	b089      	sub	sp, #36	; 0x24
     ba8:	af00      	add	r7, sp, #0
     baa:	60f8      	str	r0, [r7, #12]
     bac:	60b9      	str	r1, [r7, #8]
     bae:	607a      	str	r2, [r7, #4]
     bb0:	68fb      	ldr	r3, [r7, #12]
     bb2:	61fb      	str	r3, [r7, #28]
     bb4:	68bb      	ldr	r3, [r7, #8]
     bb6:	61bb      	str	r3, [r7, #24]
     bb8:	2300      	movs	r3, #0
     bba:	617b      	str	r3, [r7, #20]
     bbc:	2300      	movs	r3, #0
     bbe:	617b      	str	r3, [r7, #20]
     bc0:	e00a      	b.n	bd8 <memcpy+0x34>
     bc2:	697b      	ldr	r3, [r7, #20]
     bc4:	3301      	adds	r3, #1
     bc6:	617b      	str	r3, [r7, #20]
     bc8:	69fb      	ldr	r3, [r7, #28]
     bca:	1c5a      	adds	r2, r3, #1
     bcc:	61fa      	str	r2, [r7, #28]
     bce:	69ba      	ldr	r2, [r7, #24]
     bd0:	1c51      	adds	r1, r2, #1
     bd2:	61b9      	str	r1, [r7, #24]
     bd4:	7812      	ldrb	r2, [r2, #0]
     bd6:	701a      	strb	r2, [r3, #0]
     bd8:	697a      	ldr	r2, [r7, #20]
     bda:	687b      	ldr	r3, [r7, #4]
     bdc:	429a      	cmp	r2, r3
     bde:	d3f0      	bcc.n	bc2 <memcpy+0x1e>
     be0:	2300      	movs	r3, #0
     be2:	4618      	mov	r0, r3
     be4:	3724      	adds	r7, #36	; 0x24
     be6:	46bd      	mov	sp, r7
     be8:	f85d 7b04 	ldr.w	r7, [sp], #4
     bec:	4770      	bx	lr
     bee:	bf00      	nop

00000bf0 <memcmp>:
     bf0:	b480      	push	{r7}
     bf2:	b089      	sub	sp, #36	; 0x24
     bf4:	af00      	add	r7, sp, #0
     bf6:	60f8      	str	r0, [r7, #12]
     bf8:	60b9      	str	r1, [r7, #8]
     bfa:	607a      	str	r2, [r7, #4]
     bfc:	68fb      	ldr	r3, [r7, #12]
     bfe:	61fb      	str	r3, [r7, #28]
     c00:	68bb      	ldr	r3, [r7, #8]
     c02:	61bb      	str	r3, [r7, #24]
     c04:	2300      	movs	r3, #0
     c06:	617b      	str	r3, [r7, #20]
     c08:	2300      	movs	r3, #0
     c0a:	617b      	str	r3, [r7, #20]
     c0c:	e00f      	b.n	c2e <memcmp+0x3e>
     c0e:	69fb      	ldr	r3, [r7, #28]
     c10:	781a      	ldrb	r2, [r3, #0]
     c12:	69bb      	ldr	r3, [r7, #24]
     c14:	781b      	ldrb	r3, [r3, #0]
     c16:	429a      	cmp	r2, r3
     c18:	d000      	beq.n	c1c <memcmp+0x2c>
     c1a:	e00c      	b.n	c36 <memcmp+0x46>
     c1c:	697b      	ldr	r3, [r7, #20]
     c1e:	3301      	adds	r3, #1
     c20:	617b      	str	r3, [r7, #20]
     c22:	69fb      	ldr	r3, [r7, #28]
     c24:	3301      	adds	r3, #1
     c26:	61fb      	str	r3, [r7, #28]
     c28:	69bb      	ldr	r3, [r7, #24]
     c2a:	3301      	adds	r3, #1
     c2c:	61bb      	str	r3, [r7, #24]
     c2e:	697a      	ldr	r2, [r7, #20]
     c30:	687b      	ldr	r3, [r7, #4]
     c32:	429a      	cmp	r2, r3
     c34:	d3eb      	bcc.n	c0e <memcmp+0x1e>
     c36:	697a      	ldr	r2, [r7, #20]
     c38:	687b      	ldr	r3, [r7, #4]
     c3a:	429a      	cmp	r2, r3
     c3c:	d201      	bcs.n	c42 <memcmp+0x52>
     c3e:	2301      	movs	r3, #1
     c40:	e000      	b.n	c44 <memcmp+0x54>
     c42:	2300      	movs	r3, #0
     c44:	4618      	mov	r0, r3
     c46:	3724      	adds	r7, #36	; 0x24
     c48:	46bd      	mov	sp, r7
     c4a:	f85d 7b04 	ldr.w	r7, [sp], #4
     c4e:	4770      	bx	lr

00000c50 <strcmp>:
     c50:	b480      	push	{r7}
     c52:	b085      	sub	sp, #20
     c54:	af00      	add	r7, sp, #0
     c56:	6078      	str	r0, [r7, #4]
     c58:	6039      	str	r1, [r7, #0]
     c5a:	687b      	ldr	r3, [r7, #4]
     c5c:	60fb      	str	r3, [r7, #12]
     c5e:	683b      	ldr	r3, [r7, #0]
     c60:	60bb      	str	r3, [r7, #8]
     c62:	e005      	b.n	c70 <strcmp+0x20>
     c64:	68fb      	ldr	r3, [r7, #12]
     c66:	3301      	adds	r3, #1
     c68:	60fb      	str	r3, [r7, #12]
     c6a:	68bb      	ldr	r3, [r7, #8]
     c6c:	3301      	adds	r3, #1
     c6e:	60bb      	str	r3, [r7, #8]
     c70:	68fb      	ldr	r3, [r7, #12]
     c72:	781b      	ldrb	r3, [r3, #0]
     c74:	2b00      	cmp	r3, #0
     c76:	d009      	beq.n	c8c <strcmp+0x3c>
     c78:	68bb      	ldr	r3, [r7, #8]
     c7a:	781b      	ldrb	r3, [r3, #0]
     c7c:	2b00      	cmp	r3, #0
     c7e:	d005      	beq.n	c8c <strcmp+0x3c>
     c80:	68fb      	ldr	r3, [r7, #12]
     c82:	781a      	ldrb	r2, [r3, #0]
     c84:	68bb      	ldr	r3, [r7, #8]
     c86:	781b      	ldrb	r3, [r3, #0]
     c88:	429a      	cmp	r2, r3
     c8a:	d0eb      	beq.n	c64 <strcmp+0x14>
     c8c:	68fb      	ldr	r3, [r7, #12]
     c8e:	781b      	ldrb	r3, [r3, #0]
     c90:	461a      	mov	r2, r3
     c92:	68bb      	ldr	r3, [r7, #8]
     c94:	781b      	ldrb	r3, [r3, #0]
     c96:	1ad3      	subs	r3, r2, r3
     c98:	4618      	mov	r0, r3
     c9a:	3714      	adds	r7, #20
     c9c:	46bd      	mov	sp, r7
     c9e:	f85d 7b04 	ldr.w	r7, [sp], #4
     ca2:	4770      	bx	lr

00000ca4 <strncmp>:
     ca4:	b480      	push	{r7}
     ca6:	b089      	sub	sp, #36	; 0x24
     ca8:	af00      	add	r7, sp, #0
     caa:	60f8      	str	r0, [r7, #12]
     cac:	60b9      	str	r1, [r7, #8]
     cae:	607a      	str	r2, [r7, #4]
     cb0:	68fb      	ldr	r3, [r7, #12]
     cb2:	61fb      	str	r3, [r7, #28]
     cb4:	68bb      	ldr	r3, [r7, #8]
     cb6:	61bb      	str	r3, [r7, #24]
     cb8:	2300      	movs	r3, #0
     cba:	617b      	str	r3, [r7, #20]
     cbc:	e019      	b.n	cf2 <strncmp+0x4e>
     cbe:	69fb      	ldr	r3, [r7, #28]
     cc0:	781a      	ldrb	r2, [r3, #0]
     cc2:	69bb      	ldr	r3, [r7, #24]
     cc4:	781b      	ldrb	r3, [r3, #0]
     cc6:	429a      	cmp	r2, r3
     cc8:	d901      	bls.n	cce <strncmp+0x2a>
     cca:	2301      	movs	r3, #1
     ccc:	e016      	b.n	cfc <strncmp+0x58>
     cce:	69fb      	ldr	r3, [r7, #28]
     cd0:	781a      	ldrb	r2, [r3, #0]
     cd2:	69bb      	ldr	r3, [r7, #24]
     cd4:	781b      	ldrb	r3, [r3, #0]
     cd6:	429a      	cmp	r2, r3
     cd8:	d202      	bcs.n	ce0 <strncmp+0x3c>
     cda:	f04f 33ff 	mov.w	r3, #4294967295	; 0xffffffff
     cde:	e00d      	b.n	cfc <strncmp+0x58>
     ce0:	697b      	ldr	r3, [r7, #20]
     ce2:	3301      	adds	r3, #1
     ce4:	617b      	str	r3, [r7, #20]
     ce6:	69fb      	ldr	r3, [r7, #28]
     ce8:	3301      	adds	r3, #1
     cea:	61fb      	str	r3, [r7, #28]
     cec:	69bb      	ldr	r3, [r7, #24]
     cee:	3301      	adds	r3, #1
     cf0:	61bb      	str	r3, [r7, #24]
     cf2:	697a      	ldr	r2, [r7, #20]
     cf4:	687b      	ldr	r3, [r7, #4]
     cf6:	429a      	cmp	r2, r3
     cf8:	d3e1      	bcc.n	cbe <strncmp+0x1a>
     cfa:	2300      	movs	r3, #0
     cfc:	4618      	mov	r0, r3
     cfe:	3724      	adds	r7, #36	; 0x24
     d00:	46bd      	mov	sp, r7
     d02:	f85d 7b04 	ldr.w	r7, [sp], #4
     d06:	4770      	bx	lr

00000d08 <strtoul>:
     d08:	b580      	push	{r7, lr}
     d0a:	b086      	sub	sp, #24
     d0c:	af00      	add	r7, sp, #0
     d0e:	6078      	str	r0, [r7, #4]
     d10:	6039      	str	r1, [r7, #0]
     d12:	687b      	ldr	r3, [r7, #4]
     d14:	617b      	str	r3, [r7, #20]
     d16:	230a      	movs	r3, #10
     d18:	613b      	str	r3, [r7, #16]
     d1a:	2300      	movs	r3, #0
     d1c:	60fb      	str	r3, [r7, #12]
     d1e:	2300      	movs	r3, #0
     d20:	60bb      	str	r3, [r7, #8]
     d22:	697b      	ldr	r3, [r7, #20]
     d24:	781b      	ldrb	r3, [r3, #0]
     d26:	2b30      	cmp	r3, #48	; 0x30
     d28:	d10e      	bne.n	d48 <strtoul+0x40>
     d2a:	697b      	ldr	r3, [r7, #20]
     d2c:	3301      	adds	r3, #1
     d2e:	781b      	ldrb	r3, [r3, #0]
     d30:	2b78      	cmp	r3, #120	; 0x78
     d32:	d004      	beq.n	d3e <strtoul+0x36>
     d34:	697b      	ldr	r3, [r7, #20]
     d36:	3301      	adds	r3, #1
     d38:	781b      	ldrb	r3, [r3, #0]
     d3a:	2b58      	cmp	r3, #88	; 0x58
     d3c:	d104      	bne.n	d48 <strtoul+0x40>
     d3e:	697b      	ldr	r3, [r7, #20]
     d40:	3302      	adds	r3, #2
     d42:	617b      	str	r3, [r7, #20]
     d44:	2310      	movs	r3, #16
     d46:	613b      	str	r3, [r7, #16]
     d48:	e046      	b.n	dd8 <strtoul+0xd0>
     d4a:	693b      	ldr	r3, [r7, #16]
     d4c:	2b10      	cmp	r3, #16
     d4e:	d12a      	bne.n	da6 <strtoul+0x9e>
     d50:	697b      	ldr	r3, [r7, #20]
     d52:	781b      	ldrb	r3, [r3, #0]
     d54:	4618      	mov	r0, r3
     d56:	f7ff fc33 	bl	5c0 <is_hex_asc>
     d5a:	4603      	mov	r3, r0
     d5c:	2b00      	cmp	r3, #0
     d5e:	d102      	bne.n	d66 <strtoul+0x5e>
     d60:	f04f 33ff 	mov.w	r3, #4294967295	; 0xffffffff
     d64:	e040      	b.n	de8 <strtoul+0xe0>
     d66:	697b      	ldr	r3, [r7, #20]
     d68:	781b      	ldrb	r3, [r3, #0]
     d6a:	2b2f      	cmp	r3, #47	; 0x2f
     d6c:	d908      	bls.n	d80 <strtoul+0x78>
     d6e:	697b      	ldr	r3, [r7, #20]
     d70:	781b      	ldrb	r3, [r3, #0]
     d72:	2b39      	cmp	r3, #57	; 0x39
     d74:	d804      	bhi.n	d80 <strtoul+0x78>
     d76:	697b      	ldr	r3, [r7, #20]
     d78:	781b      	ldrb	r3, [r3, #0]
     d7a:	3b30      	subs	r3, #48	; 0x30
     d7c:	60bb      	str	r3, [r7, #8]
     d7e:	e011      	b.n	da4 <strtoul+0x9c>
     d80:	697b      	ldr	r3, [r7, #20]
     d82:	781b      	ldrb	r3, [r3, #0]
     d84:	2b60      	cmp	r3, #96	; 0x60
     d86:	d908      	bls.n	d9a <strtoul+0x92>
     d88:	697b      	ldr	r3, [r7, #20]
     d8a:	781b      	ldrb	r3, [r3, #0]
     d8c:	2b66      	cmp	r3, #102	; 0x66
     d8e:	d804      	bhi.n	d9a <strtoul+0x92>
     d90:	697b      	ldr	r3, [r7, #20]
     d92:	781b      	ldrb	r3, [r3, #0]
     d94:	3b57      	subs	r3, #87	; 0x57
     d96:	60bb      	str	r3, [r7, #8]
     d98:	e004      	b.n	da4 <strtoul+0x9c>
     d9a:	697b      	ldr	r3, [r7, #20]
     d9c:	781b      	ldrb	r3, [r3, #0]
     d9e:	3b37      	subs	r3, #55	; 0x37
     da0:	60bb      	str	r3, [r7, #8]
     da2:	e00f      	b.n	dc4 <strtoul+0xbc>
     da4:	e00e      	b.n	dc4 <strtoul+0xbc>
     da6:	697b      	ldr	r3, [r7, #20]
     da8:	781b      	ldrb	r3, [r3, #0]
     daa:	4618      	mov	r0, r3
     dac:	f7ff fbce 	bl	54c <is_dec_asc>
     db0:	4603      	mov	r3, r0
     db2:	2b00      	cmp	r3, #0
     db4:	d102      	bne.n	dbc <strtoul+0xb4>
     db6:	f06f 0301 	mvn.w	r3, #1
     dba:	e015      	b.n	de8 <strtoul+0xe0>
     dbc:	697b      	ldr	r3, [r7, #20]
     dbe:	781b      	ldrb	r3, [r3, #0]
     dc0:	3b30      	subs	r3, #48	; 0x30
     dc2:	60bb      	str	r3, [r7, #8]
     dc4:	68fb      	ldr	r3, [r7, #12]
     dc6:	693a      	ldr	r2, [r7, #16]
     dc8:	fb02 f203 	mul.w	r2, r2, r3
     dcc:	68bb      	ldr	r3, [r7, #8]
     dce:	4413      	add	r3, r2
     dd0:	60fb      	str	r3, [r7, #12]
     dd2:	697b      	ldr	r3, [r7, #20]
     dd4:	3301      	adds	r3, #1
     dd6:	617b      	str	r3, [r7, #20]
     dd8:	697b      	ldr	r3, [r7, #20]
     dda:	781b      	ldrb	r3, [r3, #0]
     ddc:	2b00      	cmp	r3, #0
     dde:	d1b4      	bne.n	d4a <strtoul+0x42>
     de0:	683b      	ldr	r3, [r7, #0]
     de2:	68fa      	ldr	r2, [r7, #12]
     de4:	601a      	str	r2, [r3, #0]
     de6:	2300      	movs	r3, #0
     de8:	4618      	mov	r0, r3
     dea:	3718      	adds	r7, #24
     dec:	46bd      	mov	sp, r7
     dee:	bd80      	pop	{r7, pc}

00000df0 <strtol>:
     df0:	b580      	push	{r7, lr}
     df2:	b084      	sub	sp, #16
     df4:	af00      	add	r7, sp, #0
     df6:	6078      	str	r0, [r7, #4]
     df8:	6039      	str	r1, [r7, #0]
     dfa:	687b      	ldr	r3, [r7, #4]
     dfc:	60fb      	str	r3, [r7, #12]
     dfe:	68fb      	ldr	r3, [r7, #12]
     e00:	781b      	ldrb	r3, [r3, #0]
     e02:	2b2d      	cmp	r3, #45	; 0x2d
     e04:	d10e      	bne.n	e24 <strtol+0x34>
     e06:	68fb      	ldr	r3, [r7, #12]
     e08:	3301      	adds	r3, #1
     e0a:	60fb      	str	r3, [r7, #12]
     e0c:	68f8      	ldr	r0, [r7, #12]
     e0e:	6839      	ldr	r1, [r7, #0]
     e10:	f7ff ff7a 	bl	d08 <strtoul>
     e14:	60b8      	str	r0, [r7, #8]
     e16:	683b      	ldr	r3, [r7, #0]
     e18:	681b      	ldr	r3, [r3, #0]
     e1a:	425a      	negs	r2, r3
     e1c:	683b      	ldr	r3, [r7, #0]
     e1e:	601a      	str	r2, [r3, #0]
     e20:	68bb      	ldr	r3, [r7, #8]
     e22:	e004      	b.n	e2e <strtol+0x3e>
     e24:	68f8      	ldr	r0, [r7, #12]
     e26:	6839      	ldr	r1, [r7, #0]
     e28:	f7ff ff6e 	bl	d08 <strtoul>
     e2c:	4603      	mov	r3, r0
     e2e:	4618      	mov	r0, r3
     e30:	3710      	adds	r7, #16
     e32:	46bd      	mov	sp, r7
     e34:	bd80      	pop	{r7, pc}
     e36:	bf00      	nop

00000e38 <strlen>:
     e38:	b480      	push	{r7}
     e3a:	b085      	sub	sp, #20
     e3c:	af00      	add	r7, sp, #0
     e3e:	6078      	str	r0, [r7, #4]
     e40:	687b      	ldr	r3, [r7, #4]
     e42:	60fb      	str	r3, [r7, #12]
     e44:	bf00      	nop
     e46:	68fb      	ldr	r3, [r7, #12]
     e48:	1c5a      	adds	r2, r3, #1
     e4a:	60fa      	str	r2, [r7, #12]
     e4c:	781b      	ldrb	r3, [r3, #0]
     e4e:	2b00      	cmp	r3, #0
     e50:	d1f9      	bne.n	e46 <strlen+0xe>
     e52:	68fa      	ldr	r2, [r7, #12]
     e54:	687b      	ldr	r3, [r7, #4]
     e56:	1ad3      	subs	r3, r2, r3
     e58:	4618      	mov	r0, r3
     e5a:	3714      	adds	r7, #20
     e5c:	46bd      	mov	sp, r7
     e5e:	f85d 7b04 	ldr.w	r7, [sp], #4
     e62:	4770      	bx	lr

00000e64 <strcpy>:
     e64:	b480      	push	{r7}
     e66:	b085      	sub	sp, #20
     e68:	af00      	add	r7, sp, #0
     e6a:	6078      	str	r0, [r7, #4]
     e6c:	6039      	str	r1, [r7, #0]
     e6e:	687b      	ldr	r3, [r7, #4]
     e70:	60fb      	str	r3, [r7, #12]
     e72:	683b      	ldr	r3, [r7, #0]
     e74:	60bb      	str	r3, [r7, #8]
     e76:	e009      	b.n	e8c <strcpy+0x28>
     e78:	68bb      	ldr	r3, [r7, #8]
     e7a:	781a      	ldrb	r2, [r3, #0]
     e7c:	68fb      	ldr	r3, [r7, #12]
     e7e:	701a      	strb	r2, [r3, #0]
     e80:	68fb      	ldr	r3, [r7, #12]
     e82:	3301      	adds	r3, #1
     e84:	60fb      	str	r3, [r7, #12]
     e86:	68bb      	ldr	r3, [r7, #8]
     e88:	3301      	adds	r3, #1
     e8a:	60bb      	str	r3, [r7, #8]
     e8c:	68bb      	ldr	r3, [r7, #8]
     e8e:	781b      	ldrb	r3, [r3, #0]
     e90:	2b00      	cmp	r3, #0
     e92:	d1f1      	bne.n	e78 <strcpy+0x14>
     e94:	68fb      	ldr	r3, [r7, #12]
     e96:	2200      	movs	r2, #0
     e98:	701a      	strb	r2, [r3, #0]
     e9a:	2300      	movs	r3, #0
     e9c:	4618      	mov	r0, r3
     e9e:	3714      	adds	r7, #20
     ea0:	46bd      	mov	sp, r7
     ea2:	f85d 7b04 	ldr.w	r7, [sp], #4
     ea6:	4770      	bx	lr

00000ea8 <reset_handler>:
     ea8:	f04f 0021 	mov.w	r0, #33	; 0x21
     eac:	f3ef 8014 	mrs	r0, CONTROL
     eb0:	f04f 0102 	mov.w	r1, #2
     eb4:	ea40 0001 	orr.w	r0, r0, r1
     eb8:	f380 8814 	msr	CONTROL, r0
     ebc:	4817      	ldr	r0, [pc, #92]	; (f1c <enable_irq+0x6>)
     ebe:	4685      	mov	sp, r0
     ec0:	4817      	ldr	r0, [pc, #92]	; (f20 <enable_irq+0xa>)
     ec2:	4780      	blx	r0
     ec4:	e7fe      	b.n	ec4 <reset_handler+0x1c>

00000ec6 <get_psp>:
     ec6:	f3ef 8009 	mrs	r0, PSP
     eca:	47f0      	blx	lr

00000ecc <set_psp>:
     ecc:	f380 8809 	msr	PSP, r0
     ed0:	47f0      	blx	lr

00000ed2 <get_msp>:
     ed2:	f3ef 8008 	mrs	r0, MSP
     ed6:	47f0      	blx	lr

00000ed8 <get_control_reg>:
     ed8:	f3ef 8014 	mrs	r0, CONTROL
     edc:	47f0      	blx	lr

00000ede <pendsv_handler>:
     ede:	f3ef 8009 	mrs	r0, PSP
     ee2:	b120      	cbz	r0, eee <pendsv_handler_nosave>
     ee4:	e920 0ff0 	stmdb	r0!, {r4, r5, r6, r7, r8, r9, sl, fp}
     ee8:	490e      	ldr	r1, [pc, #56]	; (f24 <enable_irq+0xe>)
     eea:	6809      	ldr	r1, [r1, #0]
     eec:	6008      	str	r0, [r1, #0]

00000eee <pendsv_handler_nosave>:
     eee:	480d      	ldr	r0, [pc, #52]	; (f24 <enable_irq+0xe>)
     ef0:	490d      	ldr	r1, [pc, #52]	; (f28 <enable_irq+0x12>)
     ef2:	680a      	ldr	r2, [r1, #0]
     ef4:	6002      	str	r2, [r0, #0]
     ef6:	6810      	ldr	r0, [r2, #0]
     ef8:	e8b0 0ff0 	ldmia.w	r0!, {r4, r5, r6, r7, r8, r9, sl, fp}
     efc:	f380 8809 	msr	PSP, r0
     f00:	f04e 0e04 	orr.w	lr, lr, #4
     f04:	4770      	bx	lr

00000f06 <get_primask>:
     f06:	f3ef 8010 	mrs	r0, PRIMASK
     f0a:	47f0      	blx	lr

00000f0c <set_primask>:
     f0c:	f380 8810 	msr	PRIMASK, r0
     f10:	47f0      	blx	lr

00000f12 <disable_irq>:
     f12:	b672      	cpsid	i
     f14:	47f0      	blx	lr

00000f16 <enable_irq>:
     f16:	b662      	cpsie	i
     f18:	47f0      	blx	lr
     f1a:	80000000 	andhi	r0, r0, r0
     f1e:	03ed2000 	mvneq	r2, #0
     f22:	59540000 	ldmdbpl	r4, {}^	; <UNPREDICTABLE>
     f26:	59502000 	ldmdbpl	r0, {sp}^
     f2a:	b4802000 	strlt	r2, [r0], #0

00000f2c <idle_task_entry>:
     f2c:	b480      	push	{r7}
     f2e:	b083      	sub	sp, #12
     f30:	af00      	add	r7, sp, #0
     f32:	6078      	str	r0, [r7, #4]
     f34:	e7fe      	b.n	f34 <idle_task_entry+0x8>
     f36:	bf00      	nop

00000f38 <task_init>:
     f38:	b580      	push	{r7, lr}
     f3a:	b084      	sub	sp, #16
     f3c:	af00      	add	r7, sp, #0
     f3e:	60f8      	str	r0, [r7, #12]
     f40:	60b9      	str	r1, [r7, #8]
     f42:	607a      	str	r2, [r7, #4]
     f44:	603b      	str	r3, [r7, #0]
     f46:	4854      	ldr	r0, [pc, #336]	; (1098 <task_init+0x160>)
     f48:	4954      	ldr	r1, [pc, #336]	; (109c <task_init+0x164>)
     f4a:	f7ff fd47 	bl	9dc <printk>
     f4e:	69bb      	ldr	r3, [r7, #24]
     f50:	3b04      	subs	r3, #4
     f52:	61bb      	str	r3, [r7, #24]
     f54:	69bb      	ldr	r3, [r7, #24]
     f56:	f04f 7280 	mov.w	r2, #16777216	; 0x1000000
     f5a:	601a      	str	r2, [r3, #0]
     f5c:	69bb      	ldr	r3, [r7, #24]
     f5e:	3b04      	subs	r3, #4
     f60:	61bb      	str	r3, [r7, #24]
     f62:	68ba      	ldr	r2, [r7, #8]
     f64:	69bb      	ldr	r3, [r7, #24]
     f66:	601a      	str	r2, [r3, #0]
     f68:	69bb      	ldr	r3, [r7, #24]
     f6a:	3b04      	subs	r3, #4
     f6c:	61bb      	str	r3, [r7, #24]
     f6e:	69bb      	ldr	r3, [r7, #24]
     f70:	220e      	movs	r2, #14
     f72:	601a      	str	r2, [r3, #0]
     f74:	69bb      	ldr	r3, [r7, #24]
     f76:	3b04      	subs	r3, #4
     f78:	61bb      	str	r3, [r7, #24]
     f7a:	69bb      	ldr	r3, [r7, #24]
     f7c:	220c      	movs	r2, #12
     f7e:	601a      	str	r2, [r3, #0]
     f80:	69bb      	ldr	r3, [r7, #24]
     f82:	3b04      	subs	r3, #4
     f84:	61bb      	str	r3, [r7, #24]
     f86:	69bb      	ldr	r3, [r7, #24]
     f88:	2203      	movs	r2, #3
     f8a:	601a      	str	r2, [r3, #0]
     f8c:	69bb      	ldr	r3, [r7, #24]
     f8e:	3b04      	subs	r3, #4
     f90:	61bb      	str	r3, [r7, #24]
     f92:	69bb      	ldr	r3, [r7, #24]
     f94:	2202      	movs	r2, #2
     f96:	601a      	str	r2, [r3, #0]
     f98:	69bb      	ldr	r3, [r7, #24]
     f9a:	3b04      	subs	r3, #4
     f9c:	61bb      	str	r3, [r7, #24]
     f9e:	69bb      	ldr	r3, [r7, #24]
     fa0:	2201      	movs	r2, #1
     fa2:	601a      	str	r2, [r3, #0]
     fa4:	69bb      	ldr	r3, [r7, #24]
     fa6:	3b04      	subs	r3, #4
     fa8:	61bb      	str	r3, [r7, #24]
     faa:	687a      	ldr	r2, [r7, #4]
     fac:	69bb      	ldr	r3, [r7, #24]
     fae:	601a      	str	r2, [r3, #0]
     fb0:	69bb      	ldr	r3, [r7, #24]
     fb2:	3b04      	subs	r3, #4
     fb4:	61bb      	str	r3, [r7, #24]
     fb6:	69bb      	ldr	r3, [r7, #24]
     fb8:	220b      	movs	r2, #11
     fba:	601a      	str	r2, [r3, #0]
     fbc:	69bb      	ldr	r3, [r7, #24]
     fbe:	3b04      	subs	r3, #4
     fc0:	61bb      	str	r3, [r7, #24]
     fc2:	69bb      	ldr	r3, [r7, #24]
     fc4:	220a      	movs	r2, #10
     fc6:	601a      	str	r2, [r3, #0]
     fc8:	69bb      	ldr	r3, [r7, #24]
     fca:	3b04      	subs	r3, #4
     fcc:	61bb      	str	r3, [r7, #24]
     fce:	69bb      	ldr	r3, [r7, #24]
     fd0:	2209      	movs	r2, #9
     fd2:	601a      	str	r2, [r3, #0]
     fd4:	69bb      	ldr	r3, [r7, #24]
     fd6:	3b04      	subs	r3, #4
     fd8:	61bb      	str	r3, [r7, #24]
     fda:	69bb      	ldr	r3, [r7, #24]
     fdc:	2208      	movs	r2, #8
     fde:	601a      	str	r2, [r3, #0]
     fe0:	69bb      	ldr	r3, [r7, #24]
     fe2:	3b04      	subs	r3, #4
     fe4:	61bb      	str	r3, [r7, #24]
     fe6:	69bb      	ldr	r3, [r7, #24]
     fe8:	2207      	movs	r2, #7
     fea:	601a      	str	r2, [r3, #0]
     fec:	69bb      	ldr	r3, [r7, #24]
     fee:	3b04      	subs	r3, #4
     ff0:	61bb      	str	r3, [r7, #24]
     ff2:	69bb      	ldr	r3, [r7, #24]
     ff4:	2206      	movs	r2, #6
     ff6:	601a      	str	r2, [r3, #0]
     ff8:	69bb      	ldr	r3, [r7, #24]
     ffa:	3b04      	subs	r3, #4
     ffc:	61bb      	str	r3, [r7, #24]
     ffe:	69bb      	ldr	r3, [r7, #24]
    1000:	2205      	movs	r2, #5
    1002:	601a      	str	r2, [r3, #0]
    1004:	69bb      	ldr	r3, [r7, #24]
    1006:	3b04      	subs	r3, #4
    1008:	61bb      	str	r3, [r7, #24]
    100a:	69bb      	ldr	r3, [r7, #24]
    100c:	2204      	movs	r2, #4
    100e:	601a      	str	r2, [r3, #0]
    1010:	68fb      	ldr	r3, [r7, #12]
    1012:	69ba      	ldr	r2, [r7, #24]
    1014:	601a      	str	r2, [r3, #0]
    1016:	68fb      	ldr	r3, [r7, #12]
    1018:	2200      	movs	r2, #0
    101a:	605a      	str	r2, [r3, #4]
    101c:	68fb      	ldr	r3, [r7, #12]
    101e:	2200      	movs	r2, #0
    1020:	615a      	str	r2, [r3, #20]
    1022:	68fb      	ldr	r3, [r7, #12]
    1024:	330c      	adds	r3, #12
    1026:	4618      	mov	r0, r3
    1028:	f000 fc4e 	bl	18c8 <list_node_init>
    102c:	68fb      	ldr	r3, [r7, #12]
    102e:	683a      	ldr	r2, [r7, #0]
    1030:	609a      	str	r2, [r3, #8]
    1032:	68fb      	ldr	r3, [r7, #12]
    1034:	220a      	movs	r2, #10
    1036:	621a      	str	r2, [r3, #32]
    1038:	68fb      	ldr	r3, [r7, #12]
    103a:	3318      	adds	r3, #24
    103c:	4618      	mov	r0, r3
    103e:	f000 fc43 	bl	18c8 <list_node_init>
    1042:	683a      	ldr	r2, [r7, #0]
    1044:	4613      	mov	r3, r2
    1046:	005b      	lsls	r3, r3, #1
    1048:	4413      	add	r3, r2
    104a:	009b      	lsls	r3, r3, #2
    104c:	4a14      	ldr	r2, [pc, #80]	; (10a0 <task_init+0x168>)
    104e:	441a      	add	r2, r3
    1050:	68fb      	ldr	r3, [r7, #12]
    1052:	3318      	adds	r3, #24
    1054:	4610      	mov	r0, r2
    1056:	4619      	mov	r1, r3
    1058:	f000 fd24 	bl	1aa4 <list_append_last>
    105c:	4811      	ldr	r0, [pc, #68]	; (10a4 <task_init+0x16c>)
    105e:	6839      	ldr	r1, [r7, #0]
    1060:	f000 fbc2 	bl	17e8 <bitmap_set>
    1064:	68fb      	ldr	r3, [r7, #12]
    1066:	2200      	movs	r2, #0
    1068:	625a      	str	r2, [r3, #36]	; 0x24
    106a:	68fb      	ldr	r3, [r7, #12]
    106c:	2200      	movs	r2, #0
    106e:	629a      	str	r2, [r3, #40]	; 0x28
    1070:	68fb      	ldr	r3, [r7, #12]
    1072:	2200      	movs	r2, #0
    1074:	62da      	str	r2, [r3, #44]	; 0x2c
    1076:	68fb      	ldr	r3, [r7, #12]
    1078:	2200      	movs	r2, #0
    107a:	f883 2030 	strb.w	r2, [r3, #48]	; 0x30
    107e:	68fb      	ldr	r3, [r7, #12]
    1080:	2200      	movs	r2, #0
    1082:	635a      	str	r2, [r3, #52]	; 0x34
    1084:	68fb      	ldr	r3, [r7, #12]
    1086:	2200      	movs	r2, #0
    1088:	639a      	str	r2, [r3, #56]	; 0x38
    108a:	68fb      	ldr	r3, [r7, #12]
    108c:	2200      	movs	r2, #0
    108e:	63da      	str	r2, [r3, #60]	; 0x3c
    1090:	3710      	adds	r7, #16
    1092:	46bd      	mov	sp, r7
    1094:	bd80      	pop	{r7, pc}
    1096:	bf00      	nop
    1098:	00002570 	andeq	r2, r0, r0, ror r5
    109c:	000025b8 			; <UNDEFINED> instruction: 0x000025b8
    10a0:	20005958 	andcs	r5, r0, r8, asr r9
    10a4:	20001048 	andcs	r1, r0, r8, asr #32

000010a8 <task_sched>:
    10a8:	b580      	push	{r7, lr}
    10aa:	b082      	sub	sp, #8
    10ac:	af00      	add	r7, sp, #0
    10ae:	f000 f92b 	bl	1308 <task_enter_critical>
    10b2:	6078      	str	r0, [r7, #4]
    10b4:	4b0c      	ldr	r3, [pc, #48]	; (10e8 <task_sched+0x40>)
    10b6:	781b      	ldrb	r3, [r3, #0]
    10b8:	2b00      	cmp	r3, #0
    10ba:	d000      	beq.n	10be <task_sched+0x16>
    10bc:	e00c      	b.n	10d8 <task_sched+0x30>
    10be:	f000 f973 	bl	13a8 <task_highest_ready>
    10c2:	6038      	str	r0, [r7, #0]
    10c4:	4b09      	ldr	r3, [pc, #36]	; (10ec <task_sched+0x44>)
    10c6:	681b      	ldr	r3, [r3, #0]
    10c8:	683a      	ldr	r2, [r7, #0]
    10ca:	429a      	cmp	r2, r3
    10cc:	d004      	beq.n	10d8 <task_sched+0x30>
    10ce:	4a08      	ldr	r2, [pc, #32]	; (10f0 <task_sched+0x48>)
    10d0:	683b      	ldr	r3, [r7, #0]
    10d2:	6013      	str	r3, [r2, #0]
    10d4:	f000 f80e 	bl	10f4 <task_switch>
    10d8:	6878      	ldr	r0, [r7, #4]
    10da:	f000 f923 	bl	1324 <task_exit_critical>
    10de:	bf00      	nop
    10e0:	3708      	adds	r7, #8
    10e2:	46bd      	mov	sp, r7
    10e4:	bd80      	pop	{r7, pc}
    10e6:	bf00      	nop
    10e8:	20001044 	andcs	r1, r0, r4, asr #32
    10ec:	20005954 	andcs	r5, r0, r4, asr r9
    10f0:	20005950 	andcs	r5, r0, r0, asr r9

000010f4 <task_switch>:
    10f4:	b480      	push	{r7}
    10f6:	af00      	add	r7, sp, #0
    10f8:	4b03      	ldr	r3, [pc, #12]	; (1108 <task_switch+0x14>)
    10fa:	f04f 5280 	mov.w	r2, #268435456	; 0x10000000
    10fe:	601a      	str	r2, [r3, #0]
    1100:	46bd      	mov	sp, r7
    1102:	f85d 7b04 	ldr.w	r7, [sp], #4
    1106:	4770      	bx	lr
    1108:	e000ed04 	and	lr, r0, r4, lsl #26

0000110c <task_run_first>:
    110c:	b580      	push	{r7, lr}
    110e:	af00      	add	r7, sp, #0
    1110:	4807      	ldr	r0, [pc, #28]	; (1130 <task_run_first+0x24>)
    1112:	4908      	ldr	r1, [pc, #32]	; (1134 <task_run_first+0x28>)
    1114:	f7ff fc62 	bl	9dc <printk>
    1118:	2000      	movs	r0, #0
    111a:	f7ff fed7 	bl	ecc <set_psp>
    111e:	4b06      	ldr	r3, [pc, #24]	; (1138 <task_run_first+0x2c>)
    1120:	22ff      	movs	r2, #255	; 0xff
    1122:	701a      	strb	r2, [r3, #0]
    1124:	4b05      	ldr	r3, [pc, #20]	; (113c <task_run_first+0x30>)
    1126:	f04f 5280 	mov.w	r2, #268435456	; 0x10000000
    112a:	601a      	str	r2, [r3, #0]
    112c:	bd80      	pop	{r7, pc}
    112e:	bf00      	nop
    1130:	00002570 	andeq	r2, r0, r0, ror r5
    1134:	000025c4 	andeq	r2, r0, r4, asr #11
    1138:	e000ed22 	and	lr, r0, r2, lsr #26
    113c:	e000ed04 	and	lr, r0, r4, lsl #26

00001140 <task_delay>:
    1140:	b580      	push	{r7, lr}
    1142:	b084      	sub	sp, #16
    1144:	af00      	add	r7, sp, #0
    1146:	6078      	str	r0, [r7, #4]
    1148:	f000 f8de 	bl	1308 <task_enter_critical>
    114c:	60f8      	str	r0, [r7, #12]
    114e:	4b09      	ldr	r3, [pc, #36]	; (1174 <task_delay+0x34>)
    1150:	681b      	ldr	r3, [r3, #0]
    1152:	4618      	mov	r0, r3
    1154:	6879      	ldr	r1, [r7, #4]
    1156:	f000 f991 	bl	147c <task_delay_wait>
    115a:	4b06      	ldr	r3, [pc, #24]	; (1174 <task_delay+0x34>)
    115c:	681b      	ldr	r3, [r3, #0]
    115e:	4618      	mov	r0, r3
    1160:	f000 f95e 	bl	1420 <task_unready>
    1164:	68f8      	ldr	r0, [r7, #12]
    1166:	f000 f8dd 	bl	1324 <task_exit_critical>
    116a:	f7ff ff9d 	bl	10a8 <task_sched>
    116e:	3710      	adds	r7, #16
    1170:	46bd      	mov	sp, r7
    1172:	bd80      	pop	{r7, pc}
    1174:	20005954 	andcs	r5, r0, r4, asr r9

00001178 <task_delay_s>:
    1178:	b580      	push	{r7, lr}
    117a:	b082      	sub	sp, #8
    117c:	af00      	add	r7, sp, #0
    117e:	6078      	str	r0, [r7, #4]
    1180:	687b      	ldr	r3, [r7, #4]
    1182:	2264      	movs	r2, #100	; 0x64
    1184:	fb02 f303 	mul.w	r3, r2, r3
    1188:	4618      	mov	r0, r3
    118a:	f7ff ffd9 	bl	1140 <task_delay>
    118e:	3708      	adds	r7, #8
    1190:	46bd      	mov	sp, r7
    1192:	bd80      	pop	{r7, pc}

00001194 <task_system_tick_handler>:
    1194:	b580      	push	{r7, lr}
    1196:	b084      	sub	sp, #16
    1198:	af00      	add	r7, sp, #0
    119a:	f000 f8b5 	bl	1308 <task_enter_critical>
    119e:	60b8      	str	r0, [r7, #8]
    11a0:	4b36      	ldr	r3, [pc, #216]	; (127c <task_system_tick_handler+0xe8>)
    11a2:	607b      	str	r3, [r7, #4]
    11a4:	687b      	ldr	r3, [r7, #4]
    11a6:	685b      	ldr	r3, [r3, #4]
    11a8:	60fb      	str	r3, [r7, #12]
    11aa:	2300      	movs	r3, #0
    11ac:	603b      	str	r3, [r7, #0]
    11ae:	e01d      	b.n	11ec <task_system_tick_handler+0x58>
    11b0:	68fb      	ldr	r3, [r7, #12]
    11b2:	3b0c      	subs	r3, #12
    11b4:	603b      	str	r3, [r7, #0]
    11b6:	68fb      	ldr	r3, [r7, #12]
    11b8:	685b      	ldr	r3, [r3, #4]
    11ba:	60fb      	str	r3, [r7, #12]
    11bc:	683b      	ldr	r3, [r7, #0]
    11be:	685b      	ldr	r3, [r3, #4]
    11c0:	1e5a      	subs	r2, r3, #1
    11c2:	683b      	ldr	r3, [r7, #0]
    11c4:	605a      	str	r2, [r3, #4]
    11c6:	683b      	ldr	r3, [r7, #0]
    11c8:	685b      	ldr	r3, [r3, #4]
    11ca:	2b00      	cmp	r3, #0
    11cc:	d10e      	bne.n	11ec <task_system_tick_handler+0x58>
    11ce:	683b      	ldr	r3, [r7, #0]
    11d0:	6b5b      	ldr	r3, [r3, #52]	; 0x34
    11d2:	2b00      	cmp	r3, #0
    11d4:	d004      	beq.n	11e0 <task_system_tick_handler+0x4c>
    11d6:	6838      	ldr	r0, [r7, #0]
    11d8:	2100      	movs	r1, #0
    11da:	2201      	movs	r2, #1
    11dc:	f000 fd68 	bl	1cb0 <event_remove_task>
    11e0:	6838      	ldr	r0, [r7, #0]
    11e2:	f000 f965 	bl	14b0 <task_delay_wakeup>
    11e6:	6838      	ldr	r0, [r7, #0]
    11e8:	f000 f8fa 	bl	13e0 <task_ready>
    11ec:	68fa      	ldr	r2, [r7, #12]
    11ee:	687b      	ldr	r3, [r7, #4]
    11f0:	429a      	cmp	r2, r3
    11f2:	d1dd      	bne.n	11b0 <task_system_tick_handler+0x1c>
    11f4:	4b22      	ldr	r3, [pc, #136]	; (1280 <task_system_tick_handler+0xec>)
    11f6:	681b      	ldr	r3, [r3, #0]
    11f8:	6a1a      	ldr	r2, [r3, #32]
    11fa:	3a01      	subs	r2, #1
    11fc:	621a      	str	r2, [r3, #32]
    11fe:	6a1b      	ldr	r3, [r3, #32]
    1200:	2b00      	cmp	r3, #0
    1202:	d132      	bne.n	126a <task_system_tick_handler+0xd6>
    1204:	4b1e      	ldr	r3, [pc, #120]	; (1280 <task_system_tick_handler+0xec>)
    1206:	681b      	ldr	r3, [r3, #0]
    1208:	689a      	ldr	r2, [r3, #8]
    120a:	4613      	mov	r3, r2
    120c:	005b      	lsls	r3, r3, #1
    120e:	4413      	add	r3, r2
    1210:	009b      	lsls	r3, r3, #2
    1212:	4a1c      	ldr	r2, [pc, #112]	; (1284 <task_system_tick_handler+0xf0>)
    1214:	4413      	add	r3, r2
    1216:	4618      	mov	r0, r3
    1218:	f000 fb7a 	bl	1910 <list_count>
    121c:	4603      	mov	r3, r0
    121e:	2b00      	cmp	r3, #0
    1220:	d023      	beq.n	126a <task_system_tick_handler+0xd6>
    1222:	4b17      	ldr	r3, [pc, #92]	; (1280 <task_system_tick_handler+0xec>)
    1224:	681b      	ldr	r3, [r3, #0]
    1226:	689a      	ldr	r2, [r3, #8]
    1228:	4613      	mov	r3, r2
    122a:	005b      	lsls	r3, r3, #1
    122c:	4413      	add	r3, r2
    122e:	009b      	lsls	r3, r3, #2
    1230:	4a14      	ldr	r2, [pc, #80]	; (1284 <task_system_tick_handler+0xf0>)
    1232:	441a      	add	r2, r3
    1234:	4b12      	ldr	r3, [pc, #72]	; (1280 <task_system_tick_handler+0xec>)
    1236:	681b      	ldr	r3, [r3, #0]
    1238:	3318      	adds	r3, #24
    123a:	4610      	mov	r0, r2
    123c:	4619      	mov	r1, r3
    123e:	f000 fc91 	bl	1b64 <list_remove>
    1242:	4b0f      	ldr	r3, [pc, #60]	; (1280 <task_system_tick_handler+0xec>)
    1244:	681b      	ldr	r3, [r3, #0]
    1246:	689a      	ldr	r2, [r3, #8]
    1248:	4613      	mov	r3, r2
    124a:	005b      	lsls	r3, r3, #1
    124c:	4413      	add	r3, r2
    124e:	009b      	lsls	r3, r3, #2
    1250:	4a0c      	ldr	r2, [pc, #48]	; (1284 <task_system_tick_handler+0xf0>)
    1252:	441a      	add	r2, r3
    1254:	4b0a      	ldr	r3, [pc, #40]	; (1280 <task_system_tick_handler+0xec>)
    1256:	681b      	ldr	r3, [r3, #0]
    1258:	3318      	adds	r3, #24
    125a:	4610      	mov	r0, r2
    125c:	4619      	mov	r1, r3
    125e:	f000 fc21 	bl	1aa4 <list_append_last>
    1262:	4b07      	ldr	r3, [pc, #28]	; (1280 <task_system_tick_handler+0xec>)
    1264:	681b      	ldr	r3, [r3, #0]
    1266:	220a      	movs	r2, #10
    1268:	621a      	str	r2, [r3, #32]
    126a:	68b8      	ldr	r0, [r7, #8]
    126c:	f000 f85a 	bl	1324 <task_exit_critical>
    1270:	f7ff ff1a 	bl	10a8 <task_sched>
    1274:	3710      	adds	r7, #16
    1276:	46bd      	mov	sp, r7
    1278:	bd80      	pop	{r7, pc}
    127a:	bf00      	nop
    127c:	2000104c 	andcs	r1, r0, ip, asr #32
    1280:	20005954 	andcs	r5, r0, r4, asr r9
    1284:	20005958 	andcs	r5, r0, r8, asr r9

00001288 <init_task_module>:
    1288:	b580      	push	{r7, lr}
    128a:	b084      	sub	sp, #16
    128c:	af02      	add	r7, sp, #8
    128e:	4b16      	ldr	r3, [pc, #88]	; (12e8 <init_task_module+0x60>)
    1290:	2200      	movs	r2, #0
    1292:	701a      	strb	r2, [r3, #0]
    1294:	2300      	movs	r3, #0
    1296:	607b      	str	r3, [r7, #4]
    1298:	4814      	ldr	r0, [pc, #80]	; (12ec <init_task_module+0x64>)
    129a:	f000 fa91 	bl	17c0 <bitmap_init>
    129e:	4814      	ldr	r0, [pc, #80]	; (12f0 <init_task_module+0x68>)
    12a0:	f000 fb24 	bl	18ec <list_init>
    12a4:	2300      	movs	r3, #0
    12a6:	607b      	str	r3, [r7, #4]
    12a8:	e00c      	b.n	12c4 <init_task_module+0x3c>
    12aa:	687a      	ldr	r2, [r7, #4]
    12ac:	4613      	mov	r3, r2
    12ae:	005b      	lsls	r3, r3, #1
    12b0:	4413      	add	r3, r2
    12b2:	009b      	lsls	r3, r3, #2
    12b4:	4a0f      	ldr	r2, [pc, #60]	; (12f4 <init_task_module+0x6c>)
    12b6:	4413      	add	r3, r2
    12b8:	4618      	mov	r0, r3
    12ba:	f000 fb17 	bl	18ec <list_init>
    12be:	687b      	ldr	r3, [r7, #4]
    12c0:	3301      	adds	r3, #1
    12c2:	607b      	str	r3, [r7, #4]
    12c4:	687b      	ldr	r3, [r7, #4]
    12c6:	2b1f      	cmp	r3, #31
    12c8:	d9ef      	bls.n	12aa <init_task_module+0x22>
    12ca:	4b0b      	ldr	r3, [pc, #44]	; (12f8 <init_task_module+0x70>)
    12cc:	9300      	str	r3, [sp, #0]
    12ce:	480b      	ldr	r0, [pc, #44]	; (12fc <init_task_module+0x74>)
    12d0:	490b      	ldr	r1, [pc, #44]	; (1300 <init_task_module+0x78>)
    12d2:	2200      	movs	r2, #0
    12d4:	231f      	movs	r3, #31
    12d6:	f7ff fe2f 	bl	f38 <task_init>
    12da:	4b0a      	ldr	r3, [pc, #40]	; (1304 <init_task_module+0x7c>)
    12dc:	4a07      	ldr	r2, [pc, #28]	; (12fc <init_task_module+0x74>)
    12de:	601a      	str	r2, [r3, #0]
    12e0:	3708      	adds	r7, #8
    12e2:	46bd      	mov	sp, r7
    12e4:	bd80      	pop	{r7, pc}
    12e6:	bf00      	nop
    12e8:	20001044 	andcs	r1, r0, r4, asr #32
    12ec:	20001048 	andcs	r1, r0, r8, asr #32
    12f0:	2000104c 	andcs	r1, r0, ip, asr #32
    12f4:	20005958 	andcs	r5, r0, r8, asr r9
    12f8:	20001044 	andcs	r1, r0, r4, asr #32
    12fc:	20000000 	andcs	r0, r0, r0
    1300:	00000f2d 	andeq	r0, r0, sp, lsr #30
    1304:	20000040 	andcs	r0, r0, r0, asr #32

00001308 <task_enter_critical>:
    1308:	b580      	push	{r7, lr}
    130a:	b082      	sub	sp, #8
    130c:	af00      	add	r7, sp, #0
    130e:	f7ff fdfa 	bl	f06 <get_primask>
    1312:	6078      	str	r0, [r7, #4]
    1314:	f7ff fdfd 	bl	f12 <disable_irq>
    1318:	687b      	ldr	r3, [r7, #4]
    131a:	4618      	mov	r0, r3
    131c:	3708      	adds	r7, #8
    131e:	46bd      	mov	sp, r7
    1320:	bd80      	pop	{r7, pc}
    1322:	bf00      	nop

00001324 <task_exit_critical>:
    1324:	b580      	push	{r7, lr}
    1326:	b082      	sub	sp, #8
    1328:	af00      	add	r7, sp, #0
    132a:	6078      	str	r0, [r7, #4]
    132c:	6878      	ldr	r0, [r7, #4]
    132e:	f7ff fded 	bl	f0c <set_primask>
    1332:	f7ff fdf0 	bl	f16 <enable_irq>
    1336:	3708      	adds	r7, #8
    1338:	46bd      	mov	sp, r7
    133a:	bd80      	pop	{r7, pc}

0000133c <task_sched_disable>:
    133c:	b580      	push	{r7, lr}
    133e:	b082      	sub	sp, #8
    1340:	af00      	add	r7, sp, #0
    1342:	f7ff ffe1 	bl	1308 <task_enter_critical>
    1346:	6078      	str	r0, [r7, #4]
    1348:	4b07      	ldr	r3, [pc, #28]	; (1368 <task_sched_disable+0x2c>)
    134a:	781b      	ldrb	r3, [r3, #0]
    134c:	2bff      	cmp	r3, #255	; 0xff
    134e:	d005      	beq.n	135c <task_sched_disable+0x20>
    1350:	4b05      	ldr	r3, [pc, #20]	; (1368 <task_sched_disable+0x2c>)
    1352:	781b      	ldrb	r3, [r3, #0]
    1354:	3301      	adds	r3, #1
    1356:	b2da      	uxtb	r2, r3
    1358:	4b03      	ldr	r3, [pc, #12]	; (1368 <task_sched_disable+0x2c>)
    135a:	701a      	strb	r2, [r3, #0]
    135c:	6878      	ldr	r0, [r7, #4]
    135e:	f7ff ffe1 	bl	1324 <task_exit_critical>
    1362:	3708      	adds	r7, #8
    1364:	46bd      	mov	sp, r7
    1366:	bd80      	pop	{r7, pc}
    1368:	20001044 	andcs	r1, r0, r4, asr #32

0000136c <task_sched_enable>:
    136c:	b580      	push	{r7, lr}
    136e:	b082      	sub	sp, #8
    1370:	af00      	add	r7, sp, #0
    1372:	f7ff ffc9 	bl	1308 <task_enter_critical>
    1376:	6078      	str	r0, [r7, #4]
    1378:	4b0a      	ldr	r3, [pc, #40]	; (13a4 <task_sched_enable+0x38>)
    137a:	781b      	ldrb	r3, [r3, #0]
    137c:	2b00      	cmp	r3, #0
    137e:	d00b      	beq.n	1398 <task_sched_enable+0x2c>
    1380:	4b08      	ldr	r3, [pc, #32]	; (13a4 <task_sched_enable+0x38>)
    1382:	781b      	ldrb	r3, [r3, #0]
    1384:	3b01      	subs	r3, #1
    1386:	b2da      	uxtb	r2, r3
    1388:	4b06      	ldr	r3, [pc, #24]	; (13a4 <task_sched_enable+0x38>)
    138a:	701a      	strb	r2, [r3, #0]
    138c:	4b05      	ldr	r3, [pc, #20]	; (13a4 <task_sched_enable+0x38>)
    138e:	781b      	ldrb	r3, [r3, #0]
    1390:	2b00      	cmp	r3, #0
    1392:	d101      	bne.n	1398 <task_sched_enable+0x2c>
    1394:	f7ff fe88 	bl	10a8 <task_sched>
    1398:	6878      	ldr	r0, [r7, #4]
    139a:	f7ff ffc3 	bl	1324 <task_exit_critical>
    139e:	3708      	adds	r7, #8
    13a0:	46bd      	mov	sp, r7
    13a2:	bd80      	pop	{r7, pc}
    13a4:	20001044 	andcs	r1, r0, r4, asr #32

000013a8 <task_highest_ready>:
    13a8:	b580      	push	{r7, lr}
    13aa:	b082      	sub	sp, #8
    13ac:	af00      	add	r7, sp, #0
    13ae:	480a      	ldr	r0, [pc, #40]	; (13d8 <task_highest_ready+0x30>)
    13b0:	f000 fa42 	bl	1838 <bitmap_get_first_set>
    13b4:	6078      	str	r0, [r7, #4]
    13b6:	687a      	ldr	r2, [r7, #4]
    13b8:	4613      	mov	r3, r2
    13ba:	005b      	lsls	r3, r3, #1
    13bc:	4413      	add	r3, r2
    13be:	009b      	lsls	r3, r3, #2
    13c0:	4a06      	ldr	r2, [pc, #24]	; (13dc <task_highest_ready+0x34>)
    13c2:	4413      	add	r3, r2
    13c4:	4618      	mov	r0, r3
    13c6:	f000 fab7 	bl	1938 <list_head>
    13ca:	6038      	str	r0, [r7, #0]
    13cc:	683b      	ldr	r3, [r7, #0]
    13ce:	3b18      	subs	r3, #24
    13d0:	4618      	mov	r0, r3
    13d2:	3708      	adds	r7, #8
    13d4:	46bd      	mov	sp, r7
    13d6:	bd80      	pop	{r7, pc}
    13d8:	20001048 	andcs	r1, r0, r8, asr #32
    13dc:	20005958 	andcs	r5, r0, r8, asr r9

000013e0 <task_ready>:
    13e0:	b580      	push	{r7, lr}
    13e2:	b082      	sub	sp, #8
    13e4:	af00      	add	r7, sp, #0
    13e6:	6078      	str	r0, [r7, #4]
    13e8:	687b      	ldr	r3, [r7, #4]
    13ea:	689a      	ldr	r2, [r3, #8]
    13ec:	4613      	mov	r3, r2
    13ee:	005b      	lsls	r3, r3, #1
    13f0:	4413      	add	r3, r2
    13f2:	009b      	lsls	r3, r3, #2
    13f4:	4a08      	ldr	r2, [pc, #32]	; (1418 <task_ready+0x38>)
    13f6:	441a      	add	r2, r3
    13f8:	687b      	ldr	r3, [r7, #4]
    13fa:	3318      	adds	r3, #24
    13fc:	4610      	mov	r0, r2
    13fe:	4619      	mov	r1, r3
    1400:	f000 fb50 	bl	1aa4 <list_append_last>
    1404:	687b      	ldr	r3, [r7, #4]
    1406:	689b      	ldr	r3, [r3, #8]
    1408:	4804      	ldr	r0, [pc, #16]	; (141c <task_ready+0x3c>)
    140a:	4619      	mov	r1, r3
    140c:	f000 f9ec 	bl	17e8 <bitmap_set>
    1410:	3708      	adds	r7, #8
    1412:	46bd      	mov	sp, r7
    1414:	bd80      	pop	{r7, pc}
    1416:	bf00      	nop
    1418:	20005958 	andcs	r5, r0, r8, asr r9
    141c:	20001048 	andcs	r1, r0, r8, asr #32

00001420 <task_unready>:
    1420:	b580      	push	{r7, lr}
    1422:	b082      	sub	sp, #8
    1424:	af00      	add	r7, sp, #0
    1426:	6078      	str	r0, [r7, #4]
    1428:	687b      	ldr	r3, [r7, #4]
    142a:	689a      	ldr	r2, [r3, #8]
    142c:	4613      	mov	r3, r2
    142e:	005b      	lsls	r3, r3, #1
    1430:	4413      	add	r3, r2
    1432:	009b      	lsls	r3, r3, #2
    1434:	4a0f      	ldr	r2, [pc, #60]	; (1474 <task_unready+0x54>)
    1436:	441a      	add	r2, r3
    1438:	687b      	ldr	r3, [r7, #4]
    143a:	3318      	adds	r3, #24
    143c:	4610      	mov	r0, r2
    143e:	4619      	mov	r1, r3
    1440:	f000 fb90 	bl	1b64 <list_remove>
    1444:	687b      	ldr	r3, [r7, #4]
    1446:	689a      	ldr	r2, [r3, #8]
    1448:	4613      	mov	r3, r2
    144a:	005b      	lsls	r3, r3, #1
    144c:	4413      	add	r3, r2
    144e:	009b      	lsls	r3, r3, #2
    1450:	4a08      	ldr	r2, [pc, #32]	; (1474 <task_unready+0x54>)
    1452:	4413      	add	r3, r2
    1454:	4618      	mov	r0, r3
    1456:	f000 fa5b 	bl	1910 <list_count>
    145a:	4603      	mov	r3, r0
    145c:	2b00      	cmp	r3, #0
    145e:	d105      	bne.n	146c <task_unready+0x4c>
    1460:	687b      	ldr	r3, [r7, #4]
    1462:	689b      	ldr	r3, [r3, #8]
    1464:	4804      	ldr	r0, [pc, #16]	; (1478 <task_unready+0x58>)
    1466:	4619      	mov	r1, r3
    1468:	f000 f9d2 	bl	1810 <bitmap_clear>
    146c:	3708      	adds	r7, #8
    146e:	46bd      	mov	sp, r7
    1470:	bd80      	pop	{r7, pc}
    1472:	bf00      	nop
    1474:	20005958 	andcs	r5, r0, r8, asr r9
    1478:	20001048 	andcs	r1, r0, r8, asr #32

0000147c <task_delay_wait>:
    147c:	b580      	push	{r7, lr}
    147e:	b082      	sub	sp, #8
    1480:	af00      	add	r7, sp, #0
    1482:	6078      	str	r0, [r7, #4]
    1484:	6039      	str	r1, [r7, #0]
    1486:	687b      	ldr	r3, [r7, #4]
    1488:	683a      	ldr	r2, [r7, #0]
    148a:	605a      	str	r2, [r3, #4]
    148c:	687b      	ldr	r3, [r7, #4]
    148e:	330c      	adds	r3, #12
    1490:	4806      	ldr	r0, [pc, #24]	; (14ac <task_delay_wait+0x30>)
    1492:	4619      	mov	r1, r3
    1494:	f000 fadc 	bl	1a50 <list_insert_head>
    1498:	687b      	ldr	r3, [r7, #4]
    149a:	695b      	ldr	r3, [r3, #20]
    149c:	f043 0202 	orr.w	r2, r3, #2
    14a0:	687b      	ldr	r3, [r7, #4]
    14a2:	615a      	str	r2, [r3, #20]
    14a4:	3708      	adds	r7, #8
    14a6:	46bd      	mov	sp, r7
    14a8:	bd80      	pop	{r7, pc}
    14aa:	bf00      	nop
    14ac:	2000104c 	andcs	r1, r0, ip, asr #32

000014b0 <task_delay_wakeup>:
    14b0:	b580      	push	{r7, lr}
    14b2:	b082      	sub	sp, #8
    14b4:	af00      	add	r7, sp, #0
    14b6:	6078      	str	r0, [r7, #4]
    14b8:	687b      	ldr	r3, [r7, #4]
    14ba:	330c      	adds	r3, #12
    14bc:	4806      	ldr	r0, [pc, #24]	; (14d8 <task_delay_wakeup+0x28>)
    14be:	4619      	mov	r1, r3
    14c0:	f000 fb50 	bl	1b64 <list_remove>
    14c4:	687b      	ldr	r3, [r7, #4]
    14c6:	695b      	ldr	r3, [r3, #20]
    14c8:	f023 0202 	bic.w	r2, r3, #2
    14cc:	687b      	ldr	r3, [r7, #4]
    14ce:	615a      	str	r2, [r3, #20]
    14d0:	3708      	adds	r7, #8
    14d2:	46bd      	mov	sp, r7
    14d4:	bd80      	pop	{r7, pc}
    14d6:	bf00      	nop
    14d8:	2000104c 	andcs	r1, r0, ip, asr #32

000014dc <task_suspend>:
    14dc:	b580      	push	{r7, lr}
    14de:	b084      	sub	sp, #16
    14e0:	af00      	add	r7, sp, #0
    14e2:	6078      	str	r0, [r7, #4]
    14e4:	f7ff ff10 	bl	1308 <task_enter_critical>
    14e8:	60f8      	str	r0, [r7, #12]
    14ea:	687b      	ldr	r3, [r7, #4]
    14ec:	695b      	ldr	r3, [r3, #20]
    14ee:	f003 0302 	and.w	r3, r3, #2
    14f2:	2b00      	cmp	r3, #0
    14f4:	d116      	bne.n	1524 <task_suspend+0x48>
    14f6:	687b      	ldr	r3, [r7, #4]
    14f8:	6a5b      	ldr	r3, [r3, #36]	; 0x24
    14fa:	1c59      	adds	r1, r3, #1
    14fc:	687a      	ldr	r2, [r7, #4]
    14fe:	6251      	str	r1, [r2, #36]	; 0x24
    1500:	2b00      	cmp	r3, #0
    1502:	d10f      	bne.n	1524 <task_suspend+0x48>
    1504:	687b      	ldr	r3, [r7, #4]
    1506:	695b      	ldr	r3, [r3, #20]
    1508:	f043 0204 	orr.w	r2, r3, #4
    150c:	687b      	ldr	r3, [r7, #4]
    150e:	615a      	str	r2, [r3, #20]
    1510:	6878      	ldr	r0, [r7, #4]
    1512:	f7ff ff85 	bl	1420 <task_unready>
    1516:	4b06      	ldr	r3, [pc, #24]	; (1530 <task_suspend+0x54>)
    1518:	681b      	ldr	r3, [r3, #0]
    151a:	687a      	ldr	r2, [r7, #4]
    151c:	429a      	cmp	r2, r3
    151e:	d101      	bne.n	1524 <task_suspend+0x48>
    1520:	f7ff fdc2 	bl	10a8 <task_sched>
    1524:	68f8      	ldr	r0, [r7, #12]
    1526:	f7ff fefd 	bl	1324 <task_exit_critical>
    152a:	3710      	adds	r7, #16
    152c:	46bd      	mov	sp, r7
    152e:	bd80      	pop	{r7, pc}
    1530:	20005954 	andcs	r5, r0, r4, asr r9

00001534 <task_resume>:
    1534:	b580      	push	{r7, lr}
    1536:	b084      	sub	sp, #16
    1538:	af00      	add	r7, sp, #0
    153a:	6078      	str	r0, [r7, #4]
    153c:	f7ff fee4 	bl	1308 <task_enter_critical>
    1540:	60f8      	str	r0, [r7, #12]
    1542:	687b      	ldr	r3, [r7, #4]
    1544:	695b      	ldr	r3, [r3, #20]
    1546:	f003 0304 	and.w	r3, r3, #4
    154a:	2b00      	cmp	r3, #0
    154c:	d013      	beq.n	1576 <task_resume+0x42>
    154e:	687b      	ldr	r3, [r7, #4]
    1550:	6a5b      	ldr	r3, [r3, #36]	; 0x24
    1552:	1e5a      	subs	r2, r3, #1
    1554:	687b      	ldr	r3, [r7, #4]
    1556:	625a      	str	r2, [r3, #36]	; 0x24
    1558:	687b      	ldr	r3, [r7, #4]
    155a:	6a5b      	ldr	r3, [r3, #36]	; 0x24
    155c:	2b00      	cmp	r3, #0
    155e:	d10a      	bne.n	1576 <task_resume+0x42>
    1560:	687b      	ldr	r3, [r7, #4]
    1562:	695b      	ldr	r3, [r3, #20]
    1564:	f023 0204 	bic.w	r2, r3, #4
    1568:	687b      	ldr	r3, [r7, #4]
    156a:	615a      	str	r2, [r3, #20]
    156c:	6878      	ldr	r0, [r7, #4]
    156e:	f7ff ff37 	bl	13e0 <task_ready>
    1572:	f7ff fd99 	bl	10a8 <task_sched>
    1576:	68f8      	ldr	r0, [r7, #12]
    1578:	f7ff fed4 	bl	1324 <task_exit_critical>
    157c:	3710      	adds	r7, #16
    157e:	46bd      	mov	sp, r7
    1580:	bd80      	pop	{r7, pc}
    1582:	bf00      	nop

00001584 <task_remove_from_prio_table>:
    1584:	b580      	push	{r7, lr}
    1586:	b082      	sub	sp, #8
    1588:	af00      	add	r7, sp, #0
    158a:	6078      	str	r0, [r7, #4]
    158c:	687b      	ldr	r3, [r7, #4]
    158e:	689a      	ldr	r2, [r3, #8]
    1590:	4613      	mov	r3, r2
    1592:	005b      	lsls	r3, r3, #1
    1594:	4413      	add	r3, r2
    1596:	009b      	lsls	r3, r3, #2
    1598:	4a0f      	ldr	r2, [pc, #60]	; (15d8 <task_remove_from_prio_table+0x54>)
    159a:	441a      	add	r2, r3
    159c:	687b      	ldr	r3, [r7, #4]
    159e:	3318      	adds	r3, #24
    15a0:	4610      	mov	r0, r2
    15a2:	4619      	mov	r1, r3
    15a4:	f000 fade 	bl	1b64 <list_remove>
    15a8:	687b      	ldr	r3, [r7, #4]
    15aa:	689a      	ldr	r2, [r3, #8]
    15ac:	4613      	mov	r3, r2
    15ae:	005b      	lsls	r3, r3, #1
    15b0:	4413      	add	r3, r2
    15b2:	009b      	lsls	r3, r3, #2
    15b4:	4a08      	ldr	r2, [pc, #32]	; (15d8 <task_remove_from_prio_table+0x54>)
    15b6:	4413      	add	r3, r2
    15b8:	4618      	mov	r0, r3
    15ba:	f000 f9a9 	bl	1910 <list_count>
    15be:	4603      	mov	r3, r0
    15c0:	2b00      	cmp	r3, #0
    15c2:	d105      	bne.n	15d0 <task_remove_from_prio_table+0x4c>
    15c4:	687b      	ldr	r3, [r7, #4]
    15c6:	689b      	ldr	r3, [r3, #8]
    15c8:	4804      	ldr	r0, [pc, #16]	; (15dc <task_remove_from_prio_table+0x58>)
    15ca:	4619      	mov	r1, r3
    15cc:	f000 f920 	bl	1810 <bitmap_clear>
    15d0:	3708      	adds	r7, #8
    15d2:	46bd      	mov	sp, r7
    15d4:	bd80      	pop	{r7, pc}
    15d6:	bf00      	nop
    15d8:	20005958 	andcs	r5, r0, r8, asr r9
    15dc:	20001048 	andcs	r1, r0, r8, asr #32

000015e0 <task_remove_from_delay_list>:
    15e0:	b580      	push	{r7, lr}
    15e2:	b082      	sub	sp, #8
    15e4:	af00      	add	r7, sp, #0
    15e6:	6078      	str	r0, [r7, #4]
    15e8:	687b      	ldr	r3, [r7, #4]
    15ea:	330c      	adds	r3, #12
    15ec:	4803      	ldr	r0, [pc, #12]	; (15fc <task_remove_from_delay_list+0x1c>)
    15ee:	4619      	mov	r1, r3
    15f0:	f000 fab8 	bl	1b64 <list_remove>
    15f4:	3708      	adds	r7, #8
    15f6:	46bd      	mov	sp, r7
    15f8:	bd80      	pop	{r7, pc}
    15fa:	bf00      	nop
    15fc:	2000104c 	andcs	r1, r0, ip, asr #32

00001600 <task_set_clean_callbk>:
    1600:	b480      	push	{r7}
    1602:	b085      	sub	sp, #20
    1604:	af00      	add	r7, sp, #0
    1606:	60f8      	str	r0, [r7, #12]
    1608:	60b9      	str	r1, [r7, #8]
    160a:	607a      	str	r2, [r7, #4]
    160c:	68fb      	ldr	r3, [r7, #12]
    160e:	68ba      	ldr	r2, [r7, #8]
    1610:	629a      	str	r2, [r3, #40]	; 0x28
    1612:	68fb      	ldr	r3, [r7, #12]
    1614:	687a      	ldr	r2, [r7, #4]
    1616:	62da      	str	r2, [r3, #44]	; 0x2c
    1618:	3714      	adds	r7, #20
    161a:	46bd      	mov	sp, r7
    161c:	f85d 7b04 	ldr.w	r7, [sp], #4
    1620:	4770      	bx	lr
    1622:	bf00      	nop

00001624 <task_force_delete>:
    1624:	b580      	push	{r7, lr}
    1626:	b084      	sub	sp, #16
    1628:	af00      	add	r7, sp, #0
    162a:	6078      	str	r0, [r7, #4]
    162c:	f7ff fe6c 	bl	1308 <task_enter_critical>
    1630:	60f8      	str	r0, [r7, #12]
    1632:	687b      	ldr	r3, [r7, #4]
    1634:	695b      	ldr	r3, [r3, #20]
    1636:	f003 0302 	and.w	r3, r3, #2
    163a:	2b00      	cmp	r3, #0
    163c:	d003      	beq.n	1646 <task_force_delete+0x22>
    163e:	6878      	ldr	r0, [r7, #4]
    1640:	f7ff ffce 	bl	15e0 <task_remove_from_delay_list>
    1644:	e008      	b.n	1658 <task_force_delete+0x34>
    1646:	687b      	ldr	r3, [r7, #4]
    1648:	695b      	ldr	r3, [r3, #20]
    164a:	f003 0304 	and.w	r3, r3, #4
    164e:	2b00      	cmp	r3, #0
    1650:	d102      	bne.n	1658 <task_force_delete+0x34>
    1652:	6878      	ldr	r0, [r7, #4]
    1654:	f7ff ff96 	bl	1584 <task_remove_from_prio_table>
    1658:	687b      	ldr	r3, [r7, #4]
    165a:	6a9b      	ldr	r3, [r3, #40]	; 0x28
    165c:	2b00      	cmp	r3, #0
    165e:	d005      	beq.n	166c <task_force_delete+0x48>
    1660:	687b      	ldr	r3, [r7, #4]
    1662:	6a9b      	ldr	r3, [r3, #40]	; 0x28
    1664:	687a      	ldr	r2, [r7, #4]
    1666:	6ad2      	ldr	r2, [r2, #44]	; 0x2c
    1668:	4610      	mov	r0, r2
    166a:	4798      	blx	r3
    166c:	4b06      	ldr	r3, [pc, #24]	; (1688 <task_force_delete+0x64>)
    166e:	681a      	ldr	r2, [r3, #0]
    1670:	687b      	ldr	r3, [r7, #4]
    1672:	429a      	cmp	r2, r3
    1674:	d101      	bne.n	167a <task_force_delete+0x56>
    1676:	f7ff fd17 	bl	10a8 <task_sched>
    167a:	68f8      	ldr	r0, [r7, #12]
    167c:	f7ff fe52 	bl	1324 <task_exit_critical>
    1680:	3710      	adds	r7, #16
    1682:	46bd      	mov	sp, r7
    1684:	bd80      	pop	{r7, pc}
    1686:	bf00      	nop
    1688:	20005954 	andcs	r5, r0, r4, asr r9

0000168c <task_request_delete>:
    168c:	b580      	push	{r7, lr}
    168e:	b084      	sub	sp, #16
    1690:	af00      	add	r7, sp, #0
    1692:	6078      	str	r0, [r7, #4]
    1694:	f7ff fe38 	bl	1308 <task_enter_critical>
    1698:	60f8      	str	r0, [r7, #12]
    169a:	687b      	ldr	r3, [r7, #4]
    169c:	2201      	movs	r2, #1
    169e:	f883 2030 	strb.w	r2, [r3, #48]	; 0x30
    16a2:	68f8      	ldr	r0, [r7, #12]
    16a4:	f7ff fe3e 	bl	1324 <task_exit_critical>
    16a8:	3710      	adds	r7, #16
    16aa:	46bd      	mov	sp, r7
    16ac:	bd80      	pop	{r7, pc}
    16ae:	bf00      	nop

000016b0 <is_task_request_delete>:
    16b0:	b580      	push	{r7, lr}
    16b2:	b082      	sub	sp, #8
    16b4:	af00      	add	r7, sp, #0
    16b6:	f7ff fe27 	bl	1308 <task_enter_critical>
    16ba:	6078      	str	r0, [r7, #4]
    16bc:	4b06      	ldr	r3, [pc, #24]	; (16d8 <is_task_request_delete+0x28>)
    16be:	681b      	ldr	r3, [r3, #0]
    16c0:	f893 3030 	ldrb.w	r3, [r3, #48]	; 0x30
    16c4:	70fb      	strb	r3, [r7, #3]
    16c6:	6878      	ldr	r0, [r7, #4]
    16c8:	f7ff fe2c 	bl	1324 <task_exit_critical>
    16cc:	78fb      	ldrb	r3, [r7, #3]
    16ce:	4618      	mov	r0, r3
    16d0:	3708      	adds	r7, #8
    16d2:	46bd      	mov	sp, r7
    16d4:	bd80      	pop	{r7, pc}
    16d6:	bf00      	nop
    16d8:	20005954 	andcs	r5, r0, r4, asr r9

000016dc <task_delete_self>:
    16dc:	b580      	push	{r7, lr}
    16de:	b082      	sub	sp, #8
    16e0:	af00      	add	r7, sp, #0
    16e2:	f7ff fe11 	bl	1308 <task_enter_critical>
    16e6:	4603      	mov	r3, r0
    16e8:	71fb      	strb	r3, [r7, #7]
    16ea:	4b0d      	ldr	r3, [pc, #52]	; (1720 <task_delete_self+0x44>)
    16ec:	681b      	ldr	r3, [r3, #0]
    16ee:	4618      	mov	r0, r3
    16f0:	f7ff ff48 	bl	1584 <task_remove_from_prio_table>
    16f4:	4b0a      	ldr	r3, [pc, #40]	; (1720 <task_delete_self+0x44>)
    16f6:	681b      	ldr	r3, [r3, #0]
    16f8:	6a9b      	ldr	r3, [r3, #40]	; 0x28
    16fa:	2b00      	cmp	r3, #0
    16fc:	d007      	beq.n	170e <task_delete_self+0x32>
    16fe:	4b08      	ldr	r3, [pc, #32]	; (1720 <task_delete_self+0x44>)
    1700:	681b      	ldr	r3, [r3, #0]
    1702:	6a9b      	ldr	r3, [r3, #40]	; 0x28
    1704:	4a06      	ldr	r2, [pc, #24]	; (1720 <task_delete_self+0x44>)
    1706:	6812      	ldr	r2, [r2, #0]
    1708:	6ad2      	ldr	r2, [r2, #44]	; 0x2c
    170a:	4610      	mov	r0, r2
    170c:	4798      	blx	r3
    170e:	f7ff fccb 	bl	10a8 <task_sched>
    1712:	79fb      	ldrb	r3, [r7, #7]
    1714:	4618      	mov	r0, r3
    1716:	f7ff fe05 	bl	1324 <task_exit_critical>
    171a:	3708      	adds	r7, #8
    171c:	46bd      	mov	sp, r7
    171e:	bd80      	pop	{r7, pc}
    1720:	20005954 	andcs	r5, r0, r4, asr r9

00001724 <task_get_info>:
    1724:	b580      	push	{r7, lr}
    1726:	b084      	sub	sp, #16
    1728:	af00      	add	r7, sp, #0
    172a:	6078      	str	r0, [r7, #4]
    172c:	6039      	str	r1, [r7, #0]
    172e:	f7ff fdeb 	bl	1308 <task_enter_critical>
    1732:	60f8      	str	r0, [r7, #12]
    1734:	687b      	ldr	r3, [r7, #4]
    1736:	685a      	ldr	r2, [r3, #4]
    1738:	683b      	ldr	r3, [r7, #0]
    173a:	601a      	str	r2, [r3, #0]
    173c:	687b      	ldr	r3, [r7, #4]
    173e:	689a      	ldr	r2, [r3, #8]
    1740:	683b      	ldr	r3, [r7, #0]
    1742:	605a      	str	r2, [r3, #4]
    1744:	687b      	ldr	r3, [r7, #4]
    1746:	695a      	ldr	r2, [r3, #20]
    1748:	683b      	ldr	r3, [r7, #0]
    174a:	609a      	str	r2, [r3, #8]
    174c:	687b      	ldr	r3, [r7, #4]
    174e:	6a1a      	ldr	r2, [r3, #32]
    1750:	683b      	ldr	r3, [r7, #0]
    1752:	60da      	str	r2, [r3, #12]
    1754:	687b      	ldr	r3, [r7, #4]
    1756:	6a5a      	ldr	r2, [r3, #36]	; 0x24
    1758:	683b      	ldr	r3, [r7, #0]
    175a:	611a      	str	r2, [r3, #16]
    175c:	68f8      	ldr	r0, [r7, #12]
    175e:	f7ff fde1 	bl	1324 <task_exit_critical>
    1762:	3710      	adds	r7, #16
    1764:	46bd      	mov	sp, r7
    1766:	bd80      	pop	{r7, pc}

00001768 <dump_task_info>:
    1768:	b580      	push	{r7, lr}
    176a:	b082      	sub	sp, #8
    176c:	af00      	add	r7, sp, #0
    176e:	6078      	str	r0, [r7, #4]
    1770:	480e      	ldr	r0, [pc, #56]	; (17ac <dump_task_info+0x44>)
    1772:	f7ff f933 	bl	9dc <printk>
    1776:	687b      	ldr	r3, [r7, #4]
    1778:	681b      	ldr	r3, [r3, #0]
    177a:	480d      	ldr	r0, [pc, #52]	; (17b0 <dump_task_info+0x48>)
    177c:	4619      	mov	r1, r3
    177e:	f7ff f92d 	bl	9dc <printk>
    1782:	687b      	ldr	r3, [r7, #4]
    1784:	685b      	ldr	r3, [r3, #4]
    1786:	480b      	ldr	r0, [pc, #44]	; (17b4 <dump_task_info+0x4c>)
    1788:	4619      	mov	r1, r3
    178a:	f7ff f927 	bl	9dc <printk>
    178e:	687b      	ldr	r3, [r7, #4]
    1790:	68db      	ldr	r3, [r3, #12]
    1792:	4809      	ldr	r0, [pc, #36]	; (17b8 <dump_task_info+0x50>)
    1794:	4619      	mov	r1, r3
    1796:	f7ff f921 	bl	9dc <printk>
    179a:	687b      	ldr	r3, [r7, #4]
    179c:	691b      	ldr	r3, [r3, #16]
    179e:	4807      	ldr	r0, [pc, #28]	; (17bc <dump_task_info+0x54>)
    17a0:	4619      	mov	r1, r3
    17a2:	f7ff f91b 	bl	9dc <printk>
    17a6:	3708      	adds	r7, #8
    17a8:	46bd      	mov	sp, r7
    17aa:	bd80      	pop	{r7, pc}
    17ac:	00002574 	andeq	r2, r0, r4, ror r5
    17b0:	00002580 	andeq	r2, r0, r0, lsl #11
    17b4:	00002590 	muleq	r0, r0, r5
    17b8:	0000259c 	muleq	r0, ip, r5
    17bc:	000025a8 	andeq	r2, r0, r8, lsr #11

000017c0 <bitmap_init>:
    17c0:	b480      	push	{r7}
    17c2:	b083      	sub	sp, #12
    17c4:	af00      	add	r7, sp, #0
    17c6:	6078      	str	r0, [r7, #4]
    17c8:	687b      	ldr	r3, [r7, #4]
    17ca:	2200      	movs	r2, #0
    17cc:	601a      	str	r2, [r3, #0]
    17ce:	370c      	adds	r7, #12
    17d0:	46bd      	mov	sp, r7
    17d2:	f85d 7b04 	ldr.w	r7, [sp], #4
    17d6:	4770      	bx	lr

000017d8 <bitmap_count>:
    17d8:	b480      	push	{r7}
    17da:	af00      	add	r7, sp, #0
    17dc:	2320      	movs	r3, #32
    17de:	4618      	mov	r0, r3
    17e0:	46bd      	mov	sp, r7
    17e2:	f85d 7b04 	ldr.w	r7, [sp], #4
    17e6:	4770      	bx	lr

000017e8 <bitmap_set>:
    17e8:	b480      	push	{r7}
    17ea:	b083      	sub	sp, #12
    17ec:	af00      	add	r7, sp, #0
    17ee:	6078      	str	r0, [r7, #4]
    17f0:	6039      	str	r1, [r7, #0]
    17f2:	687b      	ldr	r3, [r7, #4]
    17f4:	681b      	ldr	r3, [r3, #0]
    17f6:	683a      	ldr	r2, [r7, #0]
    17f8:	2101      	movs	r1, #1
    17fa:	fa01 f202 	lsl.w	r2, r1, r2
    17fe:	431a      	orrs	r2, r3
    1800:	687b      	ldr	r3, [r7, #4]
    1802:	601a      	str	r2, [r3, #0]
    1804:	370c      	adds	r7, #12
    1806:	46bd      	mov	sp, r7
    1808:	f85d 7b04 	ldr.w	r7, [sp], #4
    180c:	4770      	bx	lr
    180e:	bf00      	nop

00001810 <bitmap_clear>:
    1810:	b480      	push	{r7}
    1812:	b083      	sub	sp, #12
    1814:	af00      	add	r7, sp, #0
    1816:	6078      	str	r0, [r7, #4]
    1818:	6039      	str	r1, [r7, #0]
    181a:	687b      	ldr	r3, [r7, #4]
    181c:	681b      	ldr	r3, [r3, #0]
    181e:	683a      	ldr	r2, [r7, #0]
    1820:	2101      	movs	r1, #1
    1822:	fa01 f202 	lsl.w	r2, r1, r2
    1826:	43d2      	mvns	r2, r2
    1828:	401a      	ands	r2, r3
    182a:	687b      	ldr	r3, [r7, #4]
    182c:	601a      	str	r2, [r3, #0]
    182e:	370c      	adds	r7, #12
    1830:	46bd      	mov	sp, r7
    1832:	f85d 7b04 	ldr.w	r7, [sp], #4
    1836:	4770      	bx	lr

00001838 <bitmap_get_first_set>:
    1838:	b580      	push	{r7, lr}
    183a:	b084      	sub	sp, #16
    183c:	af00      	add	r7, sp, #0
    183e:	6078      	str	r0, [r7, #4]
    1840:	2320      	movs	r3, #32
    1842:	60fb      	str	r3, [r7, #12]
    1844:	687b      	ldr	r3, [r7, #4]
    1846:	681b      	ldr	r3, [r3, #0]
    1848:	b2db      	uxtb	r3, r3
    184a:	2b00      	cmp	r3, #0
    184c:	d006      	beq.n	185c <bitmap_get_first_set+0x24>
    184e:	687b      	ldr	r3, [r7, #4]
    1850:	681b      	ldr	r3, [r3, #0]
    1852:	b2db      	uxtb	r3, r3
    1854:	4a1b      	ldr	r2, [pc, #108]	; (18c4 <bitmap_get_first_set+0x8c>)
    1856:	5cd3      	ldrb	r3, [r2, r3]
    1858:	60fb      	str	r3, [r7, #12]
    185a:	e02e      	b.n	18ba <bitmap_get_first_set+0x82>
    185c:	687b      	ldr	r3, [r7, #4]
    185e:	681b      	ldr	r3, [r3, #0]
    1860:	f403 437f 	and.w	r3, r3, #65280	; 0xff00
    1864:	2b00      	cmp	r3, #0
    1866:	d008      	beq.n	187a <bitmap_get_first_set+0x42>
    1868:	687b      	ldr	r3, [r7, #4]
    186a:	681b      	ldr	r3, [r3, #0]
    186c:	0a1b      	lsrs	r3, r3, #8
    186e:	b2db      	uxtb	r3, r3
    1870:	4a14      	ldr	r2, [pc, #80]	; (18c4 <bitmap_get_first_set+0x8c>)
    1872:	5cd3      	ldrb	r3, [r2, r3]
    1874:	3308      	adds	r3, #8
    1876:	60fb      	str	r3, [r7, #12]
    1878:	e01f      	b.n	18ba <bitmap_get_first_set+0x82>
    187a:	687b      	ldr	r3, [r7, #4]
    187c:	681b      	ldr	r3, [r3, #0]
    187e:	f403 037f 	and.w	r3, r3, #16711680	; 0xff0000
    1882:	2b00      	cmp	r3, #0
    1884:	d008      	beq.n	1898 <bitmap_get_first_set+0x60>
    1886:	687b      	ldr	r3, [r7, #4]
    1888:	681b      	ldr	r3, [r3, #0]
    188a:	0c1b      	lsrs	r3, r3, #16
    188c:	b2db      	uxtb	r3, r3
    188e:	4a0d      	ldr	r2, [pc, #52]	; (18c4 <bitmap_get_first_set+0x8c>)
    1890:	5cd3      	ldrb	r3, [r2, r3]
    1892:	3310      	adds	r3, #16
    1894:	60fb      	str	r3, [r7, #12]
    1896:	e010      	b.n	18ba <bitmap_get_first_set+0x82>
    1898:	687b      	ldr	r3, [r7, #4]
    189a:	681b      	ldr	r3, [r3, #0]
    189c:	f003 437f 	and.w	r3, r3, #4278190080	; 0xff000000
    18a0:	2b00      	cmp	r3, #0
    18a2:	d007      	beq.n	18b4 <bitmap_get_first_set+0x7c>
    18a4:	687b      	ldr	r3, [r7, #4]
    18a6:	681b      	ldr	r3, [r3, #0]
    18a8:	0e1b      	lsrs	r3, r3, #24
    18aa:	4a06      	ldr	r2, [pc, #24]	; (18c4 <bitmap_get_first_set+0x8c>)
    18ac:	5cd3      	ldrb	r3, [r2, r3]
    18ae:	3318      	adds	r3, #24
    18b0:	60fb      	str	r3, [r7, #12]
    18b2:	e002      	b.n	18ba <bitmap_get_first_set+0x82>
    18b4:	f7ff ff90 	bl	17d8 <bitmap_count>
    18b8:	60f8      	str	r0, [r7, #12]
    18ba:	68fb      	ldr	r3, [r7, #12]
    18bc:	4618      	mov	r0, r3
    18be:	3710      	adds	r7, #16
    18c0:	46bd      	mov	sp, r7
    18c2:	bd80      	pop	{r7, pc}
    18c4:	000025d4 	ldrdeq	r2, [r0], -r4

000018c8 <list_node_init>:
    18c8:	b480      	push	{r7}
    18ca:	b083      	sub	sp, #12
    18cc:	af00      	add	r7, sp, #0
    18ce:	6078      	str	r0, [r7, #4]
    18d0:	687b      	ldr	r3, [r7, #4]
    18d2:	2b00      	cmp	r3, #0
    18d4:	d005      	beq.n	18e2 <list_node_init+0x1a>
    18d6:	687b      	ldr	r3, [r7, #4]
    18d8:	687a      	ldr	r2, [r7, #4]
    18da:	601a      	str	r2, [r3, #0]
    18dc:	687b      	ldr	r3, [r7, #4]
    18de:	687a      	ldr	r2, [r7, #4]
    18e0:	605a      	str	r2, [r3, #4]
    18e2:	370c      	adds	r7, #12
    18e4:	46bd      	mov	sp, r7
    18e6:	f85d 7b04 	ldr.w	r7, [sp], #4
    18ea:	4770      	bx	lr

000018ec <list_init>:
    18ec:	b580      	push	{r7, lr}
    18ee:	b082      	sub	sp, #8
    18f0:	af00      	add	r7, sp, #0
    18f2:	6078      	str	r0, [r7, #4]
    18f4:	687b      	ldr	r3, [r7, #4]
    18f6:	2b00      	cmp	r3, #0
    18f8:	d006      	beq.n	1908 <list_init+0x1c>
    18fa:	687b      	ldr	r3, [r7, #4]
    18fc:	2200      	movs	r2, #0
    18fe:	609a      	str	r2, [r3, #8]
    1900:	687b      	ldr	r3, [r7, #4]
    1902:	4618      	mov	r0, r3
    1904:	f7ff ffe0 	bl	18c8 <list_node_init>
    1908:	3708      	adds	r7, #8
    190a:	46bd      	mov	sp, r7
    190c:	bd80      	pop	{r7, pc}
    190e:	bf00      	nop

00001910 <list_count>:
    1910:	b480      	push	{r7}
    1912:	b085      	sub	sp, #20
    1914:	af00      	add	r7, sp, #0
    1916:	6078      	str	r0, [r7, #4]
    1918:	2300      	movs	r3, #0
    191a:	60fb      	str	r3, [r7, #12]
    191c:	687b      	ldr	r3, [r7, #4]
    191e:	2b00      	cmp	r3, #0
    1920:	d002      	beq.n	1928 <list_count+0x18>
    1922:	687b      	ldr	r3, [r7, #4]
    1924:	689b      	ldr	r3, [r3, #8]
    1926:	60fb      	str	r3, [r7, #12]
    1928:	68fb      	ldr	r3, [r7, #12]
    192a:	4618      	mov	r0, r3
    192c:	3714      	adds	r7, #20
    192e:	46bd      	mov	sp, r7
    1930:	f85d 7b04 	ldr.w	r7, [sp], #4
    1934:	4770      	bx	lr
    1936:	bf00      	nop

00001938 <list_head>:
    1938:	b480      	push	{r7}
    193a:	b085      	sub	sp, #20
    193c:	af00      	add	r7, sp, #0
    193e:	6078      	str	r0, [r7, #4]
    1940:	687b      	ldr	r3, [r7, #4]
    1942:	60bb      	str	r3, [r7, #8]
    1944:	2300      	movs	r3, #0
    1946:	60fb      	str	r3, [r7, #12]
    1948:	687b      	ldr	r3, [r7, #4]
    194a:	689b      	ldr	r3, [r3, #8]
    194c:	2b00      	cmp	r3, #0
    194e:	d002      	beq.n	1956 <list_head+0x1e>
    1950:	68bb      	ldr	r3, [r7, #8]
    1952:	685b      	ldr	r3, [r3, #4]
    1954:	60fb      	str	r3, [r7, #12]
    1956:	68fb      	ldr	r3, [r7, #12]
    1958:	4618      	mov	r0, r3
    195a:	3714      	adds	r7, #20
    195c:	46bd      	mov	sp, r7
    195e:	f85d 7b04 	ldr.w	r7, [sp], #4
    1962:	4770      	bx	lr

00001964 <list_tail>:
    1964:	b480      	push	{r7}
    1966:	b085      	sub	sp, #20
    1968:	af00      	add	r7, sp, #0
    196a:	6078      	str	r0, [r7, #4]
    196c:	687b      	ldr	r3, [r7, #4]
    196e:	60bb      	str	r3, [r7, #8]
    1970:	2300      	movs	r3, #0
    1972:	60fb      	str	r3, [r7, #12]
    1974:	687b      	ldr	r3, [r7, #4]
    1976:	689b      	ldr	r3, [r3, #8]
    1978:	2b00      	cmp	r3, #0
    197a:	d002      	beq.n	1982 <list_tail+0x1e>
    197c:	68bb      	ldr	r3, [r7, #8]
    197e:	681b      	ldr	r3, [r3, #0]
    1980:	60fb      	str	r3, [r7, #12]
    1982:	68fb      	ldr	r3, [r7, #12]
    1984:	4618      	mov	r0, r3
    1986:	3714      	adds	r7, #20
    1988:	46bd      	mov	sp, r7
    198a:	f85d 7b04 	ldr.w	r7, [sp], #4
    198e:	4770      	bx	lr

00001990 <node_prev>:
    1990:	b480      	push	{r7}
    1992:	b085      	sub	sp, #20
    1994:	af00      	add	r7, sp, #0
    1996:	6078      	str	r0, [r7, #4]
    1998:	2300      	movs	r3, #0
    199a:	60fb      	str	r3, [r7, #12]
    199c:	687b      	ldr	r3, [r7, #4]
    199e:	2b00      	cmp	r3, #0
    19a0:	d002      	beq.n	19a8 <node_prev+0x18>
    19a2:	687b      	ldr	r3, [r7, #4]
    19a4:	681b      	ldr	r3, [r3, #0]
    19a6:	60fb      	str	r3, [r7, #12]
    19a8:	68fb      	ldr	r3, [r7, #12]
    19aa:	4618      	mov	r0, r3
    19ac:	3714      	adds	r7, #20
    19ae:	46bd      	mov	sp, r7
    19b0:	f85d 7b04 	ldr.w	r7, [sp], #4
    19b4:	4770      	bx	lr
    19b6:	bf00      	nop

000019b8 <node_next>:
    19b8:	b480      	push	{r7}
    19ba:	b085      	sub	sp, #20
    19bc:	af00      	add	r7, sp, #0
    19be:	6078      	str	r0, [r7, #4]
    19c0:	2300      	movs	r3, #0
    19c2:	60fb      	str	r3, [r7, #12]
    19c4:	687b      	ldr	r3, [r7, #4]
    19c6:	2b00      	cmp	r3, #0
    19c8:	d002      	beq.n	19d0 <node_next+0x18>
    19ca:	687b      	ldr	r3, [r7, #4]
    19cc:	685b      	ldr	r3, [r3, #4]
    19ce:	60fb      	str	r3, [r7, #12]
    19d0:	68fb      	ldr	r3, [r7, #12]
    19d2:	4618      	mov	r0, r3
    19d4:	3714      	adds	r7, #20
    19d6:	46bd      	mov	sp, r7
    19d8:	f85d 7b04 	ldr.w	r7, [sp], #4
    19dc:	4770      	bx	lr
    19de:	bf00      	nop

000019e0 <list_remove_all>:
    19e0:	b480      	push	{r7}
    19e2:	b087      	sub	sp, #28
    19e4:	af00      	add	r7, sp, #0
    19e6:	6078      	str	r0, [r7, #4]
    19e8:	2300      	movs	r3, #0
    19ea:	60fb      	str	r3, [r7, #12]
    19ec:	2300      	movs	r3, #0
    19ee:	613b      	str	r3, [r7, #16]
    19f0:	2300      	movs	r3, #0
    19f2:	60bb      	str	r3, [r7, #8]
    19f4:	687b      	ldr	r3, [r7, #4]
    19f6:	2b00      	cmp	r3, #0
    19f8:	d100      	bne.n	19fc <list_remove_all+0x1c>
    19fa:	e022      	b.n	1a42 <list_remove_all+0x62>
    19fc:	687b      	ldr	r3, [r7, #4]
    19fe:	60fb      	str	r3, [r7, #12]
    1a00:	68fb      	ldr	r3, [r7, #12]
    1a02:	685b      	ldr	r3, [r3, #4]
    1a04:	613b      	str	r3, [r7, #16]
    1a06:	687b      	ldr	r3, [r7, #4]
    1a08:	689b      	ldr	r3, [r3, #8]
    1a0a:	617b      	str	r3, [r7, #20]
    1a0c:	e00d      	b.n	1a2a <list_remove_all+0x4a>
    1a0e:	693b      	ldr	r3, [r7, #16]
    1a10:	60bb      	str	r3, [r7, #8]
    1a12:	68bb      	ldr	r3, [r7, #8]
    1a14:	685b      	ldr	r3, [r3, #4]
    1a16:	613b      	str	r3, [r7, #16]
    1a18:	68bb      	ldr	r3, [r7, #8]
    1a1a:	68ba      	ldr	r2, [r7, #8]
    1a1c:	605a      	str	r2, [r3, #4]
    1a1e:	68bb      	ldr	r3, [r7, #8]
    1a20:	68ba      	ldr	r2, [r7, #8]
    1a22:	601a      	str	r2, [r3, #0]
    1a24:	697b      	ldr	r3, [r7, #20]
    1a26:	3b01      	subs	r3, #1
    1a28:	617b      	str	r3, [r7, #20]
    1a2a:	697b      	ldr	r3, [r7, #20]
    1a2c:	2b00      	cmp	r3, #0
    1a2e:	d1ee      	bne.n	1a0e <list_remove_all+0x2e>
    1a30:	68fb      	ldr	r3, [r7, #12]
    1a32:	68fa      	ldr	r2, [r7, #12]
    1a34:	601a      	str	r2, [r3, #0]
    1a36:	68fb      	ldr	r3, [r7, #12]
    1a38:	68fa      	ldr	r2, [r7, #12]
    1a3a:	605a      	str	r2, [r3, #4]
    1a3c:	687b      	ldr	r3, [r7, #4]
    1a3e:	2200      	movs	r2, #0
    1a40:	609a      	str	r2, [r3, #8]
    1a42:	bf00      	nop
    1a44:	371c      	adds	r7, #28
    1a46:	46bd      	mov	sp, r7
    1a48:	f85d 7b04 	ldr.w	r7, [sp], #4
    1a4c:	4770      	bx	lr
    1a4e:	bf00      	nop

00001a50 <list_insert_head>:
    1a50:	b480      	push	{r7}
    1a52:	b085      	sub	sp, #20
    1a54:	af00      	add	r7, sp, #0
    1a56:	6078      	str	r0, [r7, #4]
    1a58:	6039      	str	r1, [r7, #0]
    1a5a:	2300      	movs	r3, #0
    1a5c:	60fb      	str	r3, [r7, #12]
    1a5e:	2300      	movs	r3, #0
    1a60:	60bb      	str	r3, [r7, #8]
    1a62:	687b      	ldr	r3, [r7, #4]
    1a64:	2b00      	cmp	r3, #0
    1a66:	d100      	bne.n	1a6a <list_insert_head+0x1a>
    1a68:	e015      	b.n	1a96 <list_insert_head+0x46>
    1a6a:	687b      	ldr	r3, [r7, #4]
    1a6c:	60fb      	str	r3, [r7, #12]
    1a6e:	68fb      	ldr	r3, [r7, #12]
    1a70:	685b      	ldr	r3, [r3, #4]
    1a72:	60bb      	str	r3, [r7, #8]
    1a74:	68fb      	ldr	r3, [r7, #12]
    1a76:	683a      	ldr	r2, [r7, #0]
    1a78:	605a      	str	r2, [r3, #4]
    1a7a:	68bb      	ldr	r3, [r7, #8]
    1a7c:	683a      	ldr	r2, [r7, #0]
    1a7e:	601a      	str	r2, [r3, #0]
    1a80:	683b      	ldr	r3, [r7, #0]
    1a82:	68fa      	ldr	r2, [r7, #12]
    1a84:	601a      	str	r2, [r3, #0]
    1a86:	683b      	ldr	r3, [r7, #0]
    1a88:	68ba      	ldr	r2, [r7, #8]
    1a8a:	605a      	str	r2, [r3, #4]
    1a8c:	687b      	ldr	r3, [r7, #4]
    1a8e:	689b      	ldr	r3, [r3, #8]
    1a90:	1c5a      	adds	r2, r3, #1
    1a92:	687b      	ldr	r3, [r7, #4]
    1a94:	609a      	str	r2, [r3, #8]
    1a96:	bf00      	nop
    1a98:	3714      	adds	r7, #20
    1a9a:	46bd      	mov	sp, r7
    1a9c:	f85d 7b04 	ldr.w	r7, [sp], #4
    1aa0:	4770      	bx	lr
    1aa2:	bf00      	nop

00001aa4 <list_append_last>:
    1aa4:	b480      	push	{r7}
    1aa6:	b085      	sub	sp, #20
    1aa8:	af00      	add	r7, sp, #0
    1aaa:	6078      	str	r0, [r7, #4]
    1aac:	6039      	str	r1, [r7, #0]
    1aae:	2300      	movs	r3, #0
    1ab0:	60fb      	str	r3, [r7, #12]
    1ab2:	2300      	movs	r3, #0
    1ab4:	60bb      	str	r3, [r7, #8]
    1ab6:	687b      	ldr	r3, [r7, #4]
    1ab8:	2b00      	cmp	r3, #0
    1aba:	d100      	bne.n	1abe <list_append_last+0x1a>
    1abc:	e015      	b.n	1aea <list_append_last+0x46>
    1abe:	687b      	ldr	r3, [r7, #4]
    1ac0:	60fb      	str	r3, [r7, #12]
    1ac2:	68fb      	ldr	r3, [r7, #12]
    1ac4:	685b      	ldr	r3, [r3, #4]
    1ac6:	60bb      	str	r3, [r7, #8]
    1ac8:	68fb      	ldr	r3, [r7, #12]
    1aca:	683a      	ldr	r2, [r7, #0]
    1acc:	601a      	str	r2, [r3, #0]
    1ace:	68bb      	ldr	r3, [r7, #8]
    1ad0:	683a      	ldr	r2, [r7, #0]
    1ad2:	605a      	str	r2, [r3, #4]
    1ad4:	683b      	ldr	r3, [r7, #0]
    1ad6:	68fa      	ldr	r2, [r7, #12]
    1ad8:	605a      	str	r2, [r3, #4]
    1ada:	683b      	ldr	r3, [r7, #0]
    1adc:	68ba      	ldr	r2, [r7, #8]
    1ade:	601a      	str	r2, [r3, #0]
    1ae0:	687b      	ldr	r3, [r7, #4]
    1ae2:	689b      	ldr	r3, [r3, #8]
    1ae4:	1c5a      	adds	r2, r3, #1
    1ae6:	687b      	ldr	r3, [r7, #4]
    1ae8:	609a      	str	r2, [r3, #8]
    1aea:	bf00      	nop
    1aec:	3714      	adds	r7, #20
    1aee:	46bd      	mov	sp, r7
    1af0:	f85d 7b04 	ldr.w	r7, [sp], #4
    1af4:	4770      	bx	lr
    1af6:	bf00      	nop

00001af8 <list_remove_first>:
    1af8:	b480      	push	{r7}
    1afa:	b087      	sub	sp, #28
    1afc:	af00      	add	r7, sp, #0
    1afe:	6078      	str	r0, [r7, #4]
    1b00:	2300      	movs	r3, #0
    1b02:	613b      	str	r3, [r7, #16]
    1b04:	2300      	movs	r3, #0
    1b06:	60fb      	str	r3, [r7, #12]
    1b08:	2300      	movs	r3, #0
    1b0a:	617b      	str	r3, [r7, #20]
    1b0c:	687b      	ldr	r3, [r7, #4]
    1b0e:	2b00      	cmp	r3, #0
    1b10:	d100      	bne.n	1b14 <list_remove_first+0x1c>
    1b12:	e01f      	b.n	1b54 <list_remove_first+0x5c>
    1b14:	687b      	ldr	r3, [r7, #4]
    1b16:	613b      	str	r3, [r7, #16]
    1b18:	693b      	ldr	r3, [r7, #16]
    1b1a:	685b      	ldr	r3, [r3, #4]
    1b1c:	617b      	str	r3, [r7, #20]
    1b1e:	697a      	ldr	r2, [r7, #20]
    1b20:	693b      	ldr	r3, [r7, #16]
    1b22:	429a      	cmp	r2, r3
    1b24:	d102      	bne.n	1b2c <list_remove_first+0x34>
    1b26:	2300      	movs	r3, #0
    1b28:	617b      	str	r3, [r7, #20]
    1b2a:	e013      	b.n	1b54 <list_remove_first+0x5c>
    1b2c:	697b      	ldr	r3, [r7, #20]
    1b2e:	685b      	ldr	r3, [r3, #4]
    1b30:	60fb      	str	r3, [r7, #12]
    1b32:	693b      	ldr	r3, [r7, #16]
    1b34:	68fa      	ldr	r2, [r7, #12]
    1b36:	605a      	str	r2, [r3, #4]
    1b38:	68fb      	ldr	r3, [r7, #12]
    1b3a:	693a      	ldr	r2, [r7, #16]
    1b3c:	601a      	str	r2, [r3, #0]
    1b3e:	697b      	ldr	r3, [r7, #20]
    1b40:	697a      	ldr	r2, [r7, #20]
    1b42:	605a      	str	r2, [r3, #4]
    1b44:	697b      	ldr	r3, [r7, #20]
    1b46:	697a      	ldr	r2, [r7, #20]
    1b48:	601a      	str	r2, [r3, #0]
    1b4a:	687b      	ldr	r3, [r7, #4]
    1b4c:	689b      	ldr	r3, [r3, #8]
    1b4e:	1e5a      	subs	r2, r3, #1
    1b50:	687b      	ldr	r3, [r7, #4]
    1b52:	609a      	str	r2, [r3, #8]
    1b54:	697b      	ldr	r3, [r7, #20]
    1b56:	4618      	mov	r0, r3
    1b58:	371c      	adds	r7, #28
    1b5a:	46bd      	mov	sp, r7
    1b5c:	f85d 7b04 	ldr.w	r7, [sp], #4
    1b60:	4770      	bx	lr
    1b62:	bf00      	nop

00001b64 <list_remove>:
    1b64:	b580      	push	{r7, lr}
    1b66:	b084      	sub	sp, #16
    1b68:	af00      	add	r7, sp, #0
    1b6a:	6078      	str	r0, [r7, #4]
    1b6c:	6039      	str	r1, [r7, #0]
    1b6e:	2300      	movs	r3, #0
    1b70:	60fb      	str	r3, [r7, #12]
    1b72:	2300      	movs	r3, #0
    1b74:	60bb      	str	r3, [r7, #8]
    1b76:	687b      	ldr	r3, [r7, #4]
    1b78:	2b00      	cmp	r3, #0
    1b7a:	d01c      	beq.n	1bb6 <list_remove+0x52>
    1b7c:	683b      	ldr	r3, [r7, #0]
    1b7e:	2b00      	cmp	r3, #0
    1b80:	d019      	beq.n	1bb6 <list_remove+0x52>
    1b82:	683b      	ldr	r3, [r7, #0]
    1b84:	685b      	ldr	r3, [r3, #4]
    1b86:	60fb      	str	r3, [r7, #12]
    1b88:	683b      	ldr	r3, [r7, #0]
    1b8a:	681b      	ldr	r3, [r3, #0]
    1b8c:	60bb      	str	r3, [r7, #8]
    1b8e:	68fb      	ldr	r3, [r7, #12]
    1b90:	2b00      	cmp	r3, #0
    1b92:	d010      	beq.n	1bb6 <list_remove+0x52>
    1b94:	68bb      	ldr	r3, [r7, #8]
    1b96:	2b00      	cmp	r3, #0
    1b98:	d00d      	beq.n	1bb6 <list_remove+0x52>
    1b9a:	68bb      	ldr	r3, [r7, #8]
    1b9c:	68fa      	ldr	r2, [r7, #12]
    1b9e:	605a      	str	r2, [r3, #4]
    1ba0:	68fb      	ldr	r3, [r7, #12]
    1ba2:	68ba      	ldr	r2, [r7, #8]
    1ba4:	601a      	str	r2, [r3, #0]
    1ba6:	687b      	ldr	r3, [r7, #4]
    1ba8:	689b      	ldr	r3, [r3, #8]
    1baa:	1e5a      	subs	r2, r3, #1
    1bac:	687b      	ldr	r3, [r7, #4]
    1bae:	609a      	str	r2, [r3, #8]
    1bb0:	6838      	ldr	r0, [r7, #0]
    1bb2:	f7ff fe89 	bl	18c8 <list_node_init>
    1bb6:	bf00      	nop
    1bb8:	3710      	adds	r7, #16
    1bba:	46bd      	mov	sp, r7
    1bbc:	bd80      	pop	{r7, pc}
    1bbe:	bf00      	nop

00001bc0 <event_init>:
    1bc0:	b580      	push	{r7, lr}
    1bc2:	b082      	sub	sp, #8
    1bc4:	af00      	add	r7, sp, #0
    1bc6:	6078      	str	r0, [r7, #4]
    1bc8:	460b      	mov	r3, r1
    1bca:	70fb      	strb	r3, [r7, #3]
    1bcc:	687b      	ldr	r3, [r7, #4]
    1bce:	78fa      	ldrb	r2, [r7, #3]
    1bd0:	701a      	strb	r2, [r3, #0]
    1bd2:	687b      	ldr	r3, [r7, #4]
    1bd4:	3304      	adds	r3, #4
    1bd6:	4618      	mov	r0, r3
    1bd8:	f7ff fe88 	bl	18ec <list_init>
    1bdc:	3708      	adds	r7, #8
    1bde:	46bd      	mov	sp, r7
    1be0:	bd80      	pop	{r7, pc}
    1be2:	bf00      	nop

00001be4 <event_wait>:
    1be4:	b580      	push	{r7, lr}
    1be6:	b086      	sub	sp, #24
    1be8:	af00      	add	r7, sp, #0
    1bea:	60f8      	str	r0, [r7, #12]
    1bec:	60b9      	str	r1, [r7, #8]
    1bee:	607a      	str	r2, [r7, #4]
    1bf0:	603b      	str	r3, [r7, #0]
    1bf2:	f7ff fb89 	bl	1308 <task_enter_critical>
    1bf6:	6178      	str	r0, [r7, #20]
    1bf8:	68bb      	ldr	r3, [r7, #8]
    1bfa:	695a      	ldr	r2, [r3, #20]
    1bfc:	683b      	ldr	r3, [r7, #0]
    1bfe:	431a      	orrs	r2, r3
    1c00:	68bb      	ldr	r3, [r7, #8]
    1c02:	615a      	str	r2, [r3, #20]
    1c04:	68bb      	ldr	r3, [r7, #8]
    1c06:	68fa      	ldr	r2, [r7, #12]
    1c08:	635a      	str	r2, [r3, #52]	; 0x34
    1c0a:	68bb      	ldr	r3, [r7, #8]
    1c0c:	2200      	movs	r2, #0
    1c0e:	63da      	str	r2, [r3, #60]	; 0x3c
    1c10:	68b8      	ldr	r0, [r7, #8]
    1c12:	f7ff fc05 	bl	1420 <task_unready>
    1c16:	68fb      	ldr	r3, [r7, #12]
    1c18:	1d1a      	adds	r2, r3, #4
    1c1a:	68bb      	ldr	r3, [r7, #8]
    1c1c:	3318      	adds	r3, #24
    1c1e:	4610      	mov	r0, r2
    1c20:	4619      	mov	r1, r3
    1c22:	f7ff ff3f 	bl	1aa4 <list_append_last>
    1c26:	6a3b      	ldr	r3, [r7, #32]
    1c28:	2b00      	cmp	r3, #0
    1c2a:	d003      	beq.n	1c34 <event_wait+0x50>
    1c2c:	68b8      	ldr	r0, [r7, #8]
    1c2e:	6a39      	ldr	r1, [r7, #32]
    1c30:	f7ff fc24 	bl	147c <task_delay_wait>
    1c34:	6978      	ldr	r0, [r7, #20]
    1c36:	f7ff fb75 	bl	1324 <task_exit_critical>
    1c3a:	3718      	adds	r7, #24
    1c3c:	46bd      	mov	sp, r7
    1c3e:	bd80      	pop	{r7, pc}

00001c40 <event_wakeup>:
    1c40:	b580      	push	{r7, lr}
    1c42:	b088      	sub	sp, #32
    1c44:	af00      	add	r7, sp, #0
    1c46:	60f8      	str	r0, [r7, #12]
    1c48:	60b9      	str	r1, [r7, #8]
    1c4a:	607a      	str	r2, [r7, #4]
    1c4c:	2300      	movs	r3, #0
    1c4e:	61bb      	str	r3, [r7, #24]
    1c50:	2300      	movs	r3, #0
    1c52:	61fb      	str	r3, [r7, #28]
    1c54:	f7ff fb58 	bl	1308 <task_enter_critical>
    1c58:	6178      	str	r0, [r7, #20]
    1c5a:	68fb      	ldr	r3, [r7, #12]
    1c5c:	3304      	adds	r3, #4
    1c5e:	4618      	mov	r0, r3
    1c60:	f7ff ff4a 	bl	1af8 <list_remove_first>
    1c64:	61b8      	str	r0, [r7, #24]
    1c66:	69bb      	ldr	r3, [r7, #24]
    1c68:	2b00      	cmp	r3, #0
    1c6a:	d018      	beq.n	1c9e <event_wakeup+0x5e>
    1c6c:	69bb      	ldr	r3, [r7, #24]
    1c6e:	3b18      	subs	r3, #24
    1c70:	61fb      	str	r3, [r7, #28]
    1c72:	69fb      	ldr	r3, [r7, #28]
    1c74:	2200      	movs	r2, #0
    1c76:	635a      	str	r2, [r3, #52]	; 0x34
    1c78:	69fb      	ldr	r3, [r7, #28]
    1c7a:	68ba      	ldr	r2, [r7, #8]
    1c7c:	639a      	str	r2, [r3, #56]	; 0x38
    1c7e:	69fb      	ldr	r3, [r7, #28]
    1c80:	695b      	ldr	r3, [r3, #20]
    1c82:	f423 027f 	bic.w	r2, r3, #16711680	; 0xff0000
    1c86:	69fb      	ldr	r3, [r7, #28]
    1c88:	615a      	str	r2, [r3, #20]
    1c8a:	69fb      	ldr	r3, [r7, #28]
    1c8c:	685b      	ldr	r3, [r3, #4]
    1c8e:	2b00      	cmp	r3, #0
    1c90:	d002      	beq.n	1c98 <event_wakeup+0x58>
    1c92:	69f8      	ldr	r0, [r7, #28]
    1c94:	f7ff fc0c 	bl	14b0 <task_delay_wakeup>
    1c98:	69f8      	ldr	r0, [r7, #28]
    1c9a:	f7ff fba1 	bl	13e0 <task_ready>
    1c9e:	6978      	ldr	r0, [r7, #20]
    1ca0:	f7ff fb40 	bl	1324 <task_exit_critical>
    1ca4:	69fb      	ldr	r3, [r7, #28]
    1ca6:	4618      	mov	r0, r3
    1ca8:	3720      	adds	r7, #32
    1caa:	46bd      	mov	sp, r7
    1cac:	bd80      	pop	{r7, pc}
    1cae:	bf00      	nop

00001cb0 <event_remove_task>:
    1cb0:	b580      	push	{r7, lr}
    1cb2:	b086      	sub	sp, #24
    1cb4:	af00      	add	r7, sp, #0
    1cb6:	60f8      	str	r0, [r7, #12]
    1cb8:	60b9      	str	r1, [r7, #8]
    1cba:	607a      	str	r2, [r7, #4]
    1cbc:	f7ff fb24 	bl	1308 <task_enter_critical>
    1cc0:	6178      	str	r0, [r7, #20]
    1cc2:	68fb      	ldr	r3, [r7, #12]
    1cc4:	6b5b      	ldr	r3, [r3, #52]	; 0x34
    1cc6:	1d1a      	adds	r2, r3, #4
    1cc8:	68fb      	ldr	r3, [r7, #12]
    1cca:	3318      	adds	r3, #24
    1ccc:	4610      	mov	r0, r2
    1cce:	4619      	mov	r1, r3
    1cd0:	f7ff ff48 	bl	1b64 <list_remove>
    1cd4:	68fb      	ldr	r3, [r7, #12]
    1cd6:	2200      	movs	r2, #0
    1cd8:	635a      	str	r2, [r3, #52]	; 0x34
    1cda:	68fb      	ldr	r3, [r7, #12]
    1cdc:	68ba      	ldr	r2, [r7, #8]
    1cde:	639a      	str	r2, [r3, #56]	; 0x38
    1ce0:	68fb      	ldr	r3, [r7, #12]
    1ce2:	687a      	ldr	r2, [r7, #4]
    1ce4:	63da      	str	r2, [r3, #60]	; 0x3c
    1ce6:	68fb      	ldr	r3, [r7, #12]
    1ce8:	695b      	ldr	r3, [r3, #20]
    1cea:	f423 027f 	bic.w	r2, r3, #16711680	; 0xff0000
    1cee:	68fb      	ldr	r3, [r7, #12]
    1cf0:	615a      	str	r2, [r3, #20]
    1cf2:	6978      	ldr	r0, [r7, #20]
    1cf4:	f7ff fb16 	bl	1324 <task_exit_critical>
    1cf8:	3718      	adds	r7, #24
    1cfa:	46bd      	mov	sp, r7
    1cfc:	bd80      	pop	{r7, pc}
    1cfe:	bf00      	nop

00001d00 <event_remove_all>:
    1d00:	b580      	push	{r7, lr}
    1d02:	b088      	sub	sp, #32
    1d04:	af00      	add	r7, sp, #0
    1d06:	60f8      	str	r0, [r7, #12]
    1d08:	60b9      	str	r1, [r7, #8]
    1d0a:	607a      	str	r2, [r7, #4]
    1d0c:	2300      	movs	r3, #0
    1d0e:	61fb      	str	r3, [r7, #28]
    1d10:	2300      	movs	r3, #0
    1d12:	61bb      	str	r3, [r7, #24]
    1d14:	f7ff faf8 	bl	1308 <task_enter_critical>
    1d18:	6178      	str	r0, [r7, #20]
    1d1a:	481d      	ldr	r0, [pc, #116]	; (1d90 <event_remove_all+0x90>)
    1d1c:	491d      	ldr	r1, [pc, #116]	; (1d94 <event_remove_all+0x94>)
    1d1e:	f7fe fe5d 	bl	9dc <printk>
    1d22:	68fb      	ldr	r3, [r7, #12]
    1d24:	3304      	adds	r3, #4
    1d26:	4618      	mov	r0, r3
    1d28:	f7ff fdf2 	bl	1910 <list_count>
    1d2c:	61b8      	str	r0, [r7, #24]
    1d2e:	e01e      	b.n	1d6e <event_remove_all+0x6e>
    1d30:	4819      	ldr	r0, [pc, #100]	; (1d98 <event_remove_all+0x98>)
    1d32:	f7fe fe53 	bl	9dc <printk>
    1d36:	69fb      	ldr	r3, [r7, #28]
    1d38:	3b18      	subs	r3, #24
    1d3a:	613b      	str	r3, [r7, #16]
    1d3c:	693b      	ldr	r3, [r7, #16]
    1d3e:	2200      	movs	r2, #0
    1d40:	635a      	str	r2, [r3, #52]	; 0x34
    1d42:	693b      	ldr	r3, [r7, #16]
    1d44:	68ba      	ldr	r2, [r7, #8]
    1d46:	639a      	str	r2, [r3, #56]	; 0x38
    1d48:	693b      	ldr	r3, [r7, #16]
    1d4a:	687a      	ldr	r2, [r7, #4]
    1d4c:	63da      	str	r2, [r3, #60]	; 0x3c
    1d4e:	693b      	ldr	r3, [r7, #16]
    1d50:	695b      	ldr	r3, [r3, #20]
    1d52:	f423 027f 	bic.w	r2, r3, #16711680	; 0xff0000
    1d56:	693b      	ldr	r3, [r7, #16]
    1d58:	615a      	str	r2, [r3, #20]
    1d5a:	693b      	ldr	r3, [r7, #16]
    1d5c:	685b      	ldr	r3, [r3, #4]
    1d5e:	2b00      	cmp	r3, #0
    1d60:	d002      	beq.n	1d68 <event_remove_all+0x68>
    1d62:	6938      	ldr	r0, [r7, #16]
    1d64:	f7ff fba4 	bl	14b0 <task_delay_wakeup>
    1d68:	6938      	ldr	r0, [r7, #16]
    1d6a:	f7ff fb39 	bl	13e0 <task_ready>
    1d6e:	68fb      	ldr	r3, [r7, #12]
    1d70:	3304      	adds	r3, #4
    1d72:	4618      	mov	r0, r3
    1d74:	f7ff fec0 	bl	1af8 <list_remove_first>
    1d78:	61f8      	str	r0, [r7, #28]
    1d7a:	69fb      	ldr	r3, [r7, #28]
    1d7c:	2b00      	cmp	r3, #0
    1d7e:	d1d7      	bne.n	1d30 <event_remove_all+0x30>
    1d80:	6978      	ldr	r0, [r7, #20]
    1d82:	f7ff facf 	bl	1324 <task_exit_critical>
    1d86:	69bb      	ldr	r3, [r7, #24]
    1d88:	4618      	mov	r0, r3
    1d8a:	3720      	adds	r7, #32
    1d8c:	46bd      	mov	sp, r7
    1d8e:	bd80      	pop	{r7, pc}
    1d90:	000026d4 	ldrdeq	r2, [r0], -r4
    1d94:	000026e8 	andeq	r2, r0, r8, ror #13
    1d98:	000026dc 	ldrdeq	r2, [r0], -ip

00001d9c <event_wait_count>:
    1d9c:	b580      	push	{r7, lr}
    1d9e:	b084      	sub	sp, #16
    1da0:	af00      	add	r7, sp, #0
    1da2:	6078      	str	r0, [r7, #4]
    1da4:	2300      	movs	r3, #0
    1da6:	60fb      	str	r3, [r7, #12]
    1da8:	f7ff faae 	bl	1308 <task_enter_critical>
    1dac:	60b8      	str	r0, [r7, #8]
    1dae:	687b      	ldr	r3, [r7, #4]
    1db0:	3304      	adds	r3, #4
    1db2:	4618      	mov	r0, r3
    1db4:	f7ff fdac 	bl	1910 <list_count>
    1db8:	60f8      	str	r0, [r7, #12]
    1dba:	68b8      	ldr	r0, [r7, #8]
    1dbc:	f7ff fab2 	bl	1324 <task_exit_critical>
    1dc0:	68fb      	ldr	r3, [r7, #12]
    1dc2:	4618      	mov	r0, r3
    1dc4:	3710      	adds	r7, #16
    1dc6:	46bd      	mov	sp, r7
    1dc8:	bd80      	pop	{r7, pc}
    1dca:	bf00      	nop

00001dcc <sem_init>:
    1dcc:	b580      	push	{r7, lr}
    1dce:	b084      	sub	sp, #16
    1dd0:	af00      	add	r7, sp, #0
    1dd2:	60f8      	str	r0, [r7, #12]
    1dd4:	60b9      	str	r1, [r7, #8]
    1dd6:	607a      	str	r2, [r7, #4]
    1dd8:	68fb      	ldr	r3, [r7, #12]
    1dda:	4618      	mov	r0, r3
    1ddc:	2101      	movs	r1, #1
    1dde:	f7ff feef 	bl	1bc0 <event_init>
    1de2:	687b      	ldr	r3, [r7, #4]
    1de4:	2b00      	cmp	r3, #0
    1de6:	d103      	bne.n	1df0 <sem_init+0x24>
    1de8:	68fb      	ldr	r3, [r7, #12]
    1dea:	68ba      	ldr	r2, [r7, #8]
    1dec:	611a      	str	r2, [r3, #16]
    1dee:	e006      	b.n	1dfe <sem_init+0x32>
    1df0:	68ba      	ldr	r2, [r7, #8]
    1df2:	687b      	ldr	r3, [r7, #4]
    1df4:	429a      	cmp	r2, r3
    1df6:	bf28      	it	cs
    1df8:	461a      	movcs	r2, r3
    1dfa:	68fb      	ldr	r3, [r7, #12]
    1dfc:	611a      	str	r2, [r3, #16]
    1dfe:	3710      	adds	r7, #16
    1e00:	46bd      	mov	sp, r7
    1e02:	bd80      	pop	{r7, pc}

00001e04 <sem_acquire>:
    1e04:	b580      	push	{r7, lr}
    1e06:	b086      	sub	sp, #24
    1e08:	af02      	add	r7, sp, #8
    1e0a:	6078      	str	r0, [r7, #4]
    1e0c:	6039      	str	r1, [r7, #0]
    1e0e:	f7ff fa7b 	bl	1308 <task_enter_critical>
    1e12:	60f8      	str	r0, [r7, #12]
    1e14:	687b      	ldr	r3, [r7, #4]
    1e16:	691b      	ldr	r3, [r3, #16]
    1e18:	2b00      	cmp	r3, #0
    1e1a:	d009      	beq.n	1e30 <sem_acquire+0x2c>
    1e1c:	687b      	ldr	r3, [r7, #4]
    1e1e:	691b      	ldr	r3, [r3, #16]
    1e20:	1e5a      	subs	r2, r3, #1
    1e22:	687b      	ldr	r3, [r7, #4]
    1e24:	611a      	str	r2, [r3, #16]
    1e26:	68f8      	ldr	r0, [r7, #12]
    1e28:	f7ff fa7c 	bl	1324 <task_exit_critical>
    1e2c:	2300      	movs	r3, #0
    1e2e:	e012      	b.n	1e56 <sem_acquire+0x52>
    1e30:	6879      	ldr	r1, [r7, #4]
    1e32:	4b0b      	ldr	r3, [pc, #44]	; (1e60 <sem_acquire+0x5c>)
    1e34:	681a      	ldr	r2, [r3, #0]
    1e36:	683b      	ldr	r3, [r7, #0]
    1e38:	9300      	str	r3, [sp, #0]
    1e3a:	4608      	mov	r0, r1
    1e3c:	4611      	mov	r1, r2
    1e3e:	2200      	movs	r2, #0
    1e40:	2301      	movs	r3, #1
    1e42:	f7ff fecf 	bl	1be4 <event_wait>
    1e46:	68f8      	ldr	r0, [r7, #12]
    1e48:	f7ff fa6c 	bl	1324 <task_exit_critical>
    1e4c:	f7ff f92c 	bl	10a8 <task_sched>
    1e50:	4b03      	ldr	r3, [pc, #12]	; (1e60 <sem_acquire+0x5c>)
    1e52:	681b      	ldr	r3, [r3, #0]
    1e54:	6bdb      	ldr	r3, [r3, #60]	; 0x3c
    1e56:	4618      	mov	r0, r3
    1e58:	3710      	adds	r7, #16
    1e5a:	46bd      	mov	sp, r7
    1e5c:	bd80      	pop	{r7, pc}
    1e5e:	bf00      	nop
    1e60:	20005954 	andcs	r5, r0, r4, asr r9

00001e64 <sem_acquire_no_wait>:
    1e64:	b580      	push	{r7, lr}
    1e66:	b084      	sub	sp, #16
    1e68:	af00      	add	r7, sp, #0
    1e6a:	6078      	str	r0, [r7, #4]
    1e6c:	f7ff fa4c 	bl	1308 <task_enter_critical>
    1e70:	60f8      	str	r0, [r7, #12]
    1e72:	687b      	ldr	r3, [r7, #4]
    1e74:	691b      	ldr	r3, [r3, #16]
    1e76:	2b00      	cmp	r3, #0
    1e78:	d009      	beq.n	1e8e <sem_acquire_no_wait+0x2a>
    1e7a:	687b      	ldr	r3, [r7, #4]
    1e7c:	691b      	ldr	r3, [r3, #16]
    1e7e:	1e5a      	subs	r2, r3, #1
    1e80:	687b      	ldr	r3, [r7, #4]
    1e82:	611a      	str	r2, [r3, #16]
    1e84:	68f8      	ldr	r0, [r7, #12]
    1e86:	f7ff fa4d 	bl	1324 <task_exit_critical>
    1e8a:	2300      	movs	r3, #0
    1e8c:	e005      	b.n	1e9a <sem_acquire_no_wait+0x36>
    1e8e:	68f8      	ldr	r0, [r7, #12]
    1e90:	f7ff fa48 	bl	1324 <task_exit_critical>
    1e94:	4b03      	ldr	r3, [pc, #12]	; (1ea4 <sem_acquire_no_wait+0x40>)
    1e96:	681b      	ldr	r3, [r3, #0]
    1e98:	6bdb      	ldr	r3, [r3, #60]	; 0x3c
    1e9a:	4618      	mov	r0, r3
    1e9c:	3710      	adds	r7, #16
    1e9e:	46bd      	mov	sp, r7
    1ea0:	bd80      	pop	{r7, pc}
    1ea2:	bf00      	nop
    1ea4:	20005954 	andcs	r5, r0, r4, asr r9

00001ea8 <sem_release>:
    1ea8:	b580      	push	{r7, lr}
    1eaa:	b084      	sub	sp, #16
    1eac:	af00      	add	r7, sp, #0
    1eae:	6078      	str	r0, [r7, #4]
    1eb0:	f7ff fa2a 	bl	1308 <task_enter_critical>
    1eb4:	60f8      	str	r0, [r7, #12]
    1eb6:	687b      	ldr	r3, [r7, #4]
    1eb8:	4618      	mov	r0, r3
    1eba:	f7ff ff6f 	bl	1d9c <event_wait_count>
    1ebe:	4603      	mov	r3, r0
    1ec0:	2b00      	cmp	r3, #0
    1ec2:	d011      	beq.n	1ee8 <sem_release+0x40>
    1ec4:	687b      	ldr	r3, [r7, #4]
    1ec6:	4618      	mov	r0, r3
    1ec8:	2100      	movs	r1, #0
    1eca:	2200      	movs	r2, #0
    1ecc:	f7ff feb8 	bl	1c40 <event_wakeup>
    1ed0:	60b8      	str	r0, [r7, #8]
    1ed2:	68bb      	ldr	r3, [r7, #8]
    1ed4:	689a      	ldr	r2, [r3, #8]
    1ed6:	4b11      	ldr	r3, [pc, #68]	; (1f1c <sem_release+0x74>)
    1ed8:	681b      	ldr	r3, [r3, #0]
    1eda:	689b      	ldr	r3, [r3, #8]
    1edc:	429a      	cmp	r2, r3
    1ede:	d202      	bcs.n	1ee6 <sem_release+0x3e>
    1ee0:	f7ff f8e2 	bl	10a8 <task_sched>
    1ee4:	e013      	b.n	1f0e <sem_release+0x66>
    1ee6:	e012      	b.n	1f0e <sem_release+0x66>
    1ee8:	687b      	ldr	r3, [r7, #4]
    1eea:	691b      	ldr	r3, [r3, #16]
    1eec:	1c5a      	adds	r2, r3, #1
    1eee:	687b      	ldr	r3, [r7, #4]
    1ef0:	611a      	str	r2, [r3, #16]
    1ef2:	687b      	ldr	r3, [r7, #4]
    1ef4:	695b      	ldr	r3, [r3, #20]
    1ef6:	2b00      	cmp	r3, #0
    1ef8:	d009      	beq.n	1f0e <sem_release+0x66>
    1efa:	687b      	ldr	r3, [r7, #4]
    1efc:	691a      	ldr	r2, [r3, #16]
    1efe:	687b      	ldr	r3, [r7, #4]
    1f00:	695b      	ldr	r3, [r3, #20]
    1f02:	429a      	cmp	r2, r3
    1f04:	d903      	bls.n	1f0e <sem_release+0x66>
    1f06:	687b      	ldr	r3, [r7, #4]
    1f08:	695a      	ldr	r2, [r3, #20]
    1f0a:	687b      	ldr	r3, [r7, #4]
    1f0c:	611a      	str	r2, [r3, #16]
    1f0e:	68f8      	ldr	r0, [r7, #12]
    1f10:	f7ff fa08 	bl	1324 <task_exit_critical>
    1f14:	3710      	adds	r7, #16
    1f16:	46bd      	mov	sp, r7
    1f18:	bd80      	pop	{r7, pc}
    1f1a:	bf00      	nop
    1f1c:	20005954 	andcs	r5, r0, r4, asr r9

00001f20 <sem_get_info>:
    1f20:	b580      	push	{r7, lr}
    1f22:	b084      	sub	sp, #16
    1f24:	af00      	add	r7, sp, #0
    1f26:	6078      	str	r0, [r7, #4]
    1f28:	6039      	str	r1, [r7, #0]
    1f2a:	f7ff f9ed 	bl	1308 <task_enter_critical>
    1f2e:	60f8      	str	r0, [r7, #12]
    1f30:	687b      	ldr	r3, [r7, #4]
    1f32:	691a      	ldr	r2, [r3, #16]
    1f34:	683b      	ldr	r3, [r7, #0]
    1f36:	601a      	str	r2, [r3, #0]
    1f38:	687b      	ldr	r3, [r7, #4]
    1f3a:	695a      	ldr	r2, [r3, #20]
    1f3c:	683b      	ldr	r3, [r7, #0]
    1f3e:	605a      	str	r2, [r3, #4]
    1f40:	687b      	ldr	r3, [r7, #4]
    1f42:	4618      	mov	r0, r3
    1f44:	f7ff ff2a 	bl	1d9c <event_wait_count>
    1f48:	4602      	mov	r2, r0
    1f4a:	683b      	ldr	r3, [r7, #0]
    1f4c:	609a      	str	r2, [r3, #8]
    1f4e:	68f8      	ldr	r0, [r7, #12]
    1f50:	f7ff f9e8 	bl	1324 <task_exit_critical>
    1f54:	3710      	adds	r7, #16
    1f56:	46bd      	mov	sp, r7
    1f58:	bd80      	pop	{r7, pc}
    1f5a:	bf00      	nop

00001f5c <sem_destory>:
    1f5c:	b580      	push	{r7, lr}
    1f5e:	b084      	sub	sp, #16
    1f60:	af00      	add	r7, sp, #0
    1f62:	6078      	str	r0, [r7, #4]
    1f64:	f7ff f9d0 	bl	1308 <task_enter_critical>
    1f68:	60f8      	str	r0, [r7, #12]
    1f6a:	687b      	ldr	r3, [r7, #4]
    1f6c:	4618      	mov	r0, r3
    1f6e:	2100      	movs	r1, #0
    1f70:	2202      	movs	r2, #2
    1f72:	f7ff fec5 	bl	1d00 <event_remove_all>
    1f76:	60b8      	str	r0, [r7, #8]
    1f78:	687b      	ldr	r3, [r7, #4]
    1f7a:	2200      	movs	r2, #0
    1f7c:	611a      	str	r2, [r3, #16]
    1f7e:	68f8      	ldr	r0, [r7, #12]
    1f80:	f7ff f9d0 	bl	1324 <task_exit_critical>
    1f84:	68bb      	ldr	r3, [r7, #8]
    1f86:	2b00      	cmp	r3, #0
    1f88:	d001      	beq.n	1f8e <sem_destory+0x32>
    1f8a:	f7ff f88d 	bl	10a8 <task_sched>
    1f8e:	68bb      	ldr	r3, [r7, #8]
    1f90:	4618      	mov	r0, r3
    1f92:	3710      	adds	r7, #16
    1f94:	46bd      	mov	sp, r7
    1f96:	bd80      	pop	{r7, pc}

00001f98 <mbox_init>:
    1f98:	b580      	push	{r7, lr}
    1f9a:	b084      	sub	sp, #16
    1f9c:	af00      	add	r7, sp, #0
    1f9e:	60f8      	str	r0, [r7, #12]
    1fa0:	60b9      	str	r1, [r7, #8]
    1fa2:	607a      	str	r2, [r7, #4]
    1fa4:	68fb      	ldr	r3, [r7, #12]
    1fa6:	4618      	mov	r0, r3
    1fa8:	2102      	movs	r1, #2
    1faa:	f7ff fe09 	bl	1bc0 <event_init>
    1fae:	68fb      	ldr	r3, [r7, #12]
    1fb0:	68ba      	ldr	r2, [r7, #8]
    1fb2:	621a      	str	r2, [r3, #32]
    1fb4:	68fb      	ldr	r3, [r7, #12]
    1fb6:	687a      	ldr	r2, [r7, #4]
    1fb8:	61da      	str	r2, [r3, #28]
    1fba:	68fb      	ldr	r3, [r7, #12]
    1fbc:	2200      	movs	r2, #0
    1fbe:	615a      	str	r2, [r3, #20]
    1fc0:	68fb      	ldr	r3, [r7, #12]
    1fc2:	2200      	movs	r2, #0
    1fc4:	619a      	str	r2, [r3, #24]
    1fc6:	68fb      	ldr	r3, [r7, #12]
    1fc8:	2200      	movs	r2, #0
    1fca:	611a      	str	r2, [r3, #16]
    1fcc:	3710      	adds	r7, #16
    1fce:	46bd      	mov	sp, r7
    1fd0:	bd80      	pop	{r7, pc}
    1fd2:	bf00      	nop

00001fd4 <mbox_get>:
    1fd4:	b580      	push	{r7, lr}
    1fd6:	b088      	sub	sp, #32
    1fd8:	af02      	add	r7, sp, #8
    1fda:	60f8      	str	r0, [r7, #12]
    1fdc:	60b9      	str	r1, [r7, #8]
    1fde:	607a      	str	r2, [r7, #4]
    1fe0:	f7ff f992 	bl	1308 <task_enter_critical>
    1fe4:	6178      	str	r0, [r7, #20]
    1fe6:	68fb      	ldr	r3, [r7, #12]
    1fe8:	691b      	ldr	r3, [r3, #16]
    1fea:	2b00      	cmp	r3, #0
    1fec:	d01e      	beq.n	202c <mbox_get+0x58>
    1fee:	68fb      	ldr	r3, [r7, #12]
    1ff0:	691b      	ldr	r3, [r3, #16]
    1ff2:	1e5a      	subs	r2, r3, #1
    1ff4:	68fb      	ldr	r3, [r7, #12]
    1ff6:	611a      	str	r2, [r3, #16]
    1ff8:	68fb      	ldr	r3, [r7, #12]
    1ffa:	6a1a      	ldr	r2, [r3, #32]
    1ffc:	68fb      	ldr	r3, [r7, #12]
    1ffe:	695b      	ldr	r3, [r3, #20]
    2000:	1c58      	adds	r0, r3, #1
    2002:	68f9      	ldr	r1, [r7, #12]
    2004:	6148      	str	r0, [r1, #20]
    2006:	009b      	lsls	r3, r3, #2
    2008:	4413      	add	r3, r2
    200a:	681a      	ldr	r2, [r3, #0]
    200c:	68bb      	ldr	r3, [r7, #8]
    200e:	601a      	str	r2, [r3, #0]
    2010:	68fb      	ldr	r3, [r7, #12]
    2012:	695a      	ldr	r2, [r3, #20]
    2014:	68fb      	ldr	r3, [r7, #12]
    2016:	69db      	ldr	r3, [r3, #28]
    2018:	429a      	cmp	r2, r3
    201a:	d302      	bcc.n	2022 <mbox_get+0x4e>
    201c:	68fb      	ldr	r3, [r7, #12]
    201e:	2200      	movs	r2, #0
    2020:	615a      	str	r2, [r3, #20]
    2022:	6978      	ldr	r0, [r7, #20]
    2024:	f7ff f97e 	bl	1324 <task_exit_critical>
    2028:	2300      	movs	r3, #0
    202a:	e017      	b.n	205c <mbox_get+0x88>
    202c:	68f9      	ldr	r1, [r7, #12]
    202e:	4b0d      	ldr	r3, [pc, #52]	; (2064 <mbox_get+0x90>)
    2030:	681a      	ldr	r2, [r3, #0]
    2032:	687b      	ldr	r3, [r7, #4]
    2034:	9300      	str	r3, [sp, #0]
    2036:	4608      	mov	r0, r1
    2038:	4611      	mov	r1, r2
    203a:	2200      	movs	r2, #0
    203c:	2302      	movs	r3, #2
    203e:	f7ff fdd1 	bl	1be4 <event_wait>
    2042:	6978      	ldr	r0, [r7, #20]
    2044:	f7ff f96e 	bl	1324 <task_exit_critical>
    2048:	f7ff f82e 	bl	10a8 <task_sched>
    204c:	4b05      	ldr	r3, [pc, #20]	; (2064 <mbox_get+0x90>)
    204e:	681b      	ldr	r3, [r3, #0]
    2050:	6b9a      	ldr	r2, [r3, #56]	; 0x38
    2052:	68bb      	ldr	r3, [r7, #8]
    2054:	601a      	str	r2, [r3, #0]
    2056:	4b03      	ldr	r3, [pc, #12]	; (2064 <mbox_get+0x90>)
    2058:	681b      	ldr	r3, [r3, #0]
    205a:	6bdb      	ldr	r3, [r3, #60]	; 0x3c
    205c:	4618      	mov	r0, r3
    205e:	3718      	adds	r7, #24
    2060:	46bd      	mov	sp, r7
    2062:	bd80      	pop	{r7, pc}
    2064:	20005954 	andcs	r5, r0, r4, asr r9

00002068 <mbox_get_no_wait>:
    2068:	b580      	push	{r7, lr}
    206a:	b084      	sub	sp, #16
    206c:	af00      	add	r7, sp, #0
    206e:	6078      	str	r0, [r7, #4]
    2070:	6039      	str	r1, [r7, #0]
    2072:	f7ff f949 	bl	1308 <task_enter_critical>
    2076:	60f8      	str	r0, [r7, #12]
    2078:	687b      	ldr	r3, [r7, #4]
    207a:	691b      	ldr	r3, [r3, #16]
    207c:	2b00      	cmp	r3, #0
    207e:	d01e      	beq.n	20be <mbox_get_no_wait+0x56>
    2080:	687b      	ldr	r3, [r7, #4]
    2082:	691b      	ldr	r3, [r3, #16]
    2084:	1e5a      	subs	r2, r3, #1
    2086:	687b      	ldr	r3, [r7, #4]
    2088:	611a      	str	r2, [r3, #16]
    208a:	687b      	ldr	r3, [r7, #4]
    208c:	6a1a      	ldr	r2, [r3, #32]
    208e:	687b      	ldr	r3, [r7, #4]
    2090:	695b      	ldr	r3, [r3, #20]
    2092:	1c58      	adds	r0, r3, #1
    2094:	6879      	ldr	r1, [r7, #4]
    2096:	6148      	str	r0, [r1, #20]
    2098:	009b      	lsls	r3, r3, #2
    209a:	4413      	add	r3, r2
    209c:	681a      	ldr	r2, [r3, #0]
    209e:	683b      	ldr	r3, [r7, #0]
    20a0:	601a      	str	r2, [r3, #0]
    20a2:	687b      	ldr	r3, [r7, #4]
    20a4:	695a      	ldr	r2, [r3, #20]
    20a6:	687b      	ldr	r3, [r7, #4]
    20a8:	69db      	ldr	r3, [r3, #28]
    20aa:	429a      	cmp	r2, r3
    20ac:	d302      	bcc.n	20b4 <mbox_get_no_wait+0x4c>
    20ae:	687b      	ldr	r3, [r7, #4]
    20b0:	2200      	movs	r2, #0
    20b2:	615a      	str	r2, [r3, #20]
    20b4:	68f8      	ldr	r0, [r7, #12]
    20b6:	f7ff f935 	bl	1324 <task_exit_critical>
    20ba:	2300      	movs	r3, #0
    20bc:	e005      	b.n	20ca <mbox_get_no_wait+0x62>
    20be:	68f8      	ldr	r0, [r7, #12]
    20c0:	f7ff f930 	bl	1324 <task_exit_critical>
    20c4:	4b03      	ldr	r3, [pc, #12]	; (20d4 <mbox_get_no_wait+0x6c>)
    20c6:	681b      	ldr	r3, [r3, #0]
    20c8:	6bdb      	ldr	r3, [r3, #60]	; 0x3c
    20ca:	4618      	mov	r0, r3
    20cc:	3710      	adds	r7, #16
    20ce:	46bd      	mov	sp, r7
    20d0:	bd80      	pop	{r7, pc}
    20d2:	bf00      	nop
    20d4:	20005954 	andcs	r5, r0, r4, asr r9

000020d8 <mbox_send>:
    20d8:	b580      	push	{r7, lr}
    20da:	b086      	sub	sp, #24
    20dc:	af00      	add	r7, sp, #0
    20de:	60f8      	str	r0, [r7, #12]
    20e0:	60b9      	str	r1, [r7, #8]
    20e2:	607a      	str	r2, [r7, #4]
    20e4:	f7ff f910 	bl	1308 <task_enter_critical>
    20e8:	6178      	str	r0, [r7, #20]
    20ea:	2300      	movs	r3, #0
    20ec:	613b      	str	r3, [r7, #16]
    20ee:	68fb      	ldr	r3, [r7, #12]
    20f0:	4618      	mov	r0, r3
    20f2:	f7ff fe53 	bl	1d9c <event_wait_count>
    20f6:	4603      	mov	r3, r0
    20f8:	2b00      	cmp	r3, #0
    20fa:	d010      	beq.n	211e <mbox_send+0x46>
    20fc:	68fb      	ldr	r3, [r7, #12]
    20fe:	4618      	mov	r0, r3
    2100:	68b9      	ldr	r1, [r7, #8]
    2102:	2200      	movs	r2, #0
    2104:	f7ff fd9c 	bl	1c40 <event_wakeup>
    2108:	6138      	str	r0, [r7, #16]
    210a:	693b      	ldr	r3, [r7, #16]
    210c:	689a      	ldr	r2, [r3, #8]
    210e:	4b28      	ldr	r3, [pc, #160]	; (21b0 <mbox_send+0xd8>)
    2110:	681b      	ldr	r3, [r3, #0]
    2112:	689b      	ldr	r3, [r3, #8]
    2114:	429a      	cmp	r2, r3
    2116:	d243      	bcs.n	21a0 <mbox_send+0xc8>
    2118:	f7fe ffc6 	bl	10a8 <task_sched>
    211c:	e040      	b.n	21a0 <mbox_send+0xc8>
    211e:	68fb      	ldr	r3, [r7, #12]
    2120:	691a      	ldr	r2, [r3, #16]
    2122:	68fb      	ldr	r3, [r7, #12]
    2124:	69db      	ldr	r3, [r3, #28]
    2126:	429a      	cmp	r2, r3
    2128:	d304      	bcc.n	2134 <mbox_send+0x5c>
    212a:	6978      	ldr	r0, [r7, #20]
    212c:	f7ff f8fa 	bl	1324 <task_exit_critical>
    2130:	2303      	movs	r3, #3
    2132:	e039      	b.n	21a8 <mbox_send+0xd0>
    2134:	687a      	ldr	r2, [r7, #4]
    2136:	4b1f      	ldr	r3, [pc, #124]	; (21b4 <mbox_send+0xdc>)
    2138:	4013      	ands	r3, r2
    213a:	2b00      	cmp	r3, #0
    213c:	d017      	beq.n	216e <mbox_send+0x96>
    213e:	68fb      	ldr	r3, [r7, #12]
    2140:	695b      	ldr	r3, [r3, #20]
    2142:	2b00      	cmp	r3, #0
    2144:	d105      	bne.n	2152 <mbox_send+0x7a>
    2146:	68fb      	ldr	r3, [r7, #12]
    2148:	69db      	ldr	r3, [r3, #28]
    214a:	1e5a      	subs	r2, r3, #1
    214c:	68fb      	ldr	r3, [r7, #12]
    214e:	615a      	str	r2, [r3, #20]
    2150:	e004      	b.n	215c <mbox_send+0x84>
    2152:	68fb      	ldr	r3, [r7, #12]
    2154:	695b      	ldr	r3, [r3, #20]
    2156:	1e5a      	subs	r2, r3, #1
    2158:	68fb      	ldr	r3, [r7, #12]
    215a:	615a      	str	r2, [r3, #20]
    215c:	68fb      	ldr	r3, [r7, #12]
    215e:	6a1a      	ldr	r2, [r3, #32]
    2160:	68fb      	ldr	r3, [r7, #12]
    2162:	695b      	ldr	r3, [r3, #20]
    2164:	009b      	lsls	r3, r3, #2
    2166:	4413      	add	r3, r2
    2168:	68ba      	ldr	r2, [r7, #8]
    216a:	601a      	str	r2, [r3, #0]
    216c:	e013      	b.n	2196 <mbox_send+0xbe>
    216e:	68fb      	ldr	r3, [r7, #12]
    2170:	6a1a      	ldr	r2, [r3, #32]
    2172:	68fb      	ldr	r3, [r7, #12]
    2174:	699b      	ldr	r3, [r3, #24]
    2176:	1c58      	adds	r0, r3, #1
    2178:	68f9      	ldr	r1, [r7, #12]
    217a:	6188      	str	r0, [r1, #24]
    217c:	009b      	lsls	r3, r3, #2
    217e:	4413      	add	r3, r2
    2180:	68ba      	ldr	r2, [r7, #8]
    2182:	601a      	str	r2, [r3, #0]
    2184:	68fb      	ldr	r3, [r7, #12]
    2186:	699a      	ldr	r2, [r3, #24]
    2188:	68fb      	ldr	r3, [r7, #12]
    218a:	69db      	ldr	r3, [r3, #28]
    218c:	429a      	cmp	r2, r3
    218e:	d302      	bcc.n	2196 <mbox_send+0xbe>
    2190:	68fb      	ldr	r3, [r7, #12]
    2192:	2200      	movs	r2, #0
    2194:	619a      	str	r2, [r3, #24]
    2196:	68fb      	ldr	r3, [r7, #12]
    2198:	691b      	ldr	r3, [r3, #16]
    219a:	1c5a      	adds	r2, r3, #1
    219c:	68fb      	ldr	r3, [r7, #12]
    219e:	611a      	str	r2, [r3, #16]
    21a0:	6978      	ldr	r0, [r7, #20]
    21a2:	f7ff f8bf 	bl	1324 <task_exit_critical>
    21a6:	2300      	movs	r3, #0
    21a8:	4618      	mov	r0, r3
    21aa:	3718      	adds	r7, #24
    21ac:	46bd      	mov	sp, r7
    21ae:	bd80      	pop	{r7, pc}
    21b0:	20005954 	andcs	r5, r0, r4, asr r9
    21b4:	12345678 	eorsne	r5, r4, #120, 12	; 0x7800000

000021b8 <mbox_flush>:
    21b8:	b580      	push	{r7, lr}
    21ba:	b084      	sub	sp, #16
    21bc:	af00      	add	r7, sp, #0
    21be:	6078      	str	r0, [r7, #4]
    21c0:	f7ff f8a2 	bl	1308 <task_enter_critical>
    21c4:	60f8      	str	r0, [r7, #12]
    21c6:	687b      	ldr	r3, [r7, #4]
    21c8:	4618      	mov	r0, r3
    21ca:	f7ff fde7 	bl	1d9c <event_wait_count>
    21ce:	4603      	mov	r3, r0
    21d0:	2b00      	cmp	r3, #0
    21d2:	d108      	bne.n	21e6 <mbox_flush+0x2e>
    21d4:	687b      	ldr	r3, [r7, #4]
    21d6:	2200      	movs	r2, #0
    21d8:	615a      	str	r2, [r3, #20]
    21da:	687b      	ldr	r3, [r7, #4]
    21dc:	2200      	movs	r2, #0
    21de:	619a      	str	r2, [r3, #24]
    21e0:	687b      	ldr	r3, [r7, #4]
    21e2:	2200      	movs	r2, #0
    21e4:	611a      	str	r2, [r3, #16]
    21e6:	68f8      	ldr	r0, [r7, #12]
    21e8:	f7ff f89c 	bl	1324 <task_exit_critical>
    21ec:	3710      	adds	r7, #16
    21ee:	46bd      	mov	sp, r7
    21f0:	bd80      	pop	{r7, pc}
    21f2:	bf00      	nop

000021f4 <mbox_destory>:
    21f4:	b580      	push	{r7, lr}
    21f6:	b084      	sub	sp, #16
    21f8:	af00      	add	r7, sp, #0
    21fa:	6078      	str	r0, [r7, #4]
    21fc:	f7ff f884 	bl	1308 <task_enter_critical>
    2200:	60f8      	str	r0, [r7, #12]
    2202:	687b      	ldr	r3, [r7, #4]
    2204:	4618      	mov	r0, r3
    2206:	2100      	movs	r1, #0
    2208:	2202      	movs	r2, #2
    220a:	f7ff fd79 	bl	1d00 <event_remove_all>
    220e:	60b8      	str	r0, [r7, #8]
    2210:	68f8      	ldr	r0, [r7, #12]
    2212:	f7ff f887 	bl	1324 <task_exit_critical>
    2216:	68bb      	ldr	r3, [r7, #8]
    2218:	2b00      	cmp	r3, #0
    221a:	d001      	beq.n	2220 <mbox_destory+0x2c>
    221c:	f7fe ff44 	bl	10a8 <task_sched>
    2220:	68bb      	ldr	r3, [r7, #8]
    2222:	4618      	mov	r0, r3
    2224:	3710      	adds	r7, #16
    2226:	46bd      	mov	sp, r7
    2228:	bd80      	pop	{r7, pc}
    222a:	bf00      	nop

0000222c <mbox_get_info>:
    222c:	b580      	push	{r7, lr}
    222e:	b084      	sub	sp, #16
    2230:	af00      	add	r7, sp, #0
    2232:	6078      	str	r0, [r7, #4]
    2234:	6039      	str	r1, [r7, #0]
    2236:	f7ff f867 	bl	1308 <task_enter_critical>
    223a:	60f8      	str	r0, [r7, #12]
    223c:	687b      	ldr	r3, [r7, #4]
    223e:	691a      	ldr	r2, [r3, #16]
    2240:	683b      	ldr	r3, [r7, #0]
    2242:	601a      	str	r2, [r3, #0]
    2244:	687b      	ldr	r3, [r7, #4]
    2246:	69da      	ldr	r2, [r3, #28]
    2248:	683b      	ldr	r3, [r7, #0]
    224a:	605a      	str	r2, [r3, #4]
    224c:	687b      	ldr	r3, [r7, #4]
    224e:	4618      	mov	r0, r3
    2250:	f7ff fda4 	bl	1d9c <event_wait_count>
    2254:	4602      	mov	r2, r0
    2256:	683b      	ldr	r3, [r7, #0]
    2258:	609a      	str	r2, [r3, #8]
    225a:	68f8      	ldr	r0, [r7, #12]
    225c:	f7ff f862 	bl	1324 <task_exit_critical>
    2260:	3710      	adds	r7, #16
    2262:	46bd      	mov	sp, r7
    2264:	bd80      	pop	{r7, pc}
    2266:	bf00      	nop

00002268 <mem_block_init>:
    2268:	b580      	push	{r7, lr}
    226a:	b086      	sub	sp, #24
    226c:	af00      	add	r7, sp, #0
    226e:	60f8      	str	r0, [r7, #12]
    2270:	60b9      	str	r1, [r7, #8]
    2272:	607a      	str	r2, [r7, #4]
    2274:	603b      	str	r3, [r7, #0]
    2276:	68bb      	ldr	r3, [r7, #8]
    2278:	617b      	str	r3, [r7, #20]
    227a:	687b      	ldr	r3, [r7, #4]
    227c:	683a      	ldr	r2, [r7, #0]
    227e:	fb02 f303 	mul.w	r3, r2, r3
    2282:	697a      	ldr	r2, [r7, #20]
    2284:	4413      	add	r3, r2
    2286:	613b      	str	r3, [r7, #16]
    2288:	687b      	ldr	r3, [r7, #4]
    228a:	2b07      	cmp	r3, #7
    228c:	d800      	bhi.n	2290 <mem_block_init+0x28>
    228e:	e024      	b.n	22da <mem_block_init+0x72>
    2290:	68fb      	ldr	r3, [r7, #12]
    2292:	4618      	mov	r0, r3
    2294:	2103      	movs	r1, #3
    2296:	f7ff fc93 	bl	1bc0 <event_init>
    229a:	68fb      	ldr	r3, [r7, #12]
    229c:	68ba      	ldr	r2, [r7, #8]
    229e:	611a      	str	r2, [r3, #16]
    22a0:	68fb      	ldr	r3, [r7, #12]
    22a2:	687a      	ldr	r2, [r7, #4]
    22a4:	615a      	str	r2, [r3, #20]
    22a6:	68fb      	ldr	r3, [r7, #12]
    22a8:	683a      	ldr	r2, [r7, #0]
    22aa:	619a      	str	r2, [r3, #24]
    22ac:	68fb      	ldr	r3, [r7, #12]
    22ae:	331c      	adds	r3, #28
    22b0:	4618      	mov	r0, r3
    22b2:	f7ff fb1b 	bl	18ec <list_init>
    22b6:	e00c      	b.n	22d2 <mem_block_init+0x6a>
    22b8:	6978      	ldr	r0, [r7, #20]
    22ba:	f7ff fb05 	bl	18c8 <list_node_init>
    22be:	68fb      	ldr	r3, [r7, #12]
    22c0:	331c      	adds	r3, #28
    22c2:	4618      	mov	r0, r3
    22c4:	6979      	ldr	r1, [r7, #20]
    22c6:	f7ff fbed 	bl	1aa4 <list_append_last>
    22ca:	697a      	ldr	r2, [r7, #20]
    22cc:	687b      	ldr	r3, [r7, #4]
    22ce:	4413      	add	r3, r2
    22d0:	617b      	str	r3, [r7, #20]
    22d2:	697a      	ldr	r2, [r7, #20]
    22d4:	693b      	ldr	r3, [r7, #16]
    22d6:	429a      	cmp	r2, r3
    22d8:	d3ee      	bcc.n	22b8 <mem_block_init+0x50>
    22da:	bf00      	nop
    22dc:	3718      	adds	r7, #24
    22de:	46bd      	mov	sp, r7
    22e0:	bd80      	pop	{r7, pc}
    22e2:	bf00      	nop

000022e4 <mem_block_alloc>:
    22e4:	b580      	push	{r7, lr}
    22e6:	b088      	sub	sp, #32
    22e8:	af02      	add	r7, sp, #8
    22ea:	60f8      	str	r0, [r7, #12]
    22ec:	60b9      	str	r1, [r7, #8]
    22ee:	607a      	str	r2, [r7, #4]
    22f0:	f7ff f80a 	bl	1308 <task_enter_critical>
    22f4:	6178      	str	r0, [r7, #20]
    22f6:	68fb      	ldr	r3, [r7, #12]
    22f8:	331c      	adds	r3, #28
    22fa:	4618      	mov	r0, r3
    22fc:	f7ff fb08 	bl	1910 <list_count>
    2300:	4603      	mov	r3, r0
    2302:	2b00      	cmp	r3, #0
    2304:	d00c      	beq.n	2320 <mem_block_alloc+0x3c>
    2306:	68fb      	ldr	r3, [r7, #12]
    2308:	331c      	adds	r3, #28
    230a:	4618      	mov	r0, r3
    230c:	f7ff fbf4 	bl	1af8 <list_remove_first>
    2310:	4602      	mov	r2, r0
    2312:	68bb      	ldr	r3, [r7, #8]
    2314:	601a      	str	r2, [r3, #0]
    2316:	6978      	ldr	r0, [r7, #20]
    2318:	f7ff f804 	bl	1324 <task_exit_critical>
    231c:	2300      	movs	r3, #0
    231e:	e017      	b.n	2350 <mem_block_alloc+0x6c>
    2320:	68f9      	ldr	r1, [r7, #12]
    2322:	4b0d      	ldr	r3, [pc, #52]	; (2358 <mem_block_alloc+0x74>)
    2324:	681a      	ldr	r2, [r3, #0]
    2326:	687b      	ldr	r3, [r7, #4]
    2328:	9300      	str	r3, [sp, #0]
    232a:	4608      	mov	r0, r1
    232c:	4611      	mov	r1, r2
    232e:	2200      	movs	r2, #0
    2330:	2303      	movs	r3, #3
    2332:	f7ff fc57 	bl	1be4 <event_wait>
    2336:	6978      	ldr	r0, [r7, #20]
    2338:	f7fe fff4 	bl	1324 <task_exit_critical>
    233c:	f7fe feb4 	bl	10a8 <task_sched>
    2340:	4b05      	ldr	r3, [pc, #20]	; (2358 <mem_block_alloc+0x74>)
    2342:	681b      	ldr	r3, [r3, #0]
    2344:	6b9a      	ldr	r2, [r3, #56]	; 0x38
    2346:	68bb      	ldr	r3, [r7, #8]
    2348:	601a      	str	r2, [r3, #0]
    234a:	4b03      	ldr	r3, [pc, #12]	; (2358 <mem_block_alloc+0x74>)
    234c:	681b      	ldr	r3, [r3, #0]
    234e:	6bdb      	ldr	r3, [r3, #60]	; 0x3c
    2350:	4618      	mov	r0, r3
    2352:	3718      	adds	r7, #24
    2354:	46bd      	mov	sp, r7
    2356:	bd80      	pop	{r7, pc}
    2358:	20005954 	andcs	r5, r0, r4, asr r9

0000235c <mem_block_alloc_no_wait>:
    235c:	b580      	push	{r7, lr}
    235e:	b084      	sub	sp, #16
    2360:	af00      	add	r7, sp, #0
    2362:	6078      	str	r0, [r7, #4]
    2364:	6039      	str	r1, [r7, #0]
    2366:	f7fe ffcf 	bl	1308 <task_enter_critical>
    236a:	60f8      	str	r0, [r7, #12]
    236c:	687b      	ldr	r3, [r7, #4]
    236e:	331c      	adds	r3, #28
    2370:	4618      	mov	r0, r3
    2372:	f7ff facd 	bl	1910 <list_count>
    2376:	4603      	mov	r3, r0
    2378:	2b00      	cmp	r3, #0
    237a:	d00c      	beq.n	2396 <mem_block_alloc_no_wait+0x3a>
    237c:	687b      	ldr	r3, [r7, #4]
    237e:	331c      	adds	r3, #28
    2380:	4618      	mov	r0, r3
    2382:	f7ff fbb9 	bl	1af8 <list_remove_first>
    2386:	4602      	mov	r2, r0
    2388:	683b      	ldr	r3, [r7, #0]
    238a:	601a      	str	r2, [r3, #0]
    238c:	68f8      	ldr	r0, [r7, #12]
    238e:	f7fe ffc9 	bl	1324 <task_exit_critical>
    2392:	2300      	movs	r3, #0
    2394:	e003      	b.n	239e <mem_block_alloc_no_wait+0x42>
    2396:	68f8      	ldr	r0, [r7, #12]
    2398:	f7fe ffc4 	bl	1324 <task_exit_critical>
    239c:	2303      	movs	r3, #3
    239e:	4618      	mov	r0, r3
    23a0:	3710      	adds	r7, #16
    23a2:	46bd      	mov	sp, r7
    23a4:	bd80      	pop	{r7, pc}
    23a6:	bf00      	nop

000023a8 <mem_block_free>:
    23a8:	b580      	push	{r7, lr}
    23aa:	b084      	sub	sp, #16
    23ac:	af00      	add	r7, sp, #0
    23ae:	6078      	str	r0, [r7, #4]
    23b0:	6039      	str	r1, [r7, #0]
    23b2:	f7fe ffa9 	bl	1308 <task_enter_critical>
    23b6:	60f8      	str	r0, [r7, #12]
    23b8:	687b      	ldr	r3, [r7, #4]
    23ba:	4618      	mov	r0, r3
    23bc:	f7ff fcee 	bl	1d9c <event_wait_count>
    23c0:	4603      	mov	r3, r0
    23c2:	2b00      	cmp	r3, #0
    23c4:	d011      	beq.n	23ea <mem_block_free+0x42>
    23c6:	687b      	ldr	r3, [r7, #4]
    23c8:	4618      	mov	r0, r3
    23ca:	6839      	ldr	r1, [r7, #0]
    23cc:	2200      	movs	r2, #0
    23ce:	f7ff fc37 	bl	1c40 <event_wakeup>
    23d2:	60b8      	str	r0, [r7, #8]
    23d4:	68bb      	ldr	r3, [r7, #8]
    23d6:	689a      	ldr	r2, [r3, #8]
    23d8:	4b0a      	ldr	r3, [pc, #40]	; (2404 <mem_block_free+0x5c>)
    23da:	681b      	ldr	r3, [r3, #0]
    23dc:	689b      	ldr	r3, [r3, #8]
    23de:	429a      	cmp	r2, r3
    23e0:	d902      	bls.n	23e8 <mem_block_free+0x40>
    23e2:	f7fe fe61 	bl	10a8 <task_sched>
    23e6:	e006      	b.n	23f6 <mem_block_free+0x4e>
    23e8:	e005      	b.n	23f6 <mem_block_free+0x4e>
    23ea:	687b      	ldr	r3, [r7, #4]
    23ec:	331c      	adds	r3, #28
    23ee:	4618      	mov	r0, r3
    23f0:	6839      	ldr	r1, [r7, #0]
    23f2:	f7ff fb57 	bl	1aa4 <list_append_last>
    23f6:	68f8      	ldr	r0, [r7, #12]
    23f8:	f7fe ff94 	bl	1324 <task_exit_critical>
    23fc:	3710      	adds	r7, #16
    23fe:	46bd      	mov	sp, r7
    2400:	bd80      	pop	{r7, pc}
    2402:	bf00      	nop
    2404:	20005954 	andcs	r5, r0, r4, asr r9

00002408 <mem_block_get_info>:
    2408:	b580      	push	{r7, lr}
    240a:	b084      	sub	sp, #16
    240c:	af00      	add	r7, sp, #0
    240e:	6078      	str	r0, [r7, #4]
    2410:	6039      	str	r1, [r7, #0]
    2412:	f7fe ff79 	bl	1308 <task_enter_critical>
    2416:	60f8      	str	r0, [r7, #12]
    2418:	687b      	ldr	r3, [r7, #4]
    241a:	331c      	adds	r3, #28
    241c:	4618      	mov	r0, r3
    241e:	f7ff fa77 	bl	1910 <list_count>
    2422:	4602      	mov	r2, r0
    2424:	683b      	ldr	r3, [r7, #0]
    2426:	601a      	str	r2, [r3, #0]
    2428:	687b      	ldr	r3, [r7, #4]
    242a:	699a      	ldr	r2, [r3, #24]
    242c:	683b      	ldr	r3, [r7, #0]
    242e:	605a      	str	r2, [r3, #4]
    2430:	687b      	ldr	r3, [r7, #4]
    2432:	695a      	ldr	r2, [r3, #20]
    2434:	683b      	ldr	r3, [r7, #0]
    2436:	609a      	str	r2, [r3, #8]
    2438:	687b      	ldr	r3, [r7, #4]
    243a:	4618      	mov	r0, r3
    243c:	f7ff fcae 	bl	1d9c <event_wait_count>
    2440:	4602      	mov	r2, r0
    2442:	683b      	ldr	r3, [r7, #0]
    2444:	60da      	str	r2, [r3, #12]
    2446:	68f8      	ldr	r0, [r7, #12]
    2448:	f7fe ff6c 	bl	1324 <task_exit_critical>
    244c:	3710      	adds	r7, #16
    244e:	46bd      	mov	sp, r7
    2450:	bd80      	pop	{r7, pc}
    2452:	bf00      	nop

00002454 <mem_block_destory>:
    2454:	b580      	push	{r7, lr}
    2456:	b084      	sub	sp, #16
    2458:	af00      	add	r7, sp, #0
    245a:	6078      	str	r0, [r7, #4]
    245c:	f7fe ff54 	bl	1308 <task_enter_critical>
    2460:	60f8      	str	r0, [r7, #12]
    2462:	687b      	ldr	r3, [r7, #4]
    2464:	4618      	mov	r0, r3
    2466:	2100      	movs	r1, #0
    2468:	2202      	movs	r2, #2
    246a:	f7ff fc49 	bl	1d00 <event_remove_all>
    246e:	60b8      	str	r0, [r7, #8]
    2470:	68f8      	ldr	r0, [r7, #12]
    2472:	f7fe ff57 	bl	1324 <task_exit_critical>
    2476:	68bb      	ldr	r3, [r7, #8]
    2478:	2b00      	cmp	r3, #0
    247a:	d001      	beq.n	2480 <mem_block_destory+0x2c>
    247c:	f7fe fe14 	bl	10a8 <task_sched>
    2480:	68bb      	ldr	r3, [r7, #8]
    2482:	4618      	mov	r0, r3
    2484:	3710      	adds	r7, #16
    2486:	46bd      	mov	sp, r7
    2488:	bd80      	pop	{r7, pc}
    248a:	bf00      	nop
    248c:	44746e49 	ldrbtmi	r6, [r4], #-3657	; 0xfffff1b7
    2490:	75616665 	strbvc	r6, [r1, #-1637]!	; 0xfffff99b
    2494:	6148746c 	cmpvs	r8, ip, ror #8
    2498:	656c646e 	strbvs	r6, [ip, #-1134]!	; 0xfffffb92
    249c:	00000a72 	andeq	r0, r0, r2, ror sl
    24a0:	233a7325 	teqcs	sl, #-1811939328	; 0x94000000
    24a4:	23232323 			; <UNDEFINED> instruction: 0x23232323
    24a8:	00000a31 	andeq	r0, r0, r1, lsr sl
    24ac:	233a7325 	teqcs	sl, #-1811939328	; 0x94000000
    24b0:	23232323 			; <UNDEFINED> instruction: 0x23232323
    24b4:	00000a32 	andeq	r0, r0, r2, lsr sl
    24b8:	000a7325 	andeq	r7, sl, r5, lsr #6
    24bc:	253a7325 	ldrcs	r7, [sl, #-805]!	; 0xfffffcdb
    24c0:	00000a78 	andeq	r0, r0, r8, ror sl
    24c4:	6c6c6548 	cfstr64vs	mvdx6, [ip], #-288	; 0xfffffee0
    24c8:	5452206f 	ldrbpl	r2, [r2], #-111	; 0xffffff91
    24cc:	4320534f 			; <UNDEFINED> instruction: 0x4320534f
    24d0:	445f3330 	ldrbmi	r3, [pc], #-816	; 24d8 <mem_block_destory+0x84>
    24d4:	79616c65 	stmdbvc	r1!, {r0, r2, r5, r6, sl, fp, sp, lr}^
    24d8:	73694c5f 	cmnvc	r9, #24320	; 0x5f00
    24dc:	00000a74 	andeq	r0, r0, r4, ror sl
    24e0:	3a707370 	bcc	1c1f2a8 <_etext+0x1c1cbaf>
    24e4:	78257830 	stmdavc	r5!, {r4, r5, fp, ip, sp, lr}
    24e8:	0000000a 	andeq	r0, r0, sl
    24ec:	3a70736d 	bcc	1c1f2a8 <_etext+0x1c1cbaf>
    24f0:	78257830 	stmdavc	r5!, {r4, r5, fp, ip, sp, lr}
    24f4:	0000000a 	andeq	r0, r0, sl

000024f8 <__func__.3972>:
    24f8:	6b736174 	blvs	1cdaad0 <_etext+0x1cd83d7>
    24fc:	6e655f31 	mcrvs	15, 3, r5, cr5, cr1, {1}
    2500:	00797274 	rsbseq	r7, r9, r4, ror r2

00002504 <__func__.3984>:
    2504:	6b736174 	blvs	1cdaadc <_etext+0x1cd83e3>
    2508:	6e655f32 	mcrvs	15, 3, r5, cr5, cr2, {1}
    250c:	00797274 	rsbseq	r7, r9, r4, ror r2

00002510 <__func__.3989>:
    2510:	6b736174 	blvs	1cdaae8 <_etext+0x1cd83ef>
    2514:	6e655f33 	mcrvs	15, 3, r5, cr5, cr3, {1}
    2518:	00797274 	rsbseq	r7, r9, r4, ror r2

0000251c <__func__.3994>:
    251c:	6b736174 	blvs	1cdaaf4 <_etext+0x1cd83fb>
    2520:	6e655f34 	mcrvs	15, 3, r5, cr5, cr4, {1}
    2524:	00797274 	rsbseq	r7, r9, r4, ror r2

00002528 <UART0DR>:
    2528:	4000c000 	andmi	ip, r0, r0

0000252c <hex_asc_table>:
    252c:	33323130 	teqcc	r2, #48, 2
    2530:	37363534 			; <UNDEFINED> instruction: 0x37363534
    2534:	62613938 	rsbvs	r3, r1, #56, 18	; 0xe0000
    2538:	66656463 	strbtvs	r6, [r5], -r3, ror #8

0000253c <upper_hex_asc_table>:
    253c:	33323130 	teqcc	r2, #48, 2
    2540:	37363534 			; <UNDEFINED> instruction: 0x37363534
    2544:	42413938 	submi	r3, r1, #56, 18	; 0xe0000
    2548:	46454443 	strbmi	r4, [r5], -r3, asr #8

0000254c <hex_weight_value_table>:
    254c:	00000001 	andeq	r0, r0, r1
    2550:	0000000a 	andeq	r0, r0, sl
    2554:	00000064 	andeq	r0, r0, r4, rrx
    2558:	000003e8 	andeq	r0, r0, r8, ror #7
    255c:	00002710 	andeq	r2, r0, r0, lsl r7
    2560:	000186a0 	andeq	r8, r1, r0, lsr #13
    2564:	000f4240 	andeq	r4, pc, r0, asr #4
    2568:	00989680 	addseq	r9, r8, r0, lsl #13
    256c:	05f5e100 	ldrbeq	lr, [r5, #256]!	; 0x100
    2570:	000a7325 	andeq	r7, sl, r5, lsr #6
    2574:	6b736154 	blvs	1cdaacc <_etext+0x1cd83d3>
    2578:	666e6920 	strbtvs	r6, [lr], -r0, lsr #18
    257c:	000a3a6f 	andeq	r3, sl, pc, ror #20
    2580:	616c6564 	cmnvs	ip, r4, ror #10
    2584:	69745f79 	ldmdbvs	r4!, {r0, r3, r4, r5, r6, r8, r9, sl, fp, ip, lr}^
    2588:	3a736b63 	bcc	1cdd31c <_etext+0x1cdac23>
    258c:	000a6425 	andeq	r6, sl, r5, lsr #8
    2590:	6f697270 	svcvs	0x00697270
    2594:	0a64253a 	beq	190ba84 <_etext+0x190938b>
    2598:	00000000 	andeq	r0, r0, r0
    259c:	63696c73 	cmnvs	r9, #29440	; 0x7300
    25a0:	64253a65 	strtvs	r3, [r5], #-2661	; 0xfffff59b
    25a4:	0000000a 	andeq	r0, r0, sl
    25a8:	70737573 	rsbsvc	r7, r3, r3, ror r5
    25ac:	5f646e65 	svcpl	0x00646e65
    25b0:	3a746e63 	bcc	1d1df44 <_etext+0x1d1b84b>
    25b4:	000a6425 	andeq	r6, sl, r5, lsr #8

000025b8 <__func__.3935>:
    25b8:	6b736174 	blvs	1cdab90 <_etext+0x1cd8497>
    25bc:	696e695f 	stmdbvs	lr!, {r0, r1, r2, r3, r4, r6, r8, fp, sp, lr}^
    25c0:	00000074 	andeq	r0, r0, r4, ror r0

000025c4 <__func__.3946>:
    25c4:	6b736174 	blvs	1cdab9c <_etext+0x1cd84a3>
    25c8:	6e75725f 	mrcvs	2, 3, r7, cr5, cr15, {2}
    25cc:	7269665f 	rsbvc	r6, r9, #99614720	; 0x5f00000
    25d0:	00007473 	andeq	r7, r0, r3, ror r4

000025d4 <quick_table.3774>:
    25d4:	000100ff 	strdeq	r0, [r1], -pc	; <UNPREDICTABLE>
    25d8:	00010002 	andeq	r0, r1, r2
    25dc:	00010003 	andeq	r0, r1, r3
    25e0:	00010002 	andeq	r0, r1, r2
    25e4:	00010004 	andeq	r0, r1, r4
    25e8:	00010002 	andeq	r0, r1, r2
    25ec:	00010003 	andeq	r0, r1, r3
    25f0:	00010002 	andeq	r0, r1, r2
    25f4:	00010005 	andeq	r0, r1, r5
    25f8:	00010002 	andeq	r0, r1, r2
    25fc:	00010003 	andeq	r0, r1, r3
    2600:	00010002 	andeq	r0, r1, r2
    2604:	00010004 	andeq	r0, r1, r4
    2608:	00010002 	andeq	r0, r1, r2
    260c:	00010003 	andeq	r0, r1, r3
    2610:	00010002 	andeq	r0, r1, r2
    2614:	00010006 	andeq	r0, r1, r6
    2618:	00010002 	andeq	r0, r1, r2
    261c:	00010003 	andeq	r0, r1, r3
    2620:	00010002 	andeq	r0, r1, r2
    2624:	00010004 	andeq	r0, r1, r4
    2628:	00010002 	andeq	r0, r1, r2
    262c:	00010003 	andeq	r0, r1, r3
    2630:	00010002 	andeq	r0, r1, r2
    2634:	00010005 	andeq	r0, r1, r5
    2638:	00010002 	andeq	r0, r1, r2
    263c:	00010003 	andeq	r0, r1, r3
    2640:	00010002 	andeq	r0, r1, r2
    2644:	00010004 	andeq	r0, r1, r4
    2648:	00010002 	andeq	r0, r1, r2
    264c:	00010003 	andeq	r0, r1, r3
    2650:	00010002 	andeq	r0, r1, r2
    2654:	00010007 	andeq	r0, r1, r7
    2658:	00010002 	andeq	r0, r1, r2
    265c:	00010003 	andeq	r0, r1, r3
    2660:	00010002 	andeq	r0, r1, r2
    2664:	00010004 	andeq	r0, r1, r4
    2668:	00010002 	andeq	r0, r1, r2
    266c:	00010003 	andeq	r0, r1, r3
    2670:	00010002 	andeq	r0, r1, r2
    2674:	00010005 	andeq	r0, r1, r5
    2678:	00010002 	andeq	r0, r1, r2
    267c:	00010003 	andeq	r0, r1, r3
    2680:	00010002 	andeq	r0, r1, r2
    2684:	00010004 	andeq	r0, r1, r4
    2688:	00010002 	andeq	r0, r1, r2
    268c:	00010003 	andeq	r0, r1, r3
    2690:	00010002 	andeq	r0, r1, r2
    2694:	00010006 	andeq	r0, r1, r6
    2698:	00010002 	andeq	r0, r1, r2
    269c:	00010003 	andeq	r0, r1, r3
    26a0:	00010002 	andeq	r0, r1, r2
    26a4:	00010004 	andeq	r0, r1, r4
    26a8:	00010002 	andeq	r0, r1, r2
    26ac:	00010003 	andeq	r0, r1, r3
    26b0:	00010002 	andeq	r0, r1, r2
    26b4:	00010005 	andeq	r0, r1, r5
    26b8:	00010002 	andeq	r0, r1, r2
    26bc:	00010003 	andeq	r0, r1, r3
    26c0:	00010002 	andeq	r0, r1, r2
    26c4:	00010004 	andeq	r0, r1, r4
    26c8:	00010002 	andeq	r0, r1, r2
    26cc:	00010003 	andeq	r0, r1, r3
    26d0:	00010002 	andeq	r0, r1, r2
    26d4:	0a3a7325 	beq	e9f370 <_etext+0xe9cc77>
    26d8:	00000000 	andeq	r0, r0, r0
    26dc:	23232323 			; <UNDEFINED> instruction: 0x23232323
    26e0:	23232323 			; <UNDEFINED> instruction: 0x23232323
    26e4:	0000000a 	andeq	r0, r0, sl

000026e8 <__func__.3920>:
    26e8:	6e657665 	cdpvs	6, 6, cr7, cr5, cr5, {3}
    26ec:	65725f74 	ldrbvs	r5, [r2, #-3956]!	; 0xfffff08c
    26f0:	65766f6d 	ldrbvs	r6, [r6, #-3949]!	; 0xfffff093
    26f4:	6c6c615f 	stfvse	f6, [ip], #-380	; 0xfffffe84
	...

Disassembly of section .bss:

20000000 <_bss>:
	...

20000040 <g_idle_task>:
20000040:	00000000 	andeq	r0, r0, r0

20000044 <g_idle_task_stk>:
	...

20001044 <g_sched_lock>:
20001044:	00000000 	andeq	r0, r0, r0

20001048 <g_task_prio_bitmap>:
20001048:	00000000 	andeq	r0, r0, r0

2000104c <g_task_delay_list>:
	...

20001058 <task1_stk>:
	...

20002058 <task4>:
	...

20002098 <mem_block1>:
	...

200020c0 <task4_stk>:
	...

200030c0 <task1>:
	...

20003100 <task2>:
	...

20003140 <mem1>:
	...

20003910 <task2_stk>:
	...

20004910 <task3_stk>:
	...

20005910 <task3>:
	...

20005950 <g_next_task>:
20005950:	00000000 	andeq	r0, r0, r0

20005954 <g_current_task>:
20005954:	00000000 	andeq	r0, r0, r0

20005958 <g_task_table>:
	...

20005ad8 <sss>:
20005ad8:	00000000 	andeq	r0, r0, r0

Disassembly of section .debug_info:

00000000 <.debug_info>:
       0:	000000d5 	ldrdeq	r0, [r0], -r5
       4:	00000002 	andeq	r0, r0, r2
       8:	01040000 	mrseq	r0, (UNDEF: 4)
       c:	00000083 	andeq	r0, r0, r3, lsl #1
      10:	00011a01 	andeq	r1, r1, r1, lsl #20
      14:	00000000 	andeq	r0, r0, r0
      18:	00026c00 	andeq	r6, r2, r0, lsl #24
      1c:	00028c00 	andeq	r8, r2, r0, lsl #24
      20:	00000000 	andeq	r0, r0, r0
      24:	06010200 	streq	r0, [r1], -r0, lsl #4
      28:	00000032 	andeq	r0, r0, r2, lsr r0
      2c:	30080102 	andcc	r0, r8, r2, lsl #2
      30:	02000000 	andeq	r0, r0, #0
      34:	010a0502 	tsteq	sl, r2, lsl #10
      38:	02020000 	andeq	r0, r2, #0
      3c:	00003e07 	andeq	r3, r0, r7, lsl #28
      40:	05040200 	streq	r0, [r4, #-512]	; 0xfffffe00
      44:	00000101 	andeq	r0, r0, r1, lsl #2
      48:	71070402 	tstvc	r7, r2, lsl #8
      4c:	02000000 	andeq	r0, r0, #0
      50:	00fc0508 	rscseq	r0, ip, r8, lsl #10
      54:	08020000 	stmdaeq	r2, {}	; <UNPREDICTABLE>
      58:	00006c07 	andeq	r6, r0, r7, lsl #24
      5c:	05040300 	streq	r0, [r4, #-768]	; 0xfffffd00
      60:	00746e69 	rsbseq	r6, r4, r9, ror #28
      64:	76070402 	strvc	r0, [r7], -r2, lsl #8
      68:	04000000 	streq	r0, [r0], #-0
      6c:	00000114 	andeq	r0, r0, r4, lsl r1
      70:	6c01af01 	stcvs	15, cr10, [r1], {1}
      74:	72000002 	andvc	r0, r0, #2
      78:	00000002 	andeq	r0, r0, r2
      7c:	04000000 	streq	r0, [r0], #-0
      80:	00000063 	andeq	r0, r0, r3, rrx
      84:	7401b301 	strvc	fp, [r1], #-769	; 0xfffffcff
      88:	7a000002 	bvc	98 <_text+0x98>
      8c:	2c000002 	stccs	0, cr0, [r0], {2}
      90:	04000000 	streq	r0, [r0], #-0
      94:	00000051 	andeq	r0, r0, r1, asr r0
      98:	7c01b701 	stcvc	7, cr11, [r1], {1}
      9c:	8c000002 	stchi	0, cr0, [r0], {2}
      a0:	58000002 	stmdapl	r0, {r1}
      a4:	05000000 	streq	r0, [r0, #-0]
      a8:	000000be 	strheq	r0, [r0], -lr
      ac:	000000b7 	strheq	r0, [r0], -r7
      b0:	0000b706 	andeq	fp, r0, r6, lsl #14
      b4:	02009a00 	andeq	r9, r0, #0, 20
      b8:	00f30704 	rscseq	r0, r3, r4, lsl #14
      bc:	04070000 	streq	r0, [r7], #-0
      c0:	000000c4 	andeq	r0, r0, r4, asr #1
      c4:	23090108 	movwcs	r0, #37128	; 0x9108
      c8:	01000000 	mrseq	r0, (UNDEF: 0)
      cc:	0000a710 	andeq	sl, r0, r0, lsl r7
      d0:	03050100 	movweq	r0, #20736	; 0x5100
      d4:	00000000 	andeq	r0, r0, r0
      d8:	00058f00 	andeq	r8, r5, r0, lsl #30
      dc:	70000200 	andvc	r0, r0, r0, lsl #4
      e0:	04000000 	streq	r0, [r0], #-0
      e4:	00008301 	andeq	r8, r0, r1, lsl #6
      e8:	02e40100 	rsceq	r0, r4, #0, 2
      ec:	00000000 	andeq	r0, r0, r0
      f0:	028c0000 	addeq	r0, ip, #0
      f4:	04b40000 	ldrteq	r0, [r4], #0
      f8:	00430000 	subeq	r0, r3, r0
      fc:	01020000 	mrseq	r0, (UNDEF: 2)
     100:	00003206 	andeq	r3, r0, r6, lsl #4
     104:	02250300 	eoreq	r0, r5, #0, 6
     108:	1d020000 	stcne	0, cr0, [r2, #-0]
     10c:	00000037 	andeq	r0, r0, r7, lsr r0
     110:	30080102 	andcc	r0, r8, r2, lsl #2
     114:	02000000 	andeq	r0, r0, #0
     118:	010a0502 	tsteq	sl, r2, lsl #10
     11c:	02020000 	andeq	r0, r2, #0
     120:	00003e07 	andeq	r3, r0, r7, lsl #28
     124:	05040200 	streq	r0, [r4, #-512]	; 0xfffffe00
     128:	00000101 	andeq	r0, r0, r1, lsl #2
     12c:	0001a003 	andeq	sl, r1, r3
     130:	5e410200 	cdppl	2, 4, cr0, cr1, cr0, {0}
     134:	02000000 	andeq	r0, r0, #0
     138:	00710704 	rsbseq	r0, r1, r4, lsl #14
     13c:	08020000 	stmdaeq	r2, {}	; <UNPREDICTABLE>
     140:	0000fc05 	andeq	pc, r0, r5, lsl #24
     144:	07080200 	streq	r0, [r8, -r0, lsl #4]
     148:	0000006c 	andeq	r0, r0, ip, rrx
     14c:	69050404 	stmdbvs	r5, {r2, sl}
     150:	0200746e 	andeq	r7, r0, #1845493760	; 0x6e000000
     154:	00760704 	rsbseq	r0, r6, r4, lsl #14
     158:	27030000 	strcs	r0, [r3, -r0]
     15c:	03000002 	movweq	r0, #2
     160:	00002c14 	andeq	r2, r0, r4, lsl ip
     164:	01a20300 			; <UNDEFINED> instruction: 0x01a20300
     168:	20030000 	andcs	r0, r3, r0
     16c:	00000053 	andeq	r0, r0, r3, asr r0
     170:	0001b605 	andeq	fp, r1, r5, lsl #12
     174:	12040800 	andne	r0, r4, #0, 16
     178:	000000c0 	andeq	r0, r0, r0, asr #1
     17c:	00094a06 	andeq	r4, r9, r6, lsl #20
     180:	c0130400 	andsgt	r0, r3, r0, lsl #8
     184:	02000000 	andeq	r0, r0, #0
     188:	54060023 	strpl	r0, [r6], #-35	; 0xffffffdd
     18c:	04000009 	streq	r0, [r0], #-9
     190:	0000c014 	andeq	ip, r0, r4, lsl r0
     194:	04230200 	strteq	r0, [r3], #-512	; 0xfffffe00
     198:	97040700 	strls	r0, [r4, -r0, lsl #14]
     19c:	03000000 	movweq	r0, #0
     1a0:	0000018b 	andeq	r0, r0, fp, lsl #3
     1a4:	00971504 	addseq	r1, r7, r4, lsl #10
     1a8:	97050000 	strls	r0, [r5, -r0]
     1ac:	0c000001 	stceq	0, cr0, [r0], {1}
     1b0:	00fa1904 	rscseq	r1, sl, r4, lsl #18
     1b4:	30060000 	andcc	r0, r6, r0
     1b8:	04000009 	streq	r0, [r0], #-9
     1bc:	0000c61a 	andeq	ip, r0, sl, lsl r6
     1c0:	00230200 	eoreq	r0, r3, r0, lsl #4
     1c4:	0001ab06 	andeq	sl, r1, r6, lsl #22
     1c8:	8c1b0400 	cfldrshi	mvf0, [fp], {-0}
     1cc:	02000000 	andeq	r0, r0, #0
     1d0:	03000823 	movweq	r0, #2083	; 0x823
     1d4:	00000172 	andeq	r0, r0, r2, ror r1
     1d8:	00d11c04 	sbcseq	r1, r1, r4, lsl #24
     1dc:	fd030000 	stc2	0, cr0, [r3, #-0]
     1e0:	05000002 	streq	r0, [r0, #-2]
     1e4:	00008c0e 	andeq	r8, r0, lr, lsl #24
     1e8:	022f0500 	eoreq	r0, pc, #0, 10
     1ec:	05400000 	strbeq	r0, [r0, #-0]
     1f0:	0001e110 	andeq	lr, r1, r0, lsl r1
     1f4:	02660600 	rsbeq	r0, r6, #0, 12
     1f8:	12050000 	andne	r0, r5, #0
     1fc:	000001e1 	andeq	r0, r0, r1, ror #3
     200:	06002302 	streq	r2, [r0], -r2, lsl #6
     204:	000002d8 	ldrdeq	r0, [r0], -r8
     208:	008c1305 	addeq	r1, ip, r5, lsl #6
     20c:	23020000 	movwcs	r0, #8192	; 0x2000
     210:	05f00604 	ldrbeq	r0, [r0, #1540]!	; 0x604
     214:	14050000 	strne	r0, [r5], #-0
     218:	0000008c 	andeq	r0, r0, ip, lsl #1
     21c:	06082302 	streq	r2, [r8], -r2, lsl #6
     220:	00000133 	andeq	r0, r0, r3, lsr r1
     224:	00c61705 	sbceq	r1, r6, r5, lsl #14
     228:	23020000 	movwcs	r0, #8192	; 0x2000
     22c:	016c060c 	cmneq	ip, ip, lsl #12
     230:	18050000 	stmdane	r5, {}	; <UNPREDICTABLE>
     234:	0000008c 	andeq	r0, r0, ip, lsl #1
     238:	06142302 	ldreq	r2, [r4], -r2, lsl #6
     23c:	00000341 	andeq	r0, r0, r1, asr #6
     240:	00c61b05 	sbceq	r1, r6, r5, lsl #22
     244:	23020000 	movwcs	r0, #8192	; 0x2000
     248:	02600618 	rsbeq	r0, r0, #24, 12	; 0x1800000
     24c:	1c050000 	stcne	0, cr0, [r5], {-0}
     250:	0000008c 	andeq	r0, r0, ip, lsl #1
     254:	06202302 	strteq	r2, [r0], -r2, lsl #6
     258:	000002f1 	strdeq	r0, [r0], -r1
     25c:	008c1f05 	addeq	r1, ip, r5, lsl #30
     260:	23020000 	movwcs	r0, #8192	; 0x2000
     264:	021f0624 	andseq	r0, pc, #36, 12	; 0x2400000
     268:	22050000 	andcs	r0, r5, #0
     26c:	000001f5 	strdeq	r0, [r0], -r5
     270:	06282302 	strteq	r2, [r8], -r2, lsl #6
     274:	00000127 	andeq	r0, r0, r7, lsr #2
     278:	01f32305 	mvnseq	r2, r5, lsl #6
     27c:	23020000 	movwcs	r0, #8192	; 0x2000
     280:	02c7062c 	sbceq	r0, r7, #44, 12	; 0x2c00000
     284:	24050000 	strcs	r0, [r5], #-0
     288:	00000081 	andeq	r0, r0, r1, lsl #1
     28c:	06302302 	ldrteq	r2, [r0], -r2, lsl #6
     290:	0000014c 	andeq	r0, r0, ip, asr #2
     294:	02242705 	eoreq	r2, r4, #1310720	; 0x140000
     298:	23020000 	movwcs	r0, #8192	; 0x2000
     29c:	02940634 	addseq	r0, r4, #52, 12	; 0x3400000
     2a0:	28050000 	stmdacs	r5, {}	; <UNPREDICTABLE>
     2a4:	000001f3 	strdeq	r0, [r0], -r3
     2a8:	06382302 	ldrteq	r2, [r8], -r2, lsl #6
     2ac:	00000179 	andeq	r0, r0, r9, ror r1
     2b0:	008c2905 	addeq	r2, ip, r5, lsl #18
     2b4:	23020000 	movwcs	r0, #8192	; 0x2000
     2b8:	0407003c 	streq	r0, [r7], #-60	; 0xffffffc4
     2bc:	00000105 	andeq	r0, r0, r5, lsl #2
     2c0:	01f30108 	mvnseq	r0, r8, lsl #2
     2c4:	f3090000 	vhadd.u8	d0, d9, d0
     2c8:	00000001 	andeq	r0, r0, r1
     2cc:	0407040a 	streq	r0, [r7], #-1034	; 0xfffffbf6
     2d0:	000001e7 	andeq	r0, r0, r7, ror #3
     2d4:	00015705 	andeq	r5, r1, r5, lsl #14
     2d8:	10061000 	andne	r1, r6, r0
     2dc:	00000224 	andeq	r0, r0, r4, lsr #4
     2e0:	0000f706 	andeq	pc, r0, r6, lsl #14
     2e4:	5a110600 	bpl	441aec <_etext+0x43f3f3>
     2e8:	02000002 	andeq	r0, r0, #2
     2ec:	37060023 	strcc	r0, [r6, -r3, lsr #32]
     2f0:	06000003 	streq	r0, [r0], -r3
     2f4:	0000fa12 	andeq	pc, r0, r2, lsl sl	; <UNPREDICTABLE>
     2f8:	04230200 	strteq	r0, [r3], #-512	; 0xfffffe00
     2fc:	fb040700 	blx	101f06 <_etext+0xff80d>
     300:	03000001 	movweq	r0, #1
     304:	000001d8 	ldrdeq	r0, [r0], -r8
     308:	01102b05 	tsteq	r0, r5, lsl #22
     30c:	100b0000 	andne	r0, fp, r0
     310:	01000002 	tsteq	r0, r2
     314:	025a0906 	subseq	r0, sl, #98304	; 0x18000
     318:	5a0c0000 	bpl	300320 <_etext+0x2fdc27>
     31c:	00000003 	andeq	r0, r0, r3
     320:	00030a0c 	andeq	r0, r3, ip, lsl #20
     324:	f70c0100 			; <UNDEFINED> instruction: 0xf70c0100
     328:	02000001 	andeq	r0, r0, #1
     32c:	00027f0c 	andeq	r7, r2, ip, lsl #30
     330:	03000300 	movweq	r0, #768	; 0x300
     334:	00000249 	andeq	r0, r0, r9, asr #4
     338:	02350e06 	eorseq	r0, r5, #6, 28	; 0x60
     33c:	1f030000 	svcne	0x00030000
     340:	06000003 	streq	r0, [r0], -r3
     344:	0001fb13 	andeq	pc, r1, r3, lsl fp	; <UNPREDICTABLE>
     348:	013e0500 	teqeq	lr, r0, lsl #10
     34c:	07280000 	streq	r0, [r8, -r0]!
     350:	0002c30b 	andeq	ip, r2, fp, lsl #6
     354:	01510600 	cmpeq	r1, r0, lsl #12
     358:	0c070000 	stceq	0, cr0, [r7], {-0}
     35c:	00000265 	andeq	r0, r0, r5, ror #4
     360:	06002302 	streq	r2, [r0], -r2, lsl #6
     364:	00000b7b 	andeq	r0, r0, fp, ror fp
     368:	01f30d07 	mvnseq	r0, r7, lsl #26
     36c:	23020000 	movwcs	r0, #8192	; 0x2000
     370:	01610610 	cmneq	r1, r0, lsl r6
     374:	0e070000 	cdpeq	0, 0, cr0, cr7, cr0, {0}
     378:	0000008c 	andeq	r0, r0, ip, lsl #1
     37c:	06142302 	ldreq	r2, [r4], -r2, lsl #6
     380:	0000026c 	andeq	r0, r0, ip, ror #4
     384:	008c0f07 	addeq	r0, ip, r7, lsl #30
     388:	23020000 	movwcs	r0, #8192	; 0x2000
     38c:	02380618 	eorseq	r0, r8, #24, 12	; 0x1800000
     390:	10070000 	andne	r0, r7, r0
     394:	000000fa 	strdeq	r0, [r0], -sl
     398:	001c2302 	andseq	r2, ip, r2, lsl #6
     39c:	0002bb03 	andeq	fp, r2, r3, lsl #22
     3a0:	70110700 	andsvc	r0, r1, r0, lsl #14
     3a4:	03000002 	movweq	r0, #2
     3a8:	000002bf 			; <UNDEFINED> instruction: 0x000002bf
     3ac:	02d92001 	sbcseq	r2, r9, #1
     3b0:	04070000 	streq	r0, [r7], #-0
     3b4:	000002df 	ldrdeq	r0, [r0], -pc	; <UNPREDICTABLE>
     3b8:	0000810d 	andeq	r8, r0, sp, lsl #2
     3bc:	0002ef00 	andeq	lr, r2, r0, lsl #30
     3c0:	02ef0e00 	rsceq	r0, pc, #0, 28
     3c4:	00630000 	rsbeq	r0, r3, r0
     3c8:	f3070402 	vshl.u8	d0, d2, d7
     3cc:	0f000000 	svceq	0x00000000
     3d0:	0000032d 	andeq	r0, r0, sp, lsr #6
     3d4:	8c010b01 	stchi	11, cr0, [r1], {1}
     3d8:	c4000002 	strgt	r0, [r0], #-2
     3dc:	84000002 	strhi	r0, [r0], #-2
     3e0:	1d000000 	stcne	0, cr0, [r0, #-0]
     3e4:	10000003 	andne	r0, r0, r3
     3e8:	00000b7b 	andeq	r0, r0, fp, ror fp
     3ec:	031d0d01 	tsteq	sp, #1, 26	; 0x40
     3f0:	91020000 	mrsls	r0, (UNDEF: 2)
     3f4:	04070074 	streq	r0, [r7], #-116	; 0xffffff8c
     3f8:	00000081 	andeq	r0, r0, r1, lsl #1
     3fc:	03780111 	cmneq	r8, #1073741828	; 0x40000004
     400:	22010000 	andcs	r0, r1, #0
     404:	0002c401 	andeq	ip, r2, r1, lsl #8
     408:	00037c00 	andeq	r7, r3, r0, lsl #24
     40c:	0000e000 	andeq	lr, r0, r0
     410:	00037700 	andeq	r7, r3, r0, lsl #14
     414:	012d1200 			; <UNDEFINED> instruction: 0x012d1200
     418:	22010000 	andcs	r0, r1, #0
     41c:	000001f3 	strdeq	r0, [r0], -r3
     420:	7f9c9103 	svcvc	0x009c9103
     424:	01006913 	tsteq	r0, r3, lsl r9
     428:	00008124 	andeq	r8, r0, r4, lsr #2
     42c:	77910200 	ldrvc	r0, [r1, r0, lsl #4]
     430:	000b9d10 	andeq	r9, fp, r0, lsl sp
     434:	77250100 	strvc	r0, [r5, -r0, lsl #2]!
     438:	03000003 	movweq	r0, #3
     43c:	147fa491 	ldrbtne	sl, [pc], #-1169	; 444 <main+0x58>
     440:	00000276 	andeq	r0, r0, r6, ror r2
     444:	0000039e 	muleq	r0, lr, r3
     448:	f8030501 			; <UNDEFINED> instruction: 0xf8030501
     44c:	00000024 	andeq	r0, r0, r4, lsr #32
     450:	0002ce0d 	andeq	ip, r2, sp, lsl #28
     454:	00038700 	andeq	r8, r3, r0, lsl #14
     458:	02ef0e00 	rsceq	r0, pc, #0, 28
     45c:	00130000 	andseq	r0, r3, r0
     460:	0003970d 	andeq	r9, r3, sp, lsl #14
     464:	00039700 	andeq	r9, r3, r0, lsl #14
     468:	02ef0e00 	rsceq	r0, pc, #0, 28
     46c:	000b0000 	andeq	r0, fp, r0
     470:	39080102 	stmdbcc	r8, {r1, r8}
     474:	15000000 	strne	r0, [r0, #-0]
     478:	00000387 	andeq	r0, r0, r7, lsl #7
     47c:	02af0111 	adceq	r0, pc, #1073741828	; 0x40000004
     480:	3a010000 	bcc	40488 <_etext+0x3dd8f>
     484:	00037c01 	andeq	r7, r3, r1, lsl #24
     488:	0003ac00 	andeq	sl, r3, r0, lsl #24
     48c:	00011a00 	andeq	r1, r1, r0, lsl #20
     490:	0003f300 	andeq	pc, r3, r0, lsl #6
     494:	012d1200 			; <UNDEFINED> instruction: 0x012d1200
     498:	3a010000 	bcc	404a0 <_etext+0x3dda7>
     49c:	000001f3 	strdeq	r0, [r0], -r3
     4a0:	146c9102 	strbtne	r9, [ip], #-258	; 0xfffffefe
     4a4:	00000276 	andeq	r0, r0, r6, ror r2
     4a8:	000003f3 	strdeq	r0, [r0], -r3
     4ac:	04030501 	streq	r0, [r3], #-1281	; 0xfffffaff
     4b0:	16000025 	strne	r0, [r0], -r5, lsr #32
     4b4:	00000384 	andeq	r0, r0, r4, lsl #7
     4b8:	0000039e 	muleq	r0, lr, r3
     4bc:	000b9d10 	andeq	r9, fp, r0, lsl sp
     4c0:	ce3d0100 	rsfgte	f0, f5, f0
     4c4:	02000002 	andeq	r0, r0, #2
     4c8:	00007491 	muleq	r0, r1, r4
     4cc:	00038715 	andeq	r8, r3, r5, lsl r7
     4d0:	a3011100 	movwge	r1, #4352	; 0x1100
     4d4:	01000002 	tsteq	r0, r2
     4d8:	03ac0143 			; <UNDEFINED> instruction: 0x03ac0143
     4dc:	03cc0000 	biceq	r0, ip, #0
     4e0:	01520000 	cmpeq	r2, r0
     4e4:	04300000 	ldrteq	r0, [r0], #-0
     4e8:	2d120000 	ldccs	0, cr0, [r2, #-0]
     4ec:	01000001 	tsteq	r0, r1
     4f0:	0001f343 	andeq	pc, r1, r3, asr #6
     4f4:	74910200 	ldrvc	r0, [r1], #512	; 0x200
     4f8:	00027614 	andeq	r7, r2, r4, lsl r6
     4fc:	00043000 	andeq	r3, r4, r0
     500:	03050100 	movweq	r0, #20736	; 0x5100
     504:	00002510 	andeq	r2, r0, r0, lsl r5
     508:	03871500 	orreq	r1, r7, #0, 10
     50c:	01110000 	tsteq	r1, r0
     510:	000001df 	ldrdeq	r0, [r0], -pc	; <UNPREDICTABLE>
     514:	cc014c01 	stcgt	12, cr4, [r1], {1}
     518:	ec000003 	stc	0, cr0, [r0], {3}
     51c:	8a000003 	bhi	530 <send_char+0x8>
     520:	6d000001 	stcvs	0, cr0, [r0, #-4]
     524:	12000004 	andne	r0, r0, #4
     528:	0000012d 	andeq	r0, r0, sp, lsr #2
     52c:	01f34c01 	mvnseq	r4, r1, lsl #24
     530:	91020000 	mrsls	r0, (UNDEF: 2)
     534:	02761474 	rsbseq	r1, r6, #116, 8	; 0x74000000
     538:	046d0000 	strbteq	r0, [sp], #-0
     53c:	05010000 	streq	r0, [r1, #-0]
     540:	00251c03 	eoreq	r1, r5, r3, lsl #24
     544:	87150000 	ldrhi	r0, [r5, -r0]
     548:	17000003 	strne	r0, [r0, -r3]
     54c:	00029e01 	andeq	r9, r2, r1, lsl #28
     550:	73540100 	cmpvc	r4, #0, 2
     554:	ec000000 	stc	0, cr0, [r0], {-0}
     558:	b4000003 	strlt	r0, [r0], #-3
     55c:	c2000004 	andgt	r0, r0, #4
     560:	18000001 	stmdane	r0, {r0}
     564:	000001eb 	andeq	r0, r0, fp, ror #3
     568:	04973705 	ldreq	r3, [r7], #1797	; 0x705
     56c:	01010000 	mrseq	r0, (UNDEF: 1)
     570:	022a0407 	eoreq	r0, sl, #117440512	; 0x7000000
     574:	32180000 	andscc	r0, r8, #0
     578:	01000003 	tsteq	r0, r3
     57c:	00008c08 	andeq	r8, r0, r8, lsl #24
     580:	18010100 	stmdane	r1, {r8}
     584:	0000020a 	andeq	r0, r0, sl, lsl #4
     588:	008c0901 	addeq	r0, ip, r1, lsl #18
     58c:	01010000 	mrseq	r0, (UNDEF: 1)
     590:	00031919 	andeq	r1, r3, r9, lsl r9
     594:	2a140100 	bcs	50099c <_etext+0x4fe2a3>
     598:	01000002 	tsteq	r0, r2
     59c:	30c00305 	sbccc	r0, r0, r5, lsl #6
     5a0:	eb192000 	bl	6485a8 <_etext+0x645eaf>
     5a4:	01000002 	tsteq	r0, r2
     5a8:	00022a15 	andeq	r2, r2, r5, lsl sl
     5ac:	03050100 	movweq	r0, #20736	; 0x5100
     5b0:	20003100 	andcs	r3, r0, r0, lsl #2
     5b4:	00032719 	andeq	r2, r3, r9, lsl r7
     5b8:	2a160100 	bcs	5809c0 <_etext+0x57e2c7>
     5bc:	01000002 	tsteq	r0, r2
     5c0:	59100305 	ldmdbpl	r0, {r0, r2, r8, r9}
     5c4:	43192000 	tstmi	r9, #0
     5c8:	01000002 	tsteq	r0, r2
     5cc:	00022a17 	andeq	r2, r2, r7, lsl sl
     5d0:	03050100 	movweq	r0, #20736	; 0x5100
     5d4:	20002058 	andcs	r2, r0, r8, asr r0
     5d8:	0001050d 	andeq	r0, r1, sp, lsl #10
     5dc:	00051000 	andeq	r1, r5, r0
     5e0:	02ef1a00 	rsceq	r1, pc, #0, 20
     5e4:	03ff0000 	mvnseq	r0, #0
     5e8:	01ce1900 	biceq	r1, lr, r0, lsl #18
     5ec:	18010000 	stmdane	r1, {}	; <UNPREDICTABLE>
     5f0:	000004ff 	strdeq	r0, [r0], -pc	; <UNPREDICTABLE>
     5f4:	58030501 	stmdapl	r3, {r0, r8, sl}
     5f8:	19200010 	stmdbne	r0!, {r4}
     5fc:	00000256 	andeq	r0, r0, r6, asr r2
     600:	04ff1901 	ldrbteq	r1, [pc], #2305	; 608 <printf_char+0x8>
     604:	05010000 	streq	r0, [r1, #-0]
     608:	00391003 	eorseq	r1, r9, r3
     60c:	03501920 	cmpeq	r0, #32, 18	; 0x80000
     610:	1a010000 	bne	40618 <_etext+0x3df1f>
     614:	000004ff 	strdeq	r0, [r0], -pc	; <UNPREDICTABLE>
     618:	10030501 	andne	r0, r3, r1, lsl #10
     61c:	19200049 	stmdbne	r0!, {r0, r3, r6}
     620:	000001c4 	andeq	r0, r0, r4, asr #3
     624:	04ff1b01 	ldrbteq	r1, [pc], #2817	; 62c <printf_char+0x2c>
     628:	05010000 	streq	r0, [r1, #-0]
     62c:	0020c003 	eoreq	ip, r0, r3
     630:	00810d20 	addeq	r0, r1, r0, lsr #26
     634:	056e0000 	strbeq	r0, [lr, #-0]!
     638:	ef0e0000 	svc	0x000e0000
     63c:	13000002 	movwne	r0, #2
     640:	0002ef0e 	andeq	lr, r2, lr, lsl #30
     644:	19006300 	stmdbne	r0, {r8, r9, sp, lr}
     648:	0000046c 	andeq	r0, r0, ip, ror #8
     64c:	05581e01 	ldrbeq	r1, [r8, #-3585]	; 0xfffff1ff
     650:	05010000 	streq	r0, [r1, #-0]
     654:	00314003 	eorseq	r4, r1, r3
     658:	036d1920 	cmneq	sp, #32, 18	; 0x80000
     65c:	1f010000 	svcne	0x00010000
     660:	000002c3 	andeq	r0, r0, r3, asr #5
     664:	98030501 	stmdals	r3, {r0, r8, sl}
     668:	00200020 	eoreq	r0, r0, r0, lsr #32
     66c:	00000162 	andeq	r0, r0, r2, ror #2
     670:	01c50002 	biceq	r0, r5, r2
     674:	01040000 	mrseq	r0, (UNDEF: 4)
     678:	00000083 	andeq	r0, r0, r3, lsl #1
     67c:	0003b201 	andeq	fp, r3, r1, lsl #4
     680:	00000000 	andeq	r0, r0, r0
     684:	0004b400 	andeq	fp, r4, r0, lsl #8
     688:	00052800 	andeq	r2, r5, r0, lsl #16
     68c:	00013800 	andeq	r3, r1, r0, lsl #16
     690:	06010200 	streq	r0, [r1], -r0, lsl #4
     694:	00000032 	andeq	r0, r0, r2, lsr r0
     698:	00022503 	andeq	r2, r2, r3, lsl #10
     69c:	371d0200 	ldrcc	r0, [sp, -r0, lsl #4]
     6a0:	02000000 	andeq	r0, r0, #0
     6a4:	00300801 	eorseq	r0, r0, r1, lsl #16
     6a8:	02020000 	andeq	r0, r2, #0
     6ac:	00010a05 	andeq	r0, r1, r5, lsl #20
     6b0:	07020200 	streq	r0, [r2, -r0, lsl #4]
     6b4:	0000003e 	andeq	r0, r0, lr, lsr r0
     6b8:	01050402 	tsteq	r5, r2, lsl #8
     6bc:	03000001 	movweq	r0, #1
     6c0:	000001a0 	andeq	r0, r0, r0, lsr #3
     6c4:	005e4102 	subseq	r4, lr, r2, lsl #2
     6c8:	04020000 	streq	r0, [r2], #-0
     6cc:	00007107 	andeq	r7, r0, r7, lsl #2
     6d0:	05080200 	streq	r0, [r8, #-512]	; 0xfffffe00
     6d4:	000000fc 	strdeq	r0, [r0], -ip
     6d8:	6c070802 	stcvs	8, cr0, [r7], {2}
     6dc:	04000000 	streq	r0, [r0], #-0
     6e0:	6e690504 	cdpvs	5, 6, cr0, cr9, cr4, {0}
     6e4:	04020074 	streq	r0, [r2], #-116	; 0xffffff8c
     6e8:	00007607 	andeq	r7, r0, r7, lsl #12
     6ec:	02270300 	eoreq	r0, r7, #0, 6
     6f0:	14030000 	strne	r0, [r3], #-0
     6f4:	0000002c 	andeq	r0, r0, ip, lsr #32
     6f8:	0001a203 	andeq	sl, r1, r3, lsl #4
     6fc:	53200300 	noppl	{0}	; <UNPREDICTABLE>
     700:	05000000 	streq	r0, [r0, #-0]
     704:	00000384 	andeq	r0, r0, r4, lsl #7
     708:	dc130410 	cfldrsle	mvf0, [r3], {16}
     70c:	06000000 	streq	r0, [r0], -r0
     710:	000003c9 	andeq	r0, r0, r9, asr #7
     714:	00dc1404 	sbcseq	r1, ip, r4, lsl #8
     718:	23020000 	movwcs	r0, #8192	; 0x2000
     71c:	03900600 	orrseq	r0, r0, #0, 12
     720:	15040000 	strne	r0, [r4, #-0]
     724:	000000dc 	ldrdeq	r0, [r0], -ip
     728:	07042302 	streq	r2, [r4, -r2, lsl #6]
     72c:	006c6176 	rsbeq	r6, ip, r6, ror r1
     730:	00dc1604 	sbcseq	r1, ip, r4, lsl #12
     734:	23020000 	movwcs	r0, #8192	; 0x2000
     738:	03c30608 	biceq	r0, r3, #8, 12	; 0x800000
     73c:	17040000 	strne	r0, [r4, -r0]
     740:	000000dc 	ldrdeq	r0, [r0], -ip
     744:	000c2302 	andeq	r2, ip, r2, lsl #6
     748:	00008c08 	andeq	r8, r0, r8, lsl #24
     74c:	03e80300 	mvneq	r0, #0, 6
     750:	18040000 	stmdane	r4, {}	; <UNPREDICTABLE>
     754:	00000097 	muleq	r0, r7, r0
     758:	03950109 	orrseq	r0, r5, #1073741826	; 0x40000002
     75c:	05010000 	streq	r0, [r1, #-0]
     760:	0004b401 	andeq	fp, r4, r1, lsl #8
     764:	0004f800 	andeq	pc, r4, r0, lsl #16
     768:	0001fa00 	andeq	pc, r1, r0, lsl #20
     76c:	00012f00 	andeq	r2, r1, r0, lsl #30
     770:	736d0a00 	cmnvc	sp, #0, 20
     774:	8c050100 	stfhis	f0, [r5], {-0}
     778:	02000000 	andeq	r0, r0, #0
     77c:	ce0b6c91 	mcrgt	12, 0, r6, cr11, cr1, {4}
     780:	01000003 	tsteq	r0, r3
     784:	00012f07 	andeq	r2, r1, r7, lsl #30
     788:	74910200 	ldrvc	r0, [r1], #512	; 0x200
     78c:	0003b80b 	andeq	fp, r3, fp, lsl #16
     790:	35080100 	strcc	r0, [r8, #-256]	; 0xffffff00
     794:	02000001 	andeq	r0, r0, #1
     798:	0c007091 	stceq	0, cr7, [r0], {145}	; 0x91
     79c:	0000e104 	andeq	lr, r0, r4, lsl #2
     7a0:	81040c00 	tsthi	r4, r0, lsl #24
     7a4:	0d000000 	stceq	0, cr0, [r0, #-0]
     7a8:	0003a201 	andeq	sl, r3, r1, lsl #4
     7ac:	010f0100 	mrseq	r0, (UNDEF: 31)
     7b0:	000004f8 	strdeq	r0, [r0], -r8
     7b4:	00000502 	andeq	r0, r0, r2, lsl #10
     7b8:	00000256 	andeq	r0, r0, r6, asr r2
     7bc:	03d8010d 	bicseq	r0, r8, #1073741827	; 0x40000003
     7c0:	15010000 	strne	r0, [r1, #-0]
     7c4:	00050401 	andeq	r0, r5, r1, lsl #8
     7c8:	00052800 	andeq	r2, r5, r0, lsl #16
     7cc:	00028200 	andeq	r8, r2, r0, lsl #4
     7d0:	07cc0000 	strbeq	r0, [ip, r0]
     7d4:	00020000 	andeq	r0, r2, r0
     7d8:	00000283 	andeq	r0, r0, r3, lsl #5
     7dc:	00830104 	addeq	r0, r3, r4, lsl #2
     7e0:	e6010000 	str	r0, [r1], -r0
     7e4:	00000004 	andeq	r0, r0, r4
     7e8:	28000000 	stmdacs	r0, {}	; <UNPREDICTABLE>
     7ec:	a8000005 	stmdage	r0, {r0, r2}
     7f0:	df00000e 	svcle	0x0000000e
     7f4:	02000001 	andeq	r0, r0, #1
     7f8:	000004f8 	strdeq	r0, [r0], -r8
     7fc:	00302802 	eorseq	r2, r0, r2, lsl #16
     800:	52030000 	andpl	r0, r3, #0
     804:	04000004 	streq	r0, [r0], #-4
     808:	004a0005 	subeq	r0, sl, r5
     80c:	af040000 	svcge	0x00040000
     810:	4a000004 	bmi	828 <printf_dec+0xd0>
     814:	02000000 	andeq	r0, r0, #0
     818:	00010023 	andeq	r0, r1, r3, lsr #32
     81c:	54020405 	strpl	r0, [r2], #-1029	; 0xfffffbfb
     820:	02000004 	andeq	r0, r0, #4
     824:	00002562 	andeq	r2, r0, r2, ror #10
     828:	06010600 	streq	r0, [r1], -r0, lsl #12
     82c:	00000032 	andeq	r0, r0, r2, lsr r0
     830:	00022502 	andeq	r2, r2, r2, lsl #10
     834:	691d0300 	ldmdbvs	sp, {r8, r9}
     838:	06000000 	streq	r0, [r0], -r0
     83c:	00300801 	eorseq	r0, r0, r1, lsl #16
     840:	02060000 	andeq	r0, r6, #0
     844:	00010a05 	andeq	r0, r1, r5, lsl #20
     848:	07020600 	streq	r0, [r2, -r0, lsl #12]
     84c:	0000003e 	andeq	r0, r0, lr, lsr r0
     850:	01050406 	tsteq	r5, r6, lsl #8
     854:	02000001 	andeq	r0, r0, #1
     858:	000001a0 	andeq	r0, r0, r0, lsr #3
     85c:	00904103 	addseq	r4, r0, r3, lsl #2
     860:	04060000 	streq	r0, [r6], #-0
     864:	00007107 	andeq	r7, r0, r7, lsl #2
     868:	05080600 	streq	r0, [r8, #-1536]	; 0xfffffa00
     86c:	000000fc 	strdeq	r0, [r0], -ip
     870:	6c070806 	stcvs	8, cr0, [r7], {6}
     874:	07000000 	streq	r0, [r0, -r0]
     878:	6e690504 	cdpvs	5, 6, cr0, cr9, cr4, {0}
     87c:	04060074 	streq	r0, [r6], #-116	; 0xffffff8c
     880:	00007607 	andeq	r7, r0, r7, lsl #12
     884:	02270200 	eoreq	r0, r7, #0, 4
     888:	14040000 	strne	r0, [r4], #-0
     88c:	0000005e 	andeq	r0, r0, lr, asr r0
     890:	0001a202 	andeq	sl, r1, r2, lsl #4
     894:	85200400 	strhi	r0, [r0, #-1024]!	; 0xfffffc00
     898:	08000000 	stmdaeq	r0, {}	; <UNPREDICTABLE>
     89c:	0004d501 	andeq	sp, r4, r1, lsl #10
     8a0:	01060100 	mrseq	r0, (UNDEF: 22)
     8a4:	000000f4 	strdeq	r0, [r0], -r4
     8a8:	00000528 	andeq	r0, r0, r8, lsr #10
     8ac:	0000054c 	andeq	r0, r0, ip, asr #10
     8b0:	000002c6 	andeq	r0, r0, r6, asr #5
     8b4:	000000f4 	strdeq	r0, [r0], -r4
     8b8:	00686309 	rsbeq	r6, r8, r9, lsl #6
     8bc:	00fb0601 	rscseq	r0, fp, r1, lsl #12
     8c0:	91020000 	mrsls	r0, (UNDEF: 2)
     8c4:	01060074 	tsteq	r6, r4, ror r0
     8c8:	00003908 	andeq	r3, r0, r8, lsl #18
     8cc:	b3040a00 	movwlt	r0, #18944	; 0x4a00
     8d0:	08000000 	stmdaeq	r0, {}	; <UNPREDICTABLE>
     8d4:	00051601 	andeq	r1, r5, r1, lsl #12
     8d8:	01110100 	tsteq	r1, r0, lsl #2
     8dc:	000000a5 	andeq	r0, r0, r5, lsr #1
     8e0:	0000054c 	andeq	r0, r0, ip, asr #10
     8e4:	0000058c 	andeq	r0, r0, ip, lsl #11
     8e8:	00000322 	andeq	r0, r0, r2, lsr #6
     8ec:	00000138 	andeq	r0, r0, r8, lsr r1
     8f0:	00686309 	rsbeq	r6, r8, r9, lsl #6
     8f4:	00f41101 	rscseq	r1, r4, r1, lsl #2
     8f8:	91020000 	mrsls	r0, (UNDEF: 2)
     8fc:	00690b6f 	rsbeq	r0, r9, pc, ror #22
     900:	00be1301 	adcseq	r1, lr, r1, lsl #6
     904:	91020000 	mrsls	r0, (UNDEF: 2)
     908:	01080074 	tsteq	r8, r4, ror r0
     90c:	00000507 	andeq	r0, r0, r7, lsl #10
     910:	a5011c01 	strge	r1, [r1, #-3073]	; 0xfffff3ff
     914:	8c000000 	stchi	0, cr0, [r0], {-0}
     918:	c0000005 	andgt	r0, r0, r5
     91c:	7e000005 	cdpvc	0, 0, cr0, cr0, cr5, {0}
     920:	63000003 	movwvs	r0, #3
     924:	09000001 	stmdbeq	r0, {r0}
     928:	01006863 	tsteq	r0, r3, ror #16
     92c:	0000f41c 	andeq	pc, r0, ip, lsl r4	; <UNPREDICTABLE>
     930:	77910200 	ldrvc	r0, [r1, r0, lsl #4]
     934:	2c010800 	stccs	8, cr0, [r1], {-0}
     938:	01000005 	tsteq	r0, r5
     93c:	00a50121 	adceq	r0, r5, r1, lsr #2
     940:	05c00000 	strbeq	r0, [r0]
     944:	06000000 	streq	r0, [r0], -r0
     948:	03da0000 	bicseq	r0, sl, #0
     94c:	018e0000 	orreq	r0, lr, r0
     950:	63090000 	movwvs	r0, #36864	; 0x9000
     954:	21010068 	tstcs	r1, r8, rrx
     958:	000000f4 	strdeq	r0, [r0], -r4
     95c:	00779102 	rsbseq	r9, r7, r2, lsl #2
     960:	04c20108 	strbeq	r0, [r2], #264	; 0x108
     964:	26010000 	strcs	r0, [r1], -r0
     968:	0000a501 	andeq	sl, r0, r1, lsl #10
     96c:	00060000 	andeq	r0, r6, r0
     970:	00063a00 	andeq	r3, r6, r0, lsl #20
     974:	00043600 	andeq	r3, r4, r0, lsl #12
     978:	0001d300 	andeq	sp, r1, r0, lsl #6
     97c:	68630900 	stmdavs	r3!, {r8, fp}^
     980:	f4260100 	vld4.8	{d0,d2,d4,d6}, [r6], r0
     984:	02000000 	andeq	r0, r0, #0
     988:	630b6f91 	movwvs	r6, #49041	; 0xbf91
     98c:	28010031 	stmdacs	r1, {r0, r4, r5}
     990:	000000b3 	strheq	r0, [r0], -r3
     994:	0b779102 	bleq	1de4da4 <_etext+0x1de26ab>
     998:	01003263 	tsteq	r0, r3, ror #4
     99c:	0000b329 	andeq	fp, r0, r9, lsr #6
     9a0:	76910200 	ldrvc	r0, [r1], r0, lsl #4
     9a4:	30010800 	andcc	r0, r1, r0, lsl #16
     9a8:	01000004 	tsteq	r0, r4
     9ac:	00a50136 	adceq	r0, r5, r6, lsr r1
     9b0:	063c0000 	ldrteq	r0, [ip], -r0
     9b4:	066e0000 	strbteq	r0, [lr], -r0
     9b8:	04860000 	streq	r0, [r6], #0
     9bc:	01ff0000 	mvnseq	r0, r0
     9c0:	73090000 	movwvc	r0, #36864	; 0x9000
     9c4:	01007274 	tsteq	r0, r4, ror r2
     9c8:	0001ff36 	andeq	pc, r1, r6, lsr pc	; <UNPREDICTABLE>
     9cc:	74910200 	ldrvc	r0, [r1], #512	; 0x200
     9d0:	f4040a00 	vst1.8	{d0-d1}, [r4], r0
     9d4:	08000000 	stmdaeq	r0, {}	; <UNPREDICTABLE>
     9d8:	00047101 	andeq	r7, r4, r1, lsl #2
     9dc:	01400100 	mrseq	r0, (UNDEF: 80)
     9e0:	000000a5 	andeq	r0, r0, r5, lsr #1
     9e4:	00000670 	andeq	r0, r0, r0, ror r6
     9e8:	000006e4 	andeq	r0, r0, r4, ror #13
     9ec:	000004d6 	ldrdeq	r0, [r0], -r6
     9f0:	00000267 	andeq	r0, r0, r7, ror #4
     9f4:	6c617609 	stclvs	6, cr7, [r1], #-36	; 0xffffffdc
     9f8:	be400100 	dvflts	f0, f0, f0
     9fc:	02000000 	andeq	r0, r0, #0
     a00:	3b0c6c91 	blcc	31bc4c <_etext+0x319553>
     a04:	01000004 	tsteq	r0, r4
     a08:	0000be40 	andeq	fp, r0, r0, asr #28
     a0c:	68910200 	ldmvs	r1, {r9}
     a10:	0100690b 	tsteq	r0, fp, lsl #18
     a14:	0000a542 	andeq	sl, r0, r2, asr #10
     a18:	74910200 	ldrvc	r0, [r1], #512	; 0x200
     a1c:	0004a70d 	andeq	sl, r4, sp, lsl #14
     a20:	f4430100 	vst4.8	{d16,d18,d20,d22}, [r3], r0
     a24:	02000000 	andeq	r0, r0, #0
     a28:	610b7391 			; <UNDEFINED> instruction: 0x610b7391
     a2c:	01006373 	tsteq	r0, r3, ror r3
     a30:	0000f443 	andeq	pc, r0, r3, asr #8
     a34:	72910200 	addsvc	r0, r1, #0, 4
     a38:	37010800 	strcc	r0, [r1, -r0, lsl #16]
     a3c:	01000005 	tsteq	r0, r5
     a40:	00a50151 	adceq	r0, r5, r1, asr r1
     a44:	06e40000 	strbteq	r0, [r4], r0
     a48:	07580000 	ldrbeq	r0, [r8, -r0]
     a4c:	05260000 	streq	r0, [r6, #-0]!
     a50:	02c90000 	sbceq	r0, r9, #0
     a54:	76090000 	strvc	r0, [r9], -r0
     a58:	01006c61 	tsteq	r0, r1, ror #24
     a5c:	0000be51 	andeq	fp, r0, r1, asr lr
     a60:	6c910200 	lfmvs	f0, 4, [r1], {0}
     a64:	00043b0c 	andeq	r3, r4, ip, lsl #22
     a68:	be510100 	rdflts	f0, f1, f0
     a6c:	02000000 	andeq	r0, r0, #0
     a70:	690b6891 	stmdbvs	fp, {r0, r4, r7, fp, sp, lr}
     a74:	a5530100 	ldrbge	r0, [r3, #-256]	; 0xffffff00
     a78:	02000000 	andeq	r0, r0, #0
     a7c:	a70d7491 			; <UNDEFINED> instruction: 0xa70d7491
     a80:	01000004 	tsteq	r0, r4
     a84:	0000f454 	andeq	pc, r0, r4, asr r4	; <UNPREDICTABLE>
     a88:	73910200 	orrsvc	r0, r1, #0, 4
     a8c:	6373610b 	cmnvs	r3, #-1073741822	; 0xc0000002
     a90:	f4540100 			; <UNDEFINED> instruction: 0xf4540100
     a94:	02000000 	andeq	r0, r0, #0
     a98:	08007291 	stmdaeq	r0, {r0, r4, r7, r9, ip, sp, lr}
     a9c:	00052101 	andeq	r2, r5, r1, lsl #2
     aa0:	017c0100 	cmneq	ip, r0, lsl #2
     aa4:	000000a5 	andeq	r0, r0, r5, lsr #1
     aa8:	00000758 	andeq	r0, r0, r8, asr r7
     aac:	000009cc 	andeq	r0, r0, ip, asr #19
     ab0:	00000576 	andeq	r0, r0, r6, ror r5
     ab4:	0000032b 	andeq	r0, r0, fp, lsr #6
     ab8:	6c617609 	stclvs	6, cr7, [r1], #-36	; 0xffffffdc
     abc:	be7c0100 	rpwlte	f0, f4, f0
     ac0:	02000000 	andeq	r0, r0, #0
     ac4:	690b6491 	stmdbvs	fp, {r0, r4, r7, sl, sp, lr}
     ac8:	be7e0100 	rpwlte	f0, f6, f0
     acc:	02000000 	andeq	r0, r0, #0
     ad0:	740b7491 	strvc	r7, [fp], #-1169	; 0xfffffb6f
     ad4:	0100706d 	tsteq	r0, sp, rrx
     ad8:	0000be7f 	andeq	fp, r0, pc, ror lr
     adc:	70910200 	addsvc	r0, r1, r0, lsl #4
     ae0:	00048a0d 	andeq	r8, r4, sp, lsl #20
     ae4:	be7f0100 	rpwlte	f0, f7, f0
     ae8:	02000000 	andeq	r0, r0, #0
     aec:	610b6c91 			; <UNDEFINED> instruction: 0x610b6c91
     af0:	01006373 	tsteq	r0, r3, ror r3
     af4:	0000f480 	andeq	pc, r0, r0, lsl #9
     af8:	6b910200 	blvs	fe441300 <_stack_top+0xde435300>
     afc:	48010e00 	stmdami	r1, {r9, sl, fp}
     b00:	01000004 	tsteq	r0, r4
     b04:	09cc01c0 	stmibeq	ip, {r6, r7, r8}^
     b08:	09dc0000 	ldmibeq	ip, {}^	; <UNPREDICTABLE>
     b0c:	05c60000 	strbeq	r0, [r6]
     b10:	03540000 	cmpeq	r4, #0
     b14:	66090000 	strvs	r0, [r9], -r0
     b18:	0100746d 	tsteq	r0, sp, ror #8
     b1c:	000354c0 	andeq	r5, r3, r0, asr #9
     b20:	70910200 	addsvc	r0, r1, r0, lsl #4
     b24:	040a000f 	streq	r0, [sl], #-15
     b28:	0000035a 	andeq	r0, r0, sl, asr r3
     b2c:	0000f410 	andeq	pc, r0, r0, lsl r4	; <UNPREDICTABLE>
     b30:	4b010e00 	blmi	44338 <_etext+0x41c3f>
     b34:	01000004 	tsteq	r0, r4
     b38:	09dc01c5 	ldmibeq	ip, {r0, r2, r6, r7, r8}^
     b3c:	0b600000 	bleq	1800b44 <_etext+0x17fe44b>
     b40:	06220000 	strteq	r0, [r2], -r0
     b44:	03b00000 	movseq	r0, #0
     b48:	66090000 	strvs	r0, [r9], -r0
     b4c:	0100746d 	tsteq	r0, sp, ror #8
     b50:	000354c5 	andeq	r5, r3, r5, asr #9
     b54:	70910200 	addsvc	r0, r1, r0, lsl #4
     b58:	00630b0f 	rsbeq	r0, r3, pc, lsl #22
     b5c:	00f4c701 	rscseq	ip, r4, r1, lsl #14
     b60:	91020000 	mrsls	r0, (UNDEF: 2)
     b64:	043b0d63 	ldrteq	r0, [fp], #-3427	; 0xfffff29d
     b68:	c8010000 	stmdagt	r1, {}	; <UNPREDICTABLE>
     b6c:	000000be 	strheq	r0, [r0], -lr
     b70:	0d649102 	stfeqp	f1, [r4, #-8]!
     b74:	000004df 	ldrdeq	r0, [r0], -pc	; <UNPREDICTABLE>
     b78:	004cc901 	subeq	ip, ip, r1, lsl #18
     b7c:	91020000 	mrsls	r0, (UNDEF: 2)
     b80:	0108005c 	qaddeq	r0, ip, r8
     b84:	0000045c 	andeq	r0, r0, ip, asr r4
     b88:	a501f901 	strge	pc, [r1, #-2305]	; 0xfffff6ff
     b8c:	60000000 	andvs	r0, r0, r0
     b90:	a200000b 	andge	r0, r0, #11
     b94:	9600000b 	strls	r0, [r0], -fp
     b98:	0f000006 	svceq	0x00000006
     b9c:	09000004 	stmdbeq	r0, {r2}
     ba0:	006d656d 	rsbeq	r6, sp, sp, ror #10
     ba4:	004af901 	subeq	pc, sl, r1, lsl #18
     ba8:	91020000 	mrsls	r0, (UNDEF: 2)
     bac:	6176096c 	cmnvs	r6, ip, ror #18
     bb0:	f901006c 			; <UNDEFINED> instruction: 0xf901006c
     bb4:	000000b3 	strheq	r0, [r0], -r3
     bb8:	096b9102 	stmdbeq	fp!, {r1, r8, ip, pc}^
     bbc:	01007a73 	tsteq	r0, r3, ror sl
     bc0:	0000bef9 	strdeq	fp, [r0], -r9
     bc4:	64910200 	ldrvs	r0, [r1], #512	; 0x200
     bc8:	0100700b 	tsteq	r0, fp
     bcc:	0000fbfb 	strdeq	pc, [r0], -fp
     bd0:	74910200 	ldrvc	r0, [r1], #512	; 0x200
     bd4:	0100690b 	tsteq	r0, fp, lsl #18
     bd8:	0000a5fc 	strdeq	sl, [r0], -ip
     bdc:	70910200 	addsvc	r0, r1, r0, lsl #4
     be0:	23011100 	movwcs	r1, #4352	; 0x1100
     be4:	01000004 	tsteq	r0, r4
     be8:	a5010103 	strge	r0, [r1, #-259]	; 0xfffffefd
     bec:	a4000000 	strge	r0, [r0], #-0
     bf0:	ee00000b 	cdp	0, 0, cr0, cr0, cr11, {0}
     bf4:	f200000b 	vhadd.s8	d0, d0, d11
     bf8:	85000006 	strhi	r0, [r0, #-6]
     bfc:	12000004 	andne	r0, r0, #4
     c00:	00747364 	rsbseq	r7, r4, r4, ror #6
     c04:	4a010301 	bmi	41810 <_etext+0x3f117>
     c08:	02000000 	andeq	r0, r0, #0
     c0c:	73126491 	tstvc	r2, #-1862270976	; 0x91000000
     c10:	01006372 	tsteq	r0, r2, ror r3
     c14:	04850103 	streq	r0, [r5], #259	; 0x103
     c18:	91020000 	mrsls	r0, (UNDEF: 2)
     c1c:	7a731260 	bvc	1cc55a4 <_etext+0x1cc2eab>
     c20:	01030100 	mrseq	r0, (UNDEF: 19)
     c24:	000000be 	strheq	r0, [r0], -lr
     c28:	135c9102 	cmpne	ip, #-2147483648	; 0x80000000
     c2c:	00000484 	andeq	r0, r0, r4, lsl #9
     c30:	fb010501 	blx	4203e <_etext+0x3f945>
     c34:	02000000 	andeq	r0, r0, #0
     c38:	2a137491 	bcs	4dde84 <_etext+0x4db78b>
     c3c:	01000004 	tsteq	r0, r4
     c40:	00fb0106 	rscseq	r0, fp, r6, lsl #2
     c44:	91020000 	mrsls	r0, (UNDEF: 2)
     c48:	00691470 	rsbeq	r1, r9, r0, ror r4
     c4c:	a5010701 	strge	r0, [r1, #-1793]	; 0xfffff8ff
     c50:	02000000 	andeq	r0, r0, #0
     c54:	0a006c91 	beq	1bea0 <_etext+0x197a7>
     c58:	00048b04 	andeq	r8, r4, r4, lsl #22
     c5c:	01111500 	tsteq	r1, r0, lsl #10
     c60:	00000441 	andeq	r0, r0, r1, asr #8
     c64:	01010e01 	tsteq	r1, r1, lsl #28
     c68:	000000a5 	andeq	r0, r0, r5, lsr #1
     c6c:	00000bf0 	strdeq	r0, [r0], -r0	; <UNPREDICTABLE>
     c70:	00000c50 	andeq	r0, r0, r0, asr ip
     c74:	0000074e 	andeq	r0, r0, lr, asr #14
     c78:	00000502 	andeq	r0, r0, r2, lsl #10
     c7c:	00046c16 	andeq	r6, r4, r6, lsl ip
     c80:	010e0100 	mrseq	r0, (UNDEF: 30)
     c84:	0000004a 	andeq	r0, r0, sl, asr #32
     c88:	16649102 	strbtne	r9, [r4], -r2, lsl #2
     c8c:	000004d0 	ldrdeq	r0, [r0], -r0	; <UNPREDICTABLE>
     c90:	4a010e01 	bmi	4449c <_etext+0x41da3>
     c94:	02000000 	andeq	r0, r0, #0
     c98:	73126091 	tstvc	r2, #145	; 0x91
     c9c:	0e01007a 	mcreq	0, 0, r0, cr1, cr10, {3}
     ca0:	0000be01 	andeq	fp, r0, r1, lsl #28
     ca4:	5c910200 	lfmpl	f0, 4, [r1], {0}
     ca8:	00046a13 	andeq	r6, r4, r3, lsl sl
     cac:	01100100 	tsteq	r0, r0, lsl #2
     cb0:	000000fb 	strdeq	r0, [r0], -fp
     cb4:	13749102 	cmnne	r4, #-2147483648	; 0x80000000
     cb8:	000004ce 	andeq	r0, r0, lr, asr #9
     cbc:	fb011101 	blx	450ca <_etext+0x429d1>
     cc0:	02000000 	andeq	r0, r0, #0
     cc4:	69147091 	ldmdbvs	r4, {r0, r4, r7, ip, sp, lr}
     cc8:	01120100 	tsteq	r2, r0, lsl #2
     ccc:	000000a5 	andeq	r0, r0, r5, lsr #1
     cd0:	006c9102 	rsbeq	r9, ip, r2, lsl #2
     cd4:	04f10111 	ldrbteq	r0, [r1], #273	; 0x111
     cd8:	21010000 	mrscs	r0, (UNDEF: 1)
     cdc:	00a50101 	adceq	r0, r5, r1, lsl #2
     ce0:	0c500000 	mraeq	r0, r0, acc0
     ce4:	0ca40000 	stceq	0, cr0, [r4]
     ce8:	07aa0000 	streq	r0, [sl, r0]!
     cec:	055b0000 	ldrbeq	r0, [fp, #-0]
     cf0:	f2160000 	vhadd.s16	d0, d6, d0
     cf4:	01000003 	tsteq	r0, r3
     cf8:	01ff0121 	mvnseq	r0, r1, lsr #2
     cfc:	91020000 	mrsls	r0, (UNDEF: 2)
     d00:	040a166c 	streq	r1, [sl], #-1644	; 0xfffff994
     d04:	21010000 	mrscs	r0, (UNDEF: 1)
     d08:	0001ff01 	andeq	pc, r1, r1, lsl #30
     d0c:	68910200 	ldmvs	r1, {r9}
     d10:	00317014 	eorseq	r7, r1, r4, lsl r0
     d14:	ff012301 			; <UNDEFINED> instruction: 0xff012301
     d18:	02000001 	andeq	r0, r0, #1
     d1c:	70147491 	mulsvc	r4, r1, r4
     d20:	23010032 	movwcs	r0, #4146	; 0x1032
     d24:	0001ff01 	andeq	pc, r1, r1, lsl #30
     d28:	70910200 	addsvc	r0, r1, r0, lsl #4
     d2c:	0e011100 	adfeqs	f1, f1, f0
     d30:	01000005 	tsteq	r0, r5
     d34:	a501012d 	strge	r0, [r1, #-301]	; 0xfffffed3
     d38:	a4000000 	strge	r0, [r0], #-0
     d3c:	0800000c 	stmdaeq	r0, {r2, r3}
     d40:	0600000d 	streq	r0, [r0], -sp
     d44:	cf000008 	svcgt	0x00000008
     d48:	16000005 	strne	r0, [r0], -r5
     d4c:	000003f2 	strdeq	r0, [r0], -r2
     d50:	ff012d01 			; <UNDEFINED> instruction: 0xff012d01
     d54:	02000001 	andeq	r0, r0, #1
     d58:	0a166491 	beq	599fa4 <_etext+0x5978ab>
     d5c:	01000004 	tsteq	r0, r4
     d60:	01ff012d 	mvnseq	r0, sp, lsr #2
     d64:	91020000 	mrsls	r0, (UNDEF: 2)
     d68:	7a731260 	bvc	1cc56f0 <_etext+0x1cc2ff7>
     d6c:	012d0100 			; <UNDEFINED> instruction: 0x012d0100
     d70:	000000be 	strheq	r0, [r0], -lr
     d74:	145c9102 	ldrbne	r9, [ip], #-258	; 0xfffffefe
     d78:	01003170 	tsteq	r0, r0, ror r1
     d7c:	01ff012f 	mvnseq	r0, pc, lsr #2
     d80:	91020000 	mrsls	r0, (UNDEF: 2)
     d84:	32701474 	rsbscc	r1, r0, #116, 8	; 0x74000000
     d88:	012f0100 			; <UNDEFINED> instruction: 0x012f0100
     d8c:	000001ff 	strdeq	r0, [r0], -pc	; <UNPREDICTABLE>
     d90:	14709102 	ldrbtne	r9, [r0], #-258	; 0xfffffefe
     d94:	30010069 	andcc	r0, r1, r9, rrx
     d98:	0000a501 	andeq	sl, r0, r1, lsl #10
     d9c:	6c910200 	lfmvs	f0, 4, [r1], {0}
     da0:	7c011100 	stfvcs	f1, [r1], {-0}
     da4:	01000004 	tsteq	r0, r4
     da8:	a501013e 	strge	r0, [r1, #-318]	; 0xfffffec2
     dac:	08000000 	stmdaeq	r0, {}	; <UNPREDICTABLE>
     db0:	f000000d 			; <UNDEFINED> instruction: 0xf000000d
     db4:	6200000d 	andvs	r0, r0, #13
     db8:	46000008 	strmi	r0, [r0], -r8
     dbc:	12000006 	andne	r0, r0, #6
     dc0:	00727473 	rsbseq	r7, r2, r3, ror r4
     dc4:	ff013e01 			; <UNDEFINED> instruction: 0xff013e01
     dc8:	02000001 	andeq	r0, r0, #1
     dcc:	76126491 			; <UNDEFINED> instruction: 0x76126491
     dd0:	01006c61 	tsteq	r0, r1, ror #24
     dd4:	0646013e 			; <UNDEFINED> instruction: 0x0646013e
     dd8:	91020000 	mrsls	r0, (UNDEF: 2)
     ddc:	00701460 	rsbseq	r1, r0, r0, ror #8
     de0:	ff014001 			; <UNDEFINED> instruction: 0xff014001
     de4:	02000001 	andeq	r0, r0, #1
     de8:	f7137491 			; <UNDEFINED> instruction: 0xf7137491
     dec:	01000003 	tsteq	r0, r3
     df0:	00be0141 	adcseq	r0, lr, r1, asr #2
     df4:	91020000 	mrsls	r0, (UNDEF: 2)
     df8:	01841370 	orreq	r1, r4, r0, ror r3
     dfc:	42010000 	andmi	r0, r1, #0
     e00:	0000be01 	andeq	fp, r0, r1, lsl #28
     e04:	6c910200 	lfmvs	f0, 4, [r1], {0}
     e08:	6d756e14 	ldclvs	14, cr6, [r5, #-80]!	; 0xffffffb0
     e0c:	01420100 	mrseq	r0, (UNDEF: 82)
     e10:	000000be 	strheq	r0, [r0], -lr
     e14:	00689102 	rsbeq	r9, r8, r2, lsl #2
     e18:	00be040a 	adcseq	r0, lr, sl, lsl #8
     e1c:	01110000 	tsteq	r1, r0
     e20:	00000463 	andeq	r0, r0, r3, ror #8
     e24:	01016701 	tsteq	r1, r1, lsl #14
     e28:	000000a5 	andeq	r0, r0, r5, lsr #1
     e2c:	00000df0 	strdeq	r0, [r0], -r0	; <UNPREDICTABLE>
     e30:	00000e36 	andeq	r0, r0, r6, lsr lr
     e34:	000008b2 			; <UNDEFINED> instruction: 0x000008b2
     e38:	000006a5 	andeq	r0, r0, r5, lsr #13
     e3c:	72747312 	rsbsvc	r7, r4, #1207959552	; 0x48000000
     e40:	01670100 	cmneq	r7, r0, lsl #2
     e44:	000001ff 	strdeq	r0, [r0], -pc	; <UNPREDICTABLE>
     e48:	126c9102 	rsbne	r9, ip, #-2147483648	; 0x80000000
     e4c:	006c6176 	rsbeq	r6, ip, r6, ror r1
     e50:	a5016701 	strge	r6, [r1, #-1793]	; 0xfffff8ff
     e54:	02000006 	andeq	r0, r0, #6
     e58:	70146891 	mulsvc	r4, r1, r8
     e5c:	01690100 	cmneq	r9, r0, lsl #2
     e60:	000001ff 	strdeq	r0, [r0], -pc	; <UNPREDICTABLE>
     e64:	14749102 	ldrbtne	r9, [r4], #-258	; 0xfffffefe
     e68:	00746572 	rsbseq	r6, r4, r2, ror r5
     e6c:	a5016a01 	strge	r6, [r1, #-2561]	; 0xfffff5ff
     e70:	02000000 	andeq	r0, r0, #0
     e74:	0a007091 	beq	1d0c0 <_etext+0x1a9c7>
     e78:	0000a504 	andeq	sl, r0, r4, lsl #10
     e7c:	b4011100 	strlt	r1, [r1], #-256	; 0xffffff00
     e80:	01000004 	tsteq	r0, r4
     e84:	be010175 	mcrlt	1, 0, r0, cr1, cr5, {3}
     e88:	38000000 	stmdacc	r0, {}	; <UNPREDICTABLE>
     e8c:	6400000e 	strvs	r0, [r0], #-14
     e90:	0200000e 	andeq	r0, r0, #14
     e94:	e6000009 	str	r0, [r0], -r9
     e98:	12000006 	andne	r0, r0, #6
     e9c:	00727473 	rsbseq	r7, r2, r3, ror r4
     ea0:	ff017501 			; <UNDEFINED> instruction: 0xff017501
     ea4:	02000001 	andeq	r0, r0, #1
     ea8:	70146c91 	mulsvc	r4, r1, ip
     eac:	01770100 	cmneq	r7, r0, lsl #2
     eb0:	000001ff 	strdeq	r0, [r0], -pc	; <UNPREDICTABLE>
     eb4:	00749102 	rsbseq	r9, r4, r2, lsl #2
     eb8:	04bb0111 	ldrteq	r0, [fp], #273	; 0x111
     ebc:	7e010000 	cdpvc	0, 0, cr0, cr1, cr0, {0}
     ec0:	00a50101 	adceq	r0, r5, r1, lsl #2
     ec4:	0e640000 	cdpeq	0, 6, cr0, cr4, cr0, {0}
     ec8:	0ea80000 	cdpeq	0, 10, cr0, cr8, cr0, {0}
     ecc:	095e0000 	ldmdbeq	lr, {}^	; <UNPREDICTABLE>
     ed0:	07410000 	strbeq	r0, [r1, -r0]
     ed4:	64120000 	ldrvs	r0, [r2], #-0
     ed8:	01007473 	tsteq	r0, r3, ror r4
     edc:	01ff017e 	mvnseq	r0, lr, ror r1
     ee0:	91020000 	mrsls	r0, (UNDEF: 2)
     ee4:	7273126c 	rsbsvc	r1, r3, #108, 4	; 0xc0000006
     ee8:	7e010063 	cdpvc	0, 0, cr0, cr1, cr3, {3}
     eec:	0001ff01 	andeq	pc, r1, r1, lsl #30
     ef0:	68910200 	ldmvs	r1, {r9}
     ef4:	00048413 	andeq	r8, r4, r3, lsl r4
     ef8:	01800100 	orreq	r0, r0, r0, lsl #2
     efc:	000001ff 	strdeq	r0, [r0], -pc	; <UNPREDICTABLE>
     f00:	13749102 	cmnne	r4, #-2147483648	; 0x80000000
     f04:	0000042a 	andeq	r0, r0, sl, lsr #8
     f08:	ff018001 			; <UNDEFINED> instruction: 0xff018001
     f0c:	02000001 	andeq	r0, r0, #1
     f10:	17007091 			; <UNDEFINED> instruction: 0x17007091
     f14:	00000402 	andeq	r0, r0, r2, lsl #8
     f18:	07530401 	ldrbeq	r0, [r3, -r1, lsl #8]
     f1c:	05010000 	streq	r0, [r1, #-0]
     f20:	00252803 	eoreq	r2, r5, r3, lsl #16
     f24:	07581000 	ldrbeq	r1, [r8, -r0]
     f28:	040a0000 	streq	r0, [sl], #-0
     f2c:	0000075e 	andeq	r0, r0, lr, asr r7
     f30:	0000be18 	andeq	fp, r0, r8, lsl lr
     f34:	00f41900 	rscseq	r1, r4, r0, lsl #18
     f38:	07730000 	ldrbeq	r0, [r3, -r0]!
     f3c:	731a0000 	tstvc	sl, #0
     f40:	0f000007 	svceq	0x00000007
     f44:	07040600 	streq	r0, [r4, -r0, lsl #12]
     f48:	000000f3 	strdeq	r0, [r0], -r3
     f4c:	00041517 	andeq	r1, r4, r7, lsl r5
     f50:	8c0c0100 	stfhis	f0, [ip], {-0}
     f54:	01000007 	tsteq	r0, r7
     f58:	252c0305 	strcs	r0, [ip, #-773]!	; 0xfffffcfb
     f5c:	63100000 	tstvs	r0, #0
     f60:	17000007 	strne	r0, [r0, -r7]
     f64:	0000040f 	andeq	r0, r0, pc, lsl #8
     f68:	07a30e01 	streq	r0, [r3, r1, lsl #28]!
     f6c:	05010000 	streq	r0, [r1, #-0]
     f70:	00253c03 	eoreq	r3, r5, r3, lsl #24
     f74:	07631000 	strbeq	r1, [r3, -r0]!
     f78:	be190000 	cdplt	0, 1, cr0, cr9, cr0, {0}
     f7c:	b8000000 	stmdalt	r0, {}	; <UNPREDICTABLE>
     f80:	1a000007 	bne	fa4 <task_init+0x6c>
     f84:	00000773 	andeq	r0, r0, r3, ror r7
     f88:	90170008 	andsls	r0, r7, r8
     f8c:	01000004 	tsteq	r0, r4
     f90:	0007ca79 	andeq	ip, r7, r9, ror sl
     f94:	03050100 	movweq	r0, #20736	; 0x5100
     f98:	0000254c 	andeq	r2, r0, ip, asr #10
     f9c:	0007a810 	andeq	sl, r7, r0, lsl r8
     fa0:	004d0000 	subeq	r0, sp, r0
     fa4:	00020000 	andeq	r0, r2, r0
     fa8:	000003e2 	andeq	r0, r0, r2, ror #7
     fac:	03f00104 	mvnseq	r0, #4, 2
     fb0:	0ea80000 	cdpeq	0, 10, cr0, cr8, cr0, {0}
     fb4:	0f2c0000 	svceq	0x002c0000
     fb8:	6d630000 	stclvs	0, cr0, [r3, #-0]
     fbc:	2e735f33 	mrccs	15, 3, r5, cr3, cr3, {1}
     fc0:	6d2f0073 	stcvs	0, cr0, [pc, #-460]!	; dfc <strtol+0xc>
     fc4:	652f746e 	strvs	r7, [pc, #-1134]!	; b5e <printk+0x182>
     fc8:	6972772f 	ldmdbvs	r2!, {r0, r1, r2, r3, r5, r8, r9, sl, ip, sp, lr}^
     fcc:	725f6574 	subsvc	r6, pc, #116, 10	; 0x1d000000
     fd0:	5f736f74 	svcpl	0x00736f74
     fd4:	335f6e69 	cmpcc	pc, #1680	; 0x690
     fd8:	73796164 	cmnvc	r9, #100, 2
     fdc:	5f36312f 	svcpl	0x0036312f
     fe0:	67616c66 	strbvs	r6, [r1, -r6, ror #24]!
     fe4:	554e4700 	strbpl	r4, [lr, #-1792]	; 0xfffff900
     fe8:	20534120 	subscs	r4, r3, r0, lsr #2
     fec:	36322e32 			; <UNDEFINED> instruction: 0x36322e32
     ff0:	f3800100 	vaddw.u8	q0, q0, d0
     ff4:	02000009 	andeq	r0, r0, #9
     ff8:	0003f600 	andeq	pc, r3, r0, lsl #12
     ffc:	83010400 	movwhi	r0, #5120	; 0x1400
    1000:	01000000 	mrseq	r0, (UNDEF: 0)
    1004:	000005b5 			; <UNDEFINED> instruction: 0x000005b5
    1008:	00000000 	andeq	r0, r0, r0
    100c:	00000f2c 	andeq	r0, r0, ip, lsr #30
    1010:	000017c0 	andeq	r1, r0, r0, asr #15
    1014:	00000458 	andeq	r0, r0, r8, asr r4
    1018:	32060102 	andcc	r0, r6, #-2147483648	; 0x80000000
    101c:	03000000 	movweq	r0, #0
    1020:	00000225 	andeq	r0, r0, r5, lsr #4
    1024:	00371d02 	eorseq	r1, r7, r2, lsl #26
    1028:	01020000 	mrseq	r0, (UNDEF: 2)
    102c:	00003008 	andeq	r3, r0, r8
    1030:	05020200 	streq	r0, [r2, #-512]	; 0xfffffe00
    1034:	0000010a 	andeq	r0, r0, sl, lsl #2
    1038:	3e070202 	cdpcc	2, 0, cr0, cr7, cr2, {0}
    103c:	02000000 	andeq	r0, r0, #0
    1040:	01010504 	tsteq	r1, r4, lsl #10
    1044:	a0030000 	andge	r0, r3, r0
    1048:	02000001 	andeq	r0, r0, #1
    104c:	00005e41 	andeq	r5, r0, r1, asr #28
    1050:	07040200 	streq	r0, [r4, -r0, lsl #4]
    1054:	00000071 	andeq	r0, r0, r1, ror r0
    1058:	fc050802 	stc2	8, cr0, [r5], {2}
    105c:	02000000 	andeq	r0, r0, #0
    1060:	006c0708 	rsbeq	r0, ip, r8, lsl #14
    1064:	04040000 	streq	r0, [r4], #-0
    1068:	746e6905 	strbtvc	r6, [lr], #-2309	; 0xfffff6fb
    106c:	07040200 	streq	r0, [r4, -r0, lsl #4]
    1070:	00000076 	andeq	r0, r0, r6, ror r0
    1074:	00022703 	andeq	r2, r2, r3, lsl #14
    1078:	2c140300 	ldccs	3, cr0, [r4], {-0}
    107c:	03000000 	movweq	r0, #0
    1080:	000001a2 	andeq	r0, r0, r2, lsr #3
    1084:	00532003 	subseq	r2, r3, r3
    1088:	4a050000 	bmi	141090 <_etext+0x13e997>
    108c:	04000008 	streq	r0, [r0], #-8
    1090:	00b20704 	adcseq	r0, r2, r4, lsl #14
    1094:	10060000 	andne	r0, r6, r0
    1098:	04000008 	streq	r0, [r0], #-8
    109c:	00008c08 	andeq	r8, r0, r8, lsl #24
    10a0:	00230200 	eoreq	r0, r3, r0, lsl #4
    10a4:	06400300 	strbeq	r0, [r0], -r0, lsl #6
    10a8:	09040000 	stmdbeq	r4, {}	; <UNPREDICTABLE>
    10ac:	00000097 	muleq	r0, r7, r0
    10b0:	0001b605 	andeq	fp, r1, r5, lsl #12
    10b4:	12040800 	andne	r0, r4, #0, 16
    10b8:	000000e6 	andeq	r0, r0, r6, ror #1
    10bc:	00094a06 	andeq	r4, r9, r6, lsl #20
    10c0:	e6130400 	ldr	r0, [r3], -r0, lsl #8
    10c4:	02000000 	andeq	r0, r0, #0
    10c8:	54060023 	strpl	r0, [r6], #-35	; 0xffffffdd
    10cc:	04000009 	streq	r0, [r0], #-9
    10d0:	0000e614 	andeq	lr, r0, r4, lsl r6
    10d4:	04230200 	strteq	r0, [r3], #-512	; 0xfffffe00
    10d8:	bd040700 	stclt	7, cr0, [r4, #-0]
    10dc:	03000000 	movweq	r0, #0
    10e0:	0000018b 	andeq	r0, r0, fp, lsl #3
    10e4:	00bd1504 	adcseq	r1, sp, r4, lsl #10
    10e8:	97050000 	strls	r0, [r5, -r0]
    10ec:	0c000001 	stceq	0, cr0, [r0], {1}
    10f0:	01201904 			; <UNDEFINED> instruction: 0x01201904
    10f4:	30060000 	andcc	r0, r6, r0
    10f8:	04000009 	streq	r0, [r0], #-9
    10fc:	0000ec1a 	andeq	lr, r0, sl, lsl ip
    1100:	00230200 	eoreq	r0, r3, r0, lsl #4
    1104:	0001ab06 	andeq	sl, r1, r6, lsl #22
    1108:	8c1b0400 	cfldrshi	mvf0, [fp], {-0}
    110c:	02000000 	andeq	r0, r0, #0
    1110:	03000823 	movweq	r0, #2083	; 0x823
    1114:	00000172 	andeq	r0, r0, r2, ror r1
    1118:	00f71c04 	rscseq	r1, r7, r4, lsl #24
    111c:	fd030000 	stc2	0, cr0, [r3, #-0]
    1120:	05000002 	streq	r0, [r0, #-2]
    1124:	00008c0e 	andeq	r8, r0, lr, lsl #24
    1128:	022f0500 	eoreq	r0, pc, #0, 10
    112c:	05400000 	strbeq	r0, [r0, #-0]
    1130:	00020710 	andeq	r0, r2, r0, lsl r7
    1134:	02660600 	rsbeq	r0, r6, #0, 12
    1138:	12050000 	andne	r0, r5, #0
    113c:	00000207 	andeq	r0, r0, r7, lsl #4
    1140:	06002302 	streq	r2, [r0], -r2, lsl #6
    1144:	000002d8 	ldrdeq	r0, [r0], -r8
    1148:	008c1305 	addeq	r1, ip, r5, lsl #6
    114c:	23020000 	movwcs	r0, #8192	; 0x2000
    1150:	05f00604 	ldrbeq	r0, [r0, #1540]!	; 0x604
    1154:	14050000 	strne	r0, [r5], #-0
    1158:	0000008c 	andeq	r0, r0, ip, lsl #1
    115c:	06082302 	streq	r2, [r8], -r2, lsl #6
    1160:	00000133 	andeq	r0, r0, r3, lsr r1
    1164:	00ec1705 	rsceq	r1, ip, r5, lsl #14
    1168:	23020000 	movwcs	r0, #8192	; 0x2000
    116c:	016c060c 	cmneq	ip, ip, lsl #12
    1170:	18050000 	stmdane	r5, {}	; <UNPREDICTABLE>
    1174:	0000008c 	andeq	r0, r0, ip, lsl #1
    1178:	06142302 	ldreq	r2, [r4], -r2, lsl #6
    117c:	00000341 	andeq	r0, r0, r1, asr #6
    1180:	00ec1b05 	rsceq	r1, ip, r5, lsl #22
    1184:	23020000 	movwcs	r0, #8192	; 0x2000
    1188:	02600618 	rsbeq	r0, r0, #24, 12	; 0x1800000
    118c:	1c050000 	stcne	0, cr0, [r5], {-0}
    1190:	0000008c 	andeq	r0, r0, ip, lsl #1
    1194:	06202302 	strteq	r2, [r0], -r2, lsl #6
    1198:	000002f1 	strdeq	r0, [r0], -r1
    119c:	008c1f05 	addeq	r1, ip, r5, lsl #30
    11a0:	23020000 	movwcs	r0, #8192	; 0x2000
    11a4:	021f0624 	andseq	r0, pc, #36, 12	; 0x2400000
    11a8:	22050000 	andcs	r0, r5, #0
    11ac:	0000021b 	andeq	r0, r0, fp, lsl r2
    11b0:	06282302 	strteq	r2, [r8], -r2, lsl #6
    11b4:	00000127 	andeq	r0, r0, r7, lsr #2
    11b8:	02192305 	andseq	r2, r9, #335544320	; 0x14000000
    11bc:	23020000 	movwcs	r0, #8192	; 0x2000
    11c0:	02c7062c 	sbceq	r0, r7, #44, 12	; 0x2c00000
    11c4:	24050000 	strcs	r0, [r5], #-0
    11c8:	00000081 	andeq	r0, r0, r1, lsl #1
    11cc:	06302302 	ldrteq	r2, [r0], -r2, lsl #6
    11d0:	0000014c 	andeq	r0, r0, ip, asr #2
    11d4:	024a2705 	subeq	r2, sl, #1310720	; 0x140000
    11d8:	23020000 	movwcs	r0, #8192	; 0x2000
    11dc:	02940634 	addseq	r0, r4, #52, 12	; 0x3400000
    11e0:	28050000 	stmdacs	r5, {}	; <UNPREDICTABLE>
    11e4:	00000219 	andeq	r0, r0, r9, lsl r2
    11e8:	06382302 	ldrteq	r2, [r8], -r2, lsl #6
    11ec:	00000179 	andeq	r0, r0, r9, ror r1
    11f0:	008c2905 	addeq	r2, ip, r5, lsl #18
    11f4:	23020000 	movwcs	r0, #8192	; 0x2000
    11f8:	0407003c 	streq	r0, [r7], #-60	; 0xffffffc4
    11fc:	0000012b 	andeq	r0, r0, fp, lsr #2
    1200:	02190108 	andseq	r0, r9, #8, 2
    1204:	19090000 	stmdbne	r9, {}	; <UNPREDICTABLE>
    1208:	00000002 	andeq	r0, r0, r2
    120c:	0407040a 	streq	r0, [r7], #-1034	; 0xfffffbf6
    1210:	0000020d 	andeq	r0, r0, sp, lsl #4
    1214:	00015705 	andeq	r5, r1, r5, lsl #14
    1218:	10061000 	andne	r1, r6, r0
    121c:	0000024a 	andeq	r0, r0, sl, asr #4
    1220:	0000f706 	andeq	pc, r0, r6, lsl #14
    1224:	03110600 	tsteq	r1, #0, 12
    1228:	02000003 	andeq	r0, r0, #3
    122c:	37060023 	strcc	r0, [r6, -r3, lsr #32]
    1230:	06000003 	streq	r0, [r0], -r3
    1234:	00012012 	andeq	r2, r1, r2, lsl r0
    1238:	04230200 	strteq	r0, [r3], #-512	; 0xfffffe00
    123c:	21040700 	tstcs	r4, r0, lsl #14
    1240:	03000002 	movweq	r0, #2
    1244:	000001d8 	ldrdeq	r0, [r0], -r8
    1248:	01362b05 	teqeq	r6, r5, lsl #22
    124c:	da050000 	ble	141254 <_etext+0x13eb5b>
    1250:	14000005 	strne	r0, [r0], #-5
    1254:	02ae2d05 	adceq	r2, lr, #320	; 0x140
    1258:	d8060000 	stmdale	r6, {}	; <UNPREDICTABLE>
    125c:	05000002 	streq	r0, [r0, #-2]
    1260:	00008c2f 	andeq	r8, r0, pc, lsr #24
    1264:	00230200 	eoreq	r0, r3, r0, lsl #4
    1268:	0005f006 	andeq	pc, r5, r6
    126c:	8c300500 	cfldr32hi	mvfx0, [r0], #-0
    1270:	02000000 	andeq	r0, r0, #0
    1274:	6c060423 	cfstrsvs	mvf0, [r6], {35}	; 0x23
    1278:	05000001 	streq	r0, [r0, #-1]
    127c:	00008c31 	andeq	r8, r0, r1, lsr ip
    1280:	08230200 	stmdaeq	r3!, {r9}
    1284:	00026006 	andeq	r6, r2, r6
    1288:	8c320500 	cfldr32hi	mvfx0, [r2], #-0
    128c:	02000000 	andeq	r0, r0, #0
    1290:	f1060c23 			; <UNDEFINED> instruction: 0xf1060c23
    1294:	05000002 	streq	r0, [r0, #-2]
    1298:	00008c33 	andeq	r8, r0, r3, lsr ip
    129c:	10230200 	eorne	r0, r3, r0, lsl #4
    12a0:	06f80300 	ldrbteq	r0, [r8], r0, lsl #6
    12a4:	34050000 	strcc	r0, [r5], #-0
    12a8:	0000025b 	andeq	r0, r0, fp, asr r2
    12ac:	00059c0b 	andeq	r9, r5, fp, lsl #24
    12b0:	05070100 	streq	r0, [r7, #-256]	; 0xffffff00
    12b4:	000002de 	ldrdeq	r0, [r0], -lr
    12b8:	0005ac0c 	andeq	sl, r5, ip, lsl #24
    12bc:	f60c0000 			; <UNDEFINED> instruction: 0xf60c0000
    12c0:	01000007 	tsteq	r0, r7
    12c4:	00068a0c 	andeq	r8, r6, ip, lsl #20
    12c8:	670c0200 	strvs	r0, [ip, -r0, lsl #4]
    12cc:	03000006 	movweq	r0, #6
    12d0:	02100b00 	andseq	r0, r0, #0, 22
    12d4:	06010000 	streq	r0, [r1], -r0
    12d8:	00030309 	andeq	r0, r3, r9, lsl #6
    12dc:	035a0c00 	cmpeq	sl, #0, 24
    12e0:	0c000000 	stceq	0, cr0, [r0], {-0}
    12e4:	0000030a 	andeq	r0, r0, sl, lsl #6
    12e8:	01f70c01 	mvnseq	r0, r1, lsl #24
    12ec:	0c020000 	stceq	0, cr0, [r2], {-0}
    12f0:	0000027f 	andeq	r0, r0, pc, ror r2
    12f4:	49030003 	stmdbmi	r3, {r0, r1}
    12f8:	06000002 	streq	r0, [r0], -r2
    12fc:	0002de0e 	andeq	sp, r2, lr, lsl #28
    1300:	031f0300 	tsteq	pc, #0, 6
    1304:	13060000 	movwne	r0, #24576	; 0x6000
    1308:	00000221 	andeq	r0, r0, r1, lsr #4
    130c:	0005480d 	andeq	r4, r5, sp, lsl #16
    1310:	01130100 	tsteq	r3, r0, lsl #2
    1314:	00000f2c 	andeq	r0, r0, ip, lsr #30
    1318:	00000f36 	andeq	r0, r0, r6, lsr pc
    131c:	000009ba 			; <UNDEFINED> instruction: 0x000009ba
    1320:	00000340 	andeq	r0, r0, r0, asr #6
    1324:	00012d0e 	andeq	r2, r1, lr, lsl #26
    1328:	19130100 	ldmdbne	r3, {r8}
    132c:	02000002 	andeq	r0, r0, #2
    1330:	0f007491 	svceq	0x00007491
    1334:	0006cf01 	andeq	ip, r6, r1, lsl #30
    1338:	01180100 	tsteq	r8, r0, lsl #2
    133c:	00000f38 	andeq	r0, r0, r8, lsr pc
    1340:	000010a8 	andeq	r1, r0, r8, lsr #1
    1344:	000009f2 	strdeq	r0, [r0], -r2
    1348:	000003b0 			; <UNDEFINED> instruction: 0x000003b0
    134c:	0005c30e 	andeq	ip, r5, lr, lsl #6
    1350:	b0180100 	andslt	r0, r8, r0, lsl #2
    1354:	02000003 	andeq	r0, r0, #3
    1358:	7e0e7491 	mcrvc	4, 0, r7, cr14, cr1, {4}
    135c:	01000003 	tsteq	r0, r3
    1360:	00021b18 	andeq	r1, r2, r8, lsl fp
    1364:	70910200 	addsvc	r0, r1, r0, lsl #4
    1368:	00012d0e 	andeq	r2, r1, lr, lsl #26
    136c:	19180100 	ldmdbne	r8, {r8}
    1370:	02000002 	andeq	r0, r0, #2
    1374:	f00e6c91 			; <UNDEFINED> instruction: 0xf00e6c91
    1378:	01000005 	tsteq	r0, r5
    137c:	00008c18 	andeq	r8, r0, r8, lsl ip
    1380:	68910200 	ldmvs	r1, {r9}
    1384:	0002660e 	andeq	r6, r2, lr, lsl #12
    1388:	b6180100 	ldrlt	r0, [r8], -r0, lsl #2
    138c:	02000003 	andeq	r0, r0, #3
    1390:	76100091 			; <UNDEFINED> instruction: 0x76100091
    1394:	da000002 	ble	13a4 <task_sched_enable+0x38>
    1398:	01000003 	tsteq	r0, r3
    139c:	25b80305 	ldrcs	r0, [r8, #773]!	; 0x305
    13a0:	07000000 	streq	r0, [r0, -r0]
    13a4:	00025004 	andeq	r5, r2, r4
    13a8:	8c040700 	stchi	7, cr0, [r4], {-0}
    13ac:	11000000 	mrsne	r0, (UNDEF: 0)
    13b0:	000003d3 	ldrdeq	r0, [r0], -r3
    13b4:	000003cc 	andeq	r0, r0, ip, asr #7
    13b8:	0003cc12 	andeq	ip, r3, r2, lsl ip
    13bc:	02000900 	andeq	r0, r0, #0, 18
    13c0:	00f30704 	rscseq	r0, r3, r4, lsl #14
    13c4:	01020000 	mrseq	r0, (UNDEF: 2)
    13c8:	00003908 	andeq	r3, r0, r8, lsl #18
    13cc:	03bc1300 			; <UNDEFINED> instruction: 0x03bc1300
    13d0:	010f0000 	mrseq	r0, CPSR
    13d4:	0000075f 	andeq	r0, r0, pc, asr r7
    13d8:	a8014601 	stmdage	r1, {r0, r9, sl, lr}
    13dc:	f4000010 	vst4.8	{d0-d3}, [r0 :64], r0
    13e0:	42000010 	andmi	r0, r0, #16
    13e4:	2000000a 	andcs	r0, r0, sl
    13e8:	14000004 	strne	r0, [r0], #-4
    13ec:	00000704 	andeq	r0, r0, r4, lsl #14
    13f0:	008c4801 	addeq	r4, ip, r1, lsl #16
    13f4:	91020000 	mrsls	r0, (UNDEF: 2)
    13f8:	07531474 			; <UNDEFINED> instruction: 0x07531474
    13fc:	49010000 	stmdbmi	r1, {}	; <UNPREDICTABLE>
    1400:	000003b0 			; <UNDEFINED> instruction: 0x000003b0
    1404:	15709102 	ldrbne	r9, [r0, #-258]!	; 0xfffffefe
    1408:	0000083c 	andeq	r0, r0, ip, lsr r8
    140c:	10d85501 	sbcsne	r5, r8, r1, lsl #10
    1410:	16000000 	strne	r0, [r0], -r0
    1414:	00081701 	andeq	r1, r8, r1, lsl #14
    1418:	015a0100 	cmpeq	sl, r0, lsl #2
    141c:	000010f4 	strdeq	r1, [r0], -r4
    1420:	0000110c 	andeq	r1, r0, ip, lsl #2
    1424:	00000a92 	muleq	r0, r2, sl
    1428:	070b010f 	streq	r0, [fp, -pc, lsl #2]
    142c:	5f010000 	svcpl	0x00010000
    1430:	00110c01 	andseq	r0, r1, r1, lsl #24
    1434:	00114000 	andseq	r4, r1, r0
    1438:	000ad600 	andeq	sp, sl, r0, lsl #12
    143c:	00045f00 	andeq	r5, r4, r0, lsl #30
    1440:	02761000 	rsbseq	r1, r6, #0
    1444:	046f0000 	strbteq	r0, [pc], #-0	; 144c <task_unready+0x2c>
    1448:	05010000 	streq	r0, [r1, #-0]
    144c:	0025c403 	eoreq	ip, r5, r3, lsl #8
    1450:	d3110000 	tstle	r1, #0
    1454:	6f000003 	svcvs	0x00000003
    1458:	12000004 	andne	r0, r0, #4
    145c:	000003cc 	andeq	r0, r0, ip, asr #7
    1460:	5f13000e 	svcpl	0x0013000e
    1464:	0f000004 	svceq	0x00000004
    1468:	00064901 	andeq	r4, r6, r1, lsl #18
    146c:	01670100 	cmneq	r7, r0, lsl #2
    1470:	00001140 	andeq	r1, r0, r0, asr #2
    1474:	00001178 	andeq	r1, r0, r8, ror r1
    1478:	00000b02 	andeq	r0, r0, r2, lsl #22
    147c:	000004aa 	andeq	r0, r0, sl, lsr #9
    1480:	000a340e 	andeq	r3, sl, lr, lsl #8
    1484:	8c670100 	stfhie	f0, [r7], #-0
    1488:	02000000 	andeq	r0, r0, #0
    148c:	04146c91 	ldreq	r6, [r4], #-3217	; 0xfffff36f
    1490:	01000007 	tsteq	r0, r7
    1494:	00008c69 	andeq	r8, r0, r9, ror #24
    1498:	74910200 	ldrvc	r0, [r1], #512	; 0x200
    149c:	23010f00 	movwcs	r0, #7936	; 0x1f00
    14a0:	01000008 	tsteq	r0, r8
    14a4:	11780176 	cmnne	r8, r6, ror r1
    14a8:	11940000 	orrsne	r0, r4, r0
    14ac:	0b520000 	bleq	14814b4 <_etext+0x147edbb>
    14b0:	04d20000 	ldrbeq	r0, [r2], #0
    14b4:	400e0000 	andmi	r0, lr, r0
    14b8:	01000007 	tsteq	r0, r7
    14bc:	00008c76 	andeq	r8, r0, r6, ror ip
    14c0:	74910200 	ldrvc	r0, [r1], #512	; 0x200
    14c4:	0b010f00 	bleq	450cc <_etext+0x429d3>
    14c8:	01000006 	tsteq	r0, r6
    14cc:	1194017b 	orrsne	r0, r4, fp, ror r1
    14d0:	12880000 	addne	r0, r8, #0
    14d4:	0ba20000 	bleq	fe8814dc <_stack_top+0xde8754dc>
    14d8:	05240000 	streq	r0, [r4, #-0]!
    14dc:	04140000 	ldreq	r0, [r4], #-0
    14e0:	01000007 	tsteq	r0, r7
    14e4:	00008c7d 	andeq	r8, r0, sp, ror ip
    14e8:	70910200 	addsvc	r0, r1, r0, lsl #4
    14ec:	00093014 	andeq	r3, r9, r4, lsl r0
    14f0:	247e0100 	ldrbtcs	r0, [lr], #-256	; 0xffffff00
    14f4:	02000005 	andeq	r0, r0, #5
    14f8:	da146c91 	ble	51c744 <_etext+0x51a04b>
    14fc:	01000007 	tsteq	r0, r7
    1500:	0005247f 	andeq	r2, r5, pc, ror r4
    1504:	74910200 	ldrvc	r0, [r1], #512	; 0x200
    1508:	0005c314 	andeq	ip, r5, r4, lsl r3
    150c:	b0800100 	addlt	r0, r0, r0, lsl #2
    1510:	02000003 	andeq	r0, r0, #3
    1514:	07006891 			; <UNDEFINED> instruction: 0x07006891
    1518:	0000ec04 	andeq	lr, r0, r4, lsl #24
    151c:	b0010f00 	andlt	r0, r1, r0, lsl #30
    1520:	01000006 	tsteq	r0, r6
    1524:	128801a8 	addne	r0, r8, #168, 2	; 0x2a
    1528:	13080000 	movwne	r0, #32768	; 0x8000
    152c:	0bf20000 	bleq	ffc81534 <_stack_top+0xdfc75534>
    1530:	05500000 	ldrbeq	r0, [r0, #-0]
    1534:	69170000 	ldmdbvs	r7, {}	; <UNPREDICTABLE>
    1538:	8cab0100 	stfhis	f0, [fp]
    153c:	02000000 	andeq	r0, r0, #0
    1540:	18007491 	stmdane	r0, {r0, r4, r7, sl, ip, sp, lr}
    1544:	00072c01 	andeq	r2, r7, r1, lsl #24
    1548:	01b60100 			; <UNDEFINED> instruction: 0x01b60100
    154c:	0000008c 	andeq	r0, r0, ip, lsl #1
    1550:	00001308 	andeq	r1, r0, r8, lsl #6
    1554:	00001322 	andeq	r1, r0, r2, lsr #6
    1558:	00000c42 	andeq	r0, r0, r2, asr #24
    155c:	0000057c 	andeq	r0, r0, ip, ror r5
    1560:	74657217 	strbtvc	r7, [r5], #-535	; 0xfffffde9
    1564:	8cb80100 	ldfhis	f0, [r8]
    1568:	02000000 	andeq	r0, r0, #0
    156c:	0f007491 	svceq	0x00007491
    1570:	00065401 	andeq	r5, r6, r1, lsl #8
    1574:	01bd0100 			; <UNDEFINED> instruction: 0x01bd0100
    1578:	00001324 	andeq	r1, r0, r4, lsr #6
    157c:	0000133c 	andeq	r1, r0, ip, lsr r3
    1580:	00000c92 	muleq	r0, r2, ip
    1584:	000005a4 	andeq	r0, r0, r4, lsr #11
    1588:	0007040e 	andeq	r0, r7, lr, lsl #8
    158c:	8cbd0100 	ldfhis	f0, [sp]
    1590:	02000000 	andeq	r0, r0, #0
    1594:	0f007491 	svceq	0x00007491
    1598:	00077b01 	andeq	r7, r7, r1, lsl #22
    159c:	01c30100 	biceq	r0, r3, r0, lsl #2
    15a0:	0000133c 	andeq	r1, r0, ip, lsr r3
    15a4:	0000136c 	andeq	r1, r0, ip, ror #6
    15a8:	00000ce2 	andeq	r0, r0, r2, ror #25
    15ac:	000005cc 	andeq	r0, r0, ip, asr #11
    15b0:	00070414 	andeq	r0, r7, r4, lsl r4
    15b4:	8cc50100 	stfhie	f0, [r5], {0}
    15b8:	02000000 	andeq	r0, r0, #0
    15bc:	0f007491 	svceq	0x00007491
    15c0:	0006e601 	andeq	lr, r6, r1, lsl #12
    15c4:	01cd0100 	biceq	r0, sp, r0, lsl #2
    15c8:	0000136c 	andeq	r1, r0, ip, ror #6
    15cc:	000013a8 	andeq	r1, r0, r8, lsr #7
    15d0:	00000d32 	andeq	r0, r0, r2, lsr sp
    15d4:	000005f4 	strdeq	r0, [r0], -r4
    15d8:	00070414 	andeq	r0, r7, r4, lsl r4
    15dc:	8ccf0100 	stfhie	f0, [pc], {0}
    15e0:	02000000 	andeq	r0, r0, #0
    15e4:	18007491 	stmdane	r0, {r0, r4, r7, sl, ip, sp, lr}
    15e8:	00078e01 	andeq	r8, r7, r1, lsl #28
    15ec:	01d80100 	bicseq	r0, r8, r0, lsl #2
    15f0:	000003b0 			; <UNDEFINED> instruction: 0x000003b0
    15f4:	000013a8 	andeq	r1, r0, r8, lsr #7
    15f8:	000013e0 	andeq	r1, r0, r0, ror #7
    15fc:	00000d82 	andeq	r0, r0, r2, lsl #27
    1600:	0000062e 	andeq	r0, r0, lr, lsr #12
    1604:	0005e814 	andeq	lr, r5, r4, lsl r8
    1608:	8ce10100 	stfhie	f0, [r1]
    160c:	02000000 	andeq	r0, r0, #0
    1610:	df147491 	svcle	0x00147491
    1614:	01000007 	tsteq	r0, r7
    1618:	000524e2 	andeq	r2, r5, r2, ror #9
    161c:	70910200 	addsvc	r0, r1, r0, lsl #4
    1620:	48010f00 	stmdami	r1, {r8, r9, sl, fp}
    1624:	01000007 	tsteq	r0, r7
    1628:	13e001e6 	mvnne	r0, #-2147483591	; 0x80000039
    162c:	14200000 	strtne	r0, [r0], #-0
    1630:	0dd20000 	ldcleq	0, cr0, [r2]
    1634:	06560000 	ldrbeq	r0, [r6], -r0
    1638:	c30e0000 	movwgt	r0, #57344	; 0xe000
    163c:	01000005 	tsteq	r0, r5
    1640:	0003b0e6 	andeq	fp, r3, r6, ror #1
    1644:	74910200 	ldrvc	r0, [r1], #512	; 0x200
    1648:	a1010f00 	tstge	r1, r0, lsl #30
    164c:	01000007 	tsteq	r0, r7
    1650:	142001ec 	strtne	r0, [r0], #-492	; 0xfffffe14
    1654:	147c0000 	ldrbtne	r0, [ip], #-0
    1658:	0e220000 	cdpeq	0, 2, cr0, cr2, cr0, {0}
    165c:	067e0000 	ldrbteq	r0, [lr], -r0
    1660:	c30e0000 	movwgt	r0, #57344	; 0xe000
    1664:	01000005 	tsteq	r0, r5
    1668:	0003b0ec 	andeq	fp, r3, ip, ror #1
    166c:	74910200 	ldrvc	r0, [r1], #512	; 0x200
    1670:	58010f00 	stmdapl	r1, {r8, r9, sl, fp}
    1674:	01000005 	tsteq	r0, r5
    1678:	147c01f4 	ldrbtne	r0, [ip], #-500	; 0xfffffe0c
    167c:	14b00000 	ldrtne	r0, [r0], #0
    1680:	0e720000 	cdpeq	0, 7, cr0, cr2, cr0, {0}
    1684:	06b40000 	ldrteq	r0, [r4], r0
    1688:	c30e0000 	movwgt	r0, #57344	; 0xe000
    168c:	01000005 	tsteq	r0, r5
    1690:	0003b0f4 	strdeq	fp, [r3], -r4
    1694:	74910200 	ldrvc	r0, [r1], #512	; 0x200
    1698:	000a340e 	andeq	r3, sl, lr, lsl #8
    169c:	8cf40100 	ldfhie	f0, [r4]
    16a0:	02000000 	andeq	r0, r0, #0
    16a4:	0f007091 	svceq	0x00007091
    16a8:	00071a01 	andeq	r1, r7, r1, lsl #20
    16ac:	01fb0100 	mvnseq	r0, r0, lsl #2
    16b0:	000014b0 			; <UNDEFINED> instruction: 0x000014b0
    16b4:	000014dc 	ldrdeq	r1, [r0], -ip
    16b8:	00000ec2 	andeq	r0, r0, r2, asr #29
    16bc:	000006dc 	ldrdeq	r0, [r0], -ip
    16c0:	0005c30e 	andeq	ip, r5, lr, lsl #6
    16c4:	b0fb0100 	rscslt	r0, fp, r0, lsl #2
    16c8:	02000003 	andeq	r0, r0, #3
    16cc:	19007491 	stmdbne	r0, {r0, r4, r7, sl, ip, sp, lr}
    16d0:	0006d901 	andeq	sp, r6, r1, lsl #18
    16d4:	01010100 	mrseq	r0, (UNDEF: 17)
    16d8:	0014dc01 	andseq	sp, r4, r1, lsl #24
    16dc:	00153400 	andseq	r3, r5, r0, lsl #8
    16e0:	000f1200 	andeq	r1, pc, r0, lsl #4
    16e4:	00071500 	andeq	r1, r7, r0, lsl #10
    16e8:	05c31a00 	strbeq	r1, [r3, #2560]	; 0xa00
    16ec:	01010000 	mrseq	r0, (UNDEF: 1)
    16f0:	0003b001 	andeq	fp, r3, r1
    16f4:	6c910200 	lfmvs	f0, 4, [r1], {0}
    16f8:	0007041b 	andeq	r0, r7, fp, lsl r4
    16fc:	01030100 	mrseq	r0, (UNDEF: 19)
    1700:	0000008c 	andeq	r0, r0, ip, lsl #1
    1704:	00749102 	rsbseq	r9, r4, r2, lsl #2
    1708:	08300119 	ldmdaeq	r0!, {r0, r3, r4, r8}
    170c:	16010000 	strne	r0, [r1], -r0
    1710:	15340101 	ldrne	r0, [r4, #-257]!	; 0xfffffeff
    1714:	15820000 	strne	r0, [r2]
    1718:	0f620000 	svceq	0x00620000
    171c:	074e0000 	strbeq	r0, [lr, -r0]
    1720:	c31a0000 	tstgt	sl, #0
    1724:	01000005 	tsteq	r0, r5
    1728:	03b00116 	movseq	r0, #-2147483643	; 0x80000005
    172c:	91020000 	mrsls	r0, (UNDEF: 2)
    1730:	07041b6c 	streq	r1, [r4, -ip, ror #22]
    1734:	18010000 	stmdane	r1, {}	; <UNPREDICTABLE>
    1738:	00008c01 	andeq	r8, r0, r1, lsl #24
    173c:	74910200 	ldrvc	r0, [r1], #512	; 0x200
    1740:	06241c00 	strteq	r1, [r4], -r0, lsl #24
    1744:	24010000 	strcs	r0, [r1], #-0
    1748:	15840101 	strne	r0, [r4, #257]	; 0x101
    174c:	15e00000 	strbne	r0, [r0, #0]!
    1750:	0fb20000 	svceq	0x00b20000
    1754:	07770000 	ldrbeq	r0, [r7, -r0]!
    1758:	c31a0000 	tstgt	sl, #0
    175c:	01000005 	tsteq	r0, r5
    1760:	03b00124 	movseq	r0, #36, 2
    1764:	91020000 	mrsls	r0, (UNDEF: 2)
    1768:	be1c0074 	mrclt	0, 0, r0, cr12, cr4, {3}
    176c:	01000007 	tsteq	r0, r7
    1770:	e001012c 	and	r0, r1, ip, lsr #2
    1774:	00000015 	andeq	r0, r0, r5, lsl r0
    1778:	02000016 	andeq	r0, r0, #22
    177c:	a0000010 	andge	r0, r0, r0, lsl r0
    1780:	1a000007 	bne	17a4 <dump_task_info+0x3c>
    1784:	000005c3 	andeq	r0, r0, r3, asr #11
    1788:	b0012c01 	andlt	r2, r1, r1, lsl #24
    178c:	02000003 	andeq	r0, r0, #3
    1790:	19007491 	stmdbne	r0, {r0, r4, r7, sl, ip, sp, lr}
    1794:	0005f501 	andeq	pc, r5, r1, lsl #10
    1798:	01310100 	teqeq	r1, r0, lsl #2
    179c:	00160001 	andseq	r0, r6, r1
    17a0:	00162200 	andseq	r2, r6, r0, lsl #4
    17a4:	00105200 	andseq	r5, r0, r0, lsl #4
    17a8:	0007e800 	andeq	lr, r7, r0, lsl #16
    17ac:	05c31a00 	strbeq	r1, [r3, #2560]	; 0xa00
    17b0:	31010000 	mrscc	r0, (UNDEF: 1)
    17b4:	0003b001 	andeq	fp, r3, r1
    17b8:	74910200 	ldrvc	r0, [r1], #512	; 0x200
    17bc:	00021f1a 	andeq	r1, r2, sl, lsl pc
    17c0:	01310100 	teqeq	r1, r0, lsl #2
    17c4:	0000021b 	andeq	r0, r0, fp, lsl r2
    17c8:	1a709102 	bne	1c25bd8 <_etext+0x1c234df>
    17cc:	0000012d 	andeq	r0, r0, sp, lsr #2
    17d0:	19013101 	stmdbne	r1, {r0, r8, ip, sp}
    17d4:	02000002 	andeq	r0, r0, #2
    17d8:	19006c91 	stmdbne	r0, {r0, r4, r7, sl, fp, sp, lr}
    17dc:	0005c801 	andeq	ip, r5, r1, lsl #16
    17e0:	01370100 	teqeq	r7, r0, lsl #2
    17e4:	00162401 	andseq	r2, r6, r1, lsl #8
    17e8:	00168c00 	andseq	r8, r6, r0, lsl #24
    17ec:	0010ae00 	andseq	sl, r0, r0, lsl #28
    17f0:	00082100 	andeq	r2, r8, r0, lsl #2
    17f4:	05c31a00 	strbeq	r1, [r3, #2560]	; 0xa00
    17f8:	37010000 	strcc	r0, [r1, -r0]
    17fc:	0003b001 	andeq	fp, r3, r1
    1800:	6c910200 	lfmvs	f0, 4, [r1], {0}
    1804:	0007041b 	andeq	r0, r7, fp, lsl r4
    1808:	01390100 	teqeq	r9, r0, lsl #2
    180c:	0000008c 	andeq	r0, r0, ip, lsl #1
    1810:	00749102 	rsbseq	r9, r4, r2, lsl #2
    1814:	056b0119 	strbeq	r0, [fp, #-281]!	; 0xfffffee7
    1818:	4c010000 	stcmi	0, cr0, [r1], {-0}
    181c:	168c0101 	strne	r0, [ip], r1, lsl #2
    1820:	16ae0000 	strtne	r0, [lr], r0
    1824:	10fe0000 	rscsne	r0, lr, r0
    1828:	085a0000 	ldmdaeq	sl, {}^	; <UNPREDICTABLE>
    182c:	c31a0000 	tstgt	sl, #0
    1830:	01000005 	tsteq	r0, r5
    1834:	03b0014c 	movseq	r0, #76, 2
    1838:	91020000 	mrsls	r0, (UNDEF: 2)
    183c:	07041b6c 	streq	r1, [r4, -ip, ror #22]
    1840:	4e010000 	cdpmi	0, 0, cr0, cr1, cr0, {0}
    1844:	00008c01 	andeq	r8, r0, r1, lsl #24
    1848:	74910200 	ldrvc	r0, [r1], #512	; 0x200
    184c:	68011d00 	stmdavs	r1, {r8, sl, fp, ip}
    1850:	01000005 	tsteq	r0, r5
    1854:	81010155 	tsthi	r1, r5, asr r1
    1858:	b0000000 	andlt	r0, r0, r0
    185c:	dc000016 	stcle	0, cr0, [r0], {22}
    1860:	4e000016 	mcrmi	0, 0, r0, cr0, cr6, {0}
    1864:	97000011 	smladls	r0, r1, r0, r0
    1868:	1b000008 	blne	1890 <bitmap_get_first_set+0x58>
    186c:	000005d3 	ldrdeq	r0, [r0], -r3
    1870:	81015701 	tsthi	r1, r1, lsl #14
    1874:	02000000 	andeq	r0, r0, #0
    1878:	041b7391 	ldreq	r7, [fp], #-913	; 0xfffffc6f
    187c:	01000007 	tsteq	r0, r7
    1880:	008c0159 	addeq	r0, ip, r9, asr r1
    1884:	91020000 	mrsls	r0, (UNDEF: 2)
    1888:	01190074 	tsteq	r9, r4, ror r0
    188c:	0000076a 	andeq	r0, r0, sl, ror #14
    1890:	01016001 	tsteq	r1, r1
    1894:	000016dc 	ldrdeq	r1, [r0], -ip
    1898:	00001724 	andeq	r1, r0, r4, lsr #14
    189c:	0000119e 	muleq	r0, lr, r1
    18a0:	000008c1 	andeq	r0, r0, r1, asr #17
    18a4:	0007041b 	andeq	r0, r7, fp, lsl r4
    18a8:	01620100 	cmneq	r2, r0, lsl #2
    18ac:	00000081 	andeq	r0, r0, r1, lsl #1
    18b0:	00779102 	rsbseq	r9, r7, r2, lsl #2
    18b4:	06c10119 			; <UNDEFINED> instruction: 0x06c10119
    18b8:	6f010000 	svcvs	0x00010000
    18bc:	17240101 	strne	r0, [r4, -r1, lsl #2]!
    18c0:	17680000 	strbne	r0, [r8, -r0]!
    18c4:	11ee0000 	mvnne	r0, r0
    18c8:	09090000 	stmdbeq	r9, {}	; <UNPREDICTABLE>
    18cc:	c31a0000 	tstgt	sl, #0
    18d0:	01000005 	tsteq	r0, r5
    18d4:	03b0016f 	movseq	r0, #-1073741797	; 0xc000001b
    18d8:	91020000 	mrsls	r0, (UNDEF: 2)
    18dc:	06851a6c 	streq	r1, [r5], ip, ror #20
    18e0:	6f010000 	svcvs	0x00010000
    18e4:	00090901 	andeq	r0, r9, r1, lsl #18
    18e8:	68910200 	ldmvs	r1, {r9}
    18ec:	0007041b 	andeq	r0, r7, fp, lsl r4
    18f0:	01710100 	cmneq	r1, r0, lsl #2
    18f4:	0000008c 	andeq	r0, r0, ip, lsl #1
    18f8:	00749102 	rsbseq	r9, r4, r2, lsl #2
    18fc:	02ae0407 	adceq	r0, lr, #117440512	; 0x7000000
    1900:	01190000 	tsteq	r9, r0
    1904:	0000067b 	andeq	r0, r0, fp, ror r6
    1908:	01017c01 	tsteq	r1, r1, lsl #24
    190c:	00001768 	andeq	r1, r0, r8, ror #14
    1910:	000017c0 	andeq	r1, r0, r0, asr #15
    1914:	0000123e 	andeq	r1, r0, lr, lsr r2
    1918:	00000939 	andeq	r0, r0, r9, lsr r9
    191c:	0006851a 	andeq	r8, r6, sl, lsl r5
    1920:	017c0100 	cmneq	ip, r0, lsl #2
    1924:	00000909 	andeq	r0, r0, r9, lsl #18
    1928:	00749102 	rsbseq	r9, r4, r2, lsl #2
    192c:	0007ae14 	andeq	sl, r7, r4, lsl lr
    1930:	500c0100 	andpl	r0, ip, r0, lsl #2
    1934:	05000002 	streq	r0, [r0, #-2]
    1938:	00000003 	andeq	r0, r0, r3
    193c:	05bc1420 	ldreq	r1, [ip, #1056]!	; 0x420
    1940:	0d010000 	stceq	0, cr0, [r1, #-0]
    1944:	000003b0 			; <UNDEFINED> instruction: 0x000003b0
    1948:	00400305 	subeq	r0, r0, r5, lsl #6
    194c:	2b112000 	blcs	449954 <_etext+0x44725b>
    1950:	6c000001 	stcvs	0, cr0, [r0], {1}
    1954:	1e000009 	cdpne	0, 0, cr0, cr0, cr9, {0}
    1958:	000003cc 	andeq	r0, r0, ip, asr #7
    195c:	140003ff 	strne	r0, [r0], #-1023	; 0xfffffc01
    1960:	0000058c 	andeq	r0, r0, ip, lsl #11
    1964:	095b0e01 	ldmdbeq	fp, {r0, r9, sl, fp}^
    1968:	03050000 	movweq	r0, #20480	; 0x5000
    196c:	20000044 	andcs	r0, r0, r4, asr #32
    1970:	00057f14 	andeq	r7, r5, r4, lsl pc
    1974:	810f0100 	mrshi	r0, (UNDEF: 31)
    1978:	05000000 	streq	r0, [r0, #-0]
    197c:	00104403 	andseq	r4, r0, r3, lsl #8
    1980:	08041420 	stmdaeq	r4, {r5, sl, ip}
    1984:	10010000 	andne	r0, r1, r0
    1988:	000000b2 	strheq	r0, [r0], -r2
    198c:	10480305 	subne	r0, r8, r5, lsl #6
    1990:	e4142000 	ldr	r2, [r4], #-0
    1994:	01000007 	tsteq	r0, r7
    1998:	00012011 	andeq	r2, r1, r1, lsl r0
    199c:	4c030500 	cfstr32mi	mvfx0, [r3], {-0}
    19a0:	1f200010 	svcne	0x00200010
    19a4:	00000694 	muleq	r0, r4, r6
    19a8:	03b00901 	movseq	r0, #16384	; 0x4000
    19ac:	05010000 	streq	r0, [r1, #-0]
    19b0:	00595403 	subseq	r5, r9, r3, lsl #8
    19b4:	01eb1f20 	mvneq	r1, r0, lsr #30
    19b8:	0a010000 	beq	419c0 <_etext+0x3f2c7>
    19bc:	000003b0 			; <UNDEFINED> instruction: 0x000003b0
    19c0:	50030501 	andpl	r0, r3, r1, lsl #10
    19c4:	11200059 	qsubne	r0, r9, r0
    19c8:	00000120 	andeq	r0, r0, r0, lsr #2
    19cc:	000009e4 	andeq	r0, r0, r4, ror #19
    19d0:	0003cc12 	andeq	ip, r3, r2, lsl ip
    19d4:	1f001f00 	svcne	0x00001f00
    19d8:	000006a3 	andeq	r0, r0, r3, lsr #13
    19dc:	09d40b01 	ldmibeq	r4, {r0, r8, r9, fp}^
    19e0:	05010000 	streq	r0, [r1, #-0]
    19e4:	00595803 	subseq	r5, r9, r3, lsl #16
    19e8:	05bb0020 	ldreq	r0, [fp, #32]!
    19ec:	00020000 	andeq	r0, r2, r0
    19f0:	000005ba 			; <UNDEFINED> instruction: 0x000005ba
    19f4:	00830104 	addeq	r0, r3, r4, lsl #2
    19f8:	99010000 	stmdbls	r1, {}	; <UNPREDICTABLE>
    19fc:	00000008 	andeq	r0, r0, r8
    1a00:	c0000000 	andgt	r0, r0, r0
    1a04:	be000017 	mcrlt	0, 0, r0, cr0, cr7, {0}
    1a08:	f700001b 			; <UNDEFINED> instruction: 0xf700001b
    1a0c:	02000005 	andeq	r0, r0, #5
    1a10:	00320601 	eorseq	r0, r2, r1, lsl #12
    1a14:	25030000 	strcs	r0, [r3, #-0]
    1a18:	02000002 	andeq	r0, r0, #2
    1a1c:	0000371d 	andeq	r3, r0, sp, lsl r7
    1a20:	08010200 	stmdaeq	r1, {r9}
    1a24:	00000030 	andeq	r0, r0, r0, lsr r0
    1a28:	0a050202 	beq	142238 <_etext+0x13fb3f>
    1a2c:	02000001 	andeq	r0, r0, #1
    1a30:	003e0702 	eorseq	r0, lr, r2, lsl #14
    1a34:	04020000 	streq	r0, [r2], #-0
    1a38:	00010105 	andeq	r0, r1, r5, lsl #2
    1a3c:	01a00300 	lsleq	r0, r0, #6
    1a40:	41020000 	mrsmi	r0, (UNDEF: 2)
    1a44:	0000005e 	andeq	r0, r0, lr, asr r0
    1a48:	71070402 	tstvc	r7, r2, lsl #8
    1a4c:	02000000 	andeq	r0, r0, #0
    1a50:	00fc0508 	rscseq	r0, ip, r8, lsl #10
    1a54:	08020000 	stmdaeq	r2, {}	; <UNPREDICTABLE>
    1a58:	00006c07 	andeq	r6, r0, r7, lsl #24
    1a5c:	05040400 	streq	r0, [r4, #-1024]	; 0xfffffc00
    1a60:	00746e69 	rsbseq	r6, r4, r9, ror #28
    1a64:	76070402 	strvc	r0, [r7], -r2, lsl #8
    1a68:	03000000 	movweq	r0, #0
    1a6c:	00000227 	andeq	r0, r0, r7, lsr #4
    1a70:	002c1403 	eoreq	r1, ip, r3, lsl #8
    1a74:	a2030000 	andge	r0, r3, #0
    1a78:	03000001 	movweq	r0, #1
    1a7c:	00005320 	andeq	r5, r0, r0, lsr #6
    1a80:	084a0500 	stmdaeq	sl, {r8, sl}^
    1a84:	04040000 	streq	r0, [r4], #-0
    1a88:	0000b207 	andeq	fp, r0, r7, lsl #4
    1a8c:	08100600 	ldmdaeq	r0, {r9, sl}
    1a90:	08040000 	stmdaeq	r4, {}	; <UNPREDICTABLE>
    1a94:	0000008c 	andeq	r0, r0, ip, lsl #1
    1a98:	00002302 	andeq	r2, r0, r2, lsl #6
    1a9c:	00064003 	andeq	r4, r6, r3
    1aa0:	97090400 	strls	r0, [r9, -r0, lsl #8]
    1aa4:	05000000 	streq	r0, [r0, #-0]
    1aa8:	000001b6 			; <UNDEFINED> instruction: 0x000001b6
    1aac:	e6120408 	ldr	r0, [r2], -r8, lsl #8
    1ab0:	06000000 	streq	r0, [r0], -r0
    1ab4:	0000094a 	andeq	r0, r0, sl, asr #18
    1ab8:	00e61304 	rsceq	r1, r6, r4, lsl #6
    1abc:	23020000 	movwcs	r0, #8192	; 0x2000
    1ac0:	09540600 	ldmdbeq	r4, {r9, sl}^
    1ac4:	14040000 	strne	r0, [r4], #-0
    1ac8:	000000e6 	andeq	r0, r0, r6, ror #1
    1acc:	00042302 	andeq	r2, r4, r2, lsl #6
    1ad0:	00bd0407 	adcseq	r0, sp, r7, lsl #8
    1ad4:	8b030000 	blhi	c1adc <_etext+0xbf3e3>
    1ad8:	04000001 	streq	r0, [r0], #-1
    1adc:	0000bd15 	andeq	fp, r0, r5, lsl sp
    1ae0:	01970500 	orrseq	r0, r7, r0, lsl #10
    1ae4:	040c0000 	streq	r0, [ip], #-0
    1ae8:	00012019 	andeq	r2, r1, r9, lsl r0
    1aec:	09300600 	ldmdbeq	r0!, {r9, sl}
    1af0:	1a040000 	bne	101af8 <_etext+0xff3ff>
    1af4:	000000ec 	andeq	r0, r0, ip, ror #1
    1af8:	06002302 	streq	r2, [r0], -r2, lsl #6
    1afc:	000001ab 	andeq	r0, r0, fp, lsr #3
    1b00:	008c1b04 	addeq	r1, ip, r4, lsl #22
    1b04:	23020000 	movwcs	r0, #8192	; 0x2000
    1b08:	72030008 	andvc	r0, r3, #8
    1b0c:	04000001 	streq	r0, [r0], #-1
    1b10:	0000f71c 	andeq	pc, r0, ip, lsl r7	; <UNPREDICTABLE>
    1b14:	cf010800 	svcgt	0x00010800
    1b18:	01000008 	tsteq	r0, r8
    1b1c:	17c00103 	strbne	r0, [r0, r3, lsl #2]
    1b20:	17d80000 	ldrbne	r0, [r8, r0]
    1b24:	128e0000 	addne	r0, lr, #0
    1b28:	01530000 	cmpeq	r3, r0
    1b2c:	10090000 	andne	r0, r9, r0
    1b30:	01000008 	tsteq	r0, r8
    1b34:	00015303 	andeq	r5, r1, r3, lsl #6
    1b38:	74910200 	ldrvc	r0, [r1], #512	; 0x200
    1b3c:	b2040700 	andlt	r0, r4, #0, 14
    1b40:	0a000000 	beq	1b48 <list_remove_first+0x50>
    1b44:	00090d01 	andeq	r0, r9, r1, lsl #26
    1b48:	01080100 	mrseq	r0, (UNDEF: 24)
    1b4c:	0000008c 	andeq	r0, r0, ip, lsl #1
    1b50:	000017d8 	ldrdeq	r1, [r0], -r8
    1b54:	000017e8 	andeq	r1, r0, r8, ror #15
    1b58:	000012ea 	andeq	r1, r0, sl, ror #5
    1b5c:	086b0108 	stmdaeq	fp!, {r3, r8}^
    1b60:	0d010000 	stceq	0, cr0, [r1, #-0]
    1b64:	0017e801 	andseq	lr, r7, r1, lsl #16
    1b68:	00180e00 	andseq	r0, r8, r0, lsl #28
    1b6c:	00132e00 	andseq	r2, r3, r0, lsl #28
    1b70:	0001a800 	andeq	sl, r1, r0, lsl #16
    1b74:	08100900 	ldmdaeq	r0, {r8, fp}
    1b78:	0d010000 	stceq	0, cr0, [r1, #-0]
    1b7c:	00000153 	andeq	r0, r0, r3, asr r1
    1b80:	0b749102 	bleq	1d25f90 <_etext+0x1d23897>
    1b84:	00736f70 	rsbseq	r6, r3, r0, ror pc
    1b88:	008c0d01 	addeq	r0, ip, r1, lsl #26
    1b8c:	91020000 	mrsls	r0, (UNDEF: 2)
    1b90:	01080070 	tsteq	r8, r0, ror r0
    1b94:	00000880 	andeq	r0, r0, r0, lsl #17
    1b98:	10011201 	andne	r1, r1, r1, lsl #4
    1b9c:	38000018 	stmdacc	r0, {r3, r4}
    1ba0:	8a000018 	bhi	1c08 <event_wait+0x24>
    1ba4:	de000013 	mcrle	0, 0, r0, cr0, cr3, {0}
    1ba8:	09000001 	stmdbeq	r0, {r0}
    1bac:	00000810 	andeq	r0, r0, r0, lsl r8
    1bb0:	01531201 	cmpeq	r3, r1, lsl #4
    1bb4:	91020000 	mrsls	r0, (UNDEF: 2)
    1bb8:	6f700b74 	svcvs	0x00700b74
    1bbc:	12010073 	andne	r0, r1, #115	; 0x73
    1bc0:	0000008c 	andeq	r0, r0, ip, lsl #1
    1bc4:	00709102 	rsbseq	r9, r0, r2, lsl #2
    1bc8:	08ba010c 	ldmeq	sl!, {r2, r3, r8}
    1bcc:	17010000 	strne	r0, [r1, -r0]
    1bd0:	00008c01 	andeq	r8, r0, r1, lsl #24
    1bd4:	00183800 	andseq	r3, r8, r0, lsl #16
    1bd8:	0018c800 	andseq	ip, r8, r0, lsl #16
    1bdc:	0013e600 	andseq	lr, r3, r0, lsl #12
    1be0:	00022900 	andeq	r2, r2, r0, lsl #18
    1be4:	08100900 	ldmdaeq	r0, {r8, fp}
    1be8:	17010000 	strne	r0, [r1, -r0]
    1bec:	00000153 	andeq	r0, r0, r3, asr r1
    1bf0:	0d6c9102 	stfeqp	f1, [ip, #-8]!
    1bf4:	00736f70 	rsbseq	r6, r3, r0, ror pc
    1bf8:	008c1901 	addeq	r1, ip, r1, lsl #18
    1bfc:	91020000 	mrsls	r0, (UNDEF: 2)
    1c00:	085f0e74 	ldmdaeq	pc, {r2, r4, r5, r6, r9, sl, fp}^	; <UNPREDICTABLE>
    1c04:	1a010000 	bne	41c0c <_etext+0x3f513>
    1c08:	00000240 	andeq	r0, r0, r0, asr #4
    1c0c:	25d40305 	ldrbcs	r0, [r4, #773]	; 0x305
    1c10:	0f000000 	svceq	0x00000000
    1c14:	00000081 	andeq	r0, r0, r1, lsl #1
    1c18:	00000239 	andeq	r0, r0, r9, lsr r2
    1c1c:	00023910 	andeq	r3, r2, r0, lsl r9
    1c20:	0200ff00 	andeq	pc, r0, #0, 30
    1c24:	00f30704 	rscseq	r0, r3, r4, lsl #14
    1c28:	29110000 	ldmdbcs	r1, {}	; <UNPREDICTABLE>
    1c2c:	08000002 	stmdaeq	r0, {r1}
    1c30:	0008fe01 	andeq	pc, r8, r1, lsl #28
    1c34:	013d0100 	teqeq	sp, r0, lsl #2
    1c38:	000018c8 	andeq	r1, r0, r8, asr #17
    1c3c:	000018ec 	andeq	r1, r0, ip, ror #17
    1c40:	00001436 	andeq	r1, r0, r6, lsr r4
    1c44:	0000026d 	andeq	r0, r0, sp, ror #4
    1c48:	0007df09 	andeq	sp, r7, r9, lsl #30
    1c4c:	6d3d0100 	ldfvss	f0, [sp, #-0]
    1c50:	02000002 	andeq	r0, r0, #2
    1c54:	07007491 			; <UNDEFINED> instruction: 0x07007491
    1c58:	0000ec04 	andeq	lr, r0, r4, lsl #24
    1c5c:	a8010800 	stmdage	r1, {fp}
    1c60:	01000008 	tsteq	r0, r8
    1c64:	18ec0145 	stmiane	ip!, {r0, r2, r6, r8}^
    1c68:	190e0000 	stmdbne	lr, {}	; <UNPREDICTABLE>
    1c6c:	14920000 	ldrne	r0, [r2], #0
    1c70:	029b0000 	addseq	r0, fp, #0
    1c74:	57090000 	strpl	r0, [r9, -r0]
    1c78:	01000004 	tsteq	r0, r4
    1c7c:	00029b45 	andeq	r9, r2, r5, asr #22
    1c80:	74910200 	ldrvc	r0, [r1], #512	; 0x200
    1c84:	20040700 	andcs	r0, r4, r0, lsl #14
    1c88:	0c000001 	stceq	0, cr0, [r0], {1}
    1c8c:	00095901 	andeq	r5, r9, r1, lsl #18
    1c90:	014e0100 	mrseq	r0, (UNDEF: 94)
    1c94:	0000008c 	andeq	r0, r0, ip, lsl #1
    1c98:	00001910 	andeq	r1, r0, r0, lsl r9
    1c9c:	00001936 	andeq	r1, r0, r6, lsr r9
    1ca0:	000014e2 	andeq	r1, r0, r2, ror #9
    1ca4:	000002db 	ldrdeq	r0, [r0], -fp
    1ca8:	00045709 	andeq	r5, r4, r9, lsl #14
    1cac:	9b4e0100 	blls	13820b4 <_etext+0x137f9bb>
    1cb0:	02000002 	andeq	r0, r0, #2
    1cb4:	720d6c91 	andvc	r6, sp, #37120	; 0x9100
    1cb8:	01007465 	tsteq	r0, r5, ror #8
    1cbc:	00008c50 	andeq	r8, r0, r0, asr ip
    1cc0:	74910200 	ldrvc	r0, [r1], #512	; 0x200
    1cc4:	55010c00 	strpl	r0, [r1, #-3072]	; 0xfffff400
    1cc8:	01000008 	tsteq	r0, r8
    1ccc:	026d0157 	rsbeq	r0, sp, #-1073741803	; 0xc0000015
    1cd0:	19380000 	ldmdbne	r8!, {}	; <UNPREDICTABLE>
    1cd4:	19640000 	stmdbne	r4!, {}^	; <UNPREDICTABLE>
    1cd8:	153e0000 	ldrne	r0, [lr, #-0]!
    1cdc:	03230000 			; <UNDEFINED> instruction: 0x03230000
    1ce0:	57090000 	strpl	r0, [r9, -r0]
    1ce4:	01000004 	tsteq	r0, r4
    1ce8:	00029b57 	andeq	r9, r2, r7, asr fp
    1cec:	6c910200 	lfmvs	f0, 4, [r1], {0}
    1cf0:	0009300e 	andeq	r3, r9, lr
    1cf4:	6d590100 	ldfvse	f0, [r9, #-0]
    1cf8:	02000002 	andeq	r0, r0, #2
    1cfc:	720d7091 	andvc	r7, sp, #145	; 0x91
    1d00:	01007465 	tsteq	r0, r5, ror #8
    1d04:	00026d5a 	andeq	r6, r2, sl, asr sp
    1d08:	74910200 	ldrvc	r0, [r1], #512	; 0x200
    1d0c:	1a010c00 	bne	44d14 <_etext+0x4261b>
    1d10:	01000009 	tsteq	r0, r9
    1d14:	026d0161 	rsbeq	r0, sp, #1073741848	; 0x40000018
    1d18:	19640000 	stmdbne	r4!, {}^	; <UNPREDICTABLE>
    1d1c:	19900000 	ldmibne	r0, {}	; <UNPREDICTABLE>
    1d20:	159a0000 	ldrne	r0, [sl]
    1d24:	036b0000 	cmneq	fp, #0
    1d28:	57090000 	strpl	r0, [r9, -r0]
    1d2c:	01000004 	tsteq	r0, r4
    1d30:	00029b61 	andeq	r9, r2, r1, ror #22
    1d34:	6c910200 	lfmvs	f0, 4, [r1], {0}
    1d38:	0009300e 	andeq	r3, r9, lr
    1d3c:	6d630100 	stfvse	f0, [r3, #-0]
    1d40:	02000002 	andeq	r0, r0, #2
    1d44:	720d7091 	andvc	r7, sp, #145	; 0x91
    1d48:	01007465 	tsteq	r0, r5, ror #8
    1d4c:	00026d64 	andeq	r6, r2, r4, ror #26
    1d50:	74910200 	ldrvc	r0, [r1], #512	; 0x200
    1d54:	45010c00 	strmi	r0, [r1, #-3072]	; 0xfffff400
    1d58:	01000009 	tsteq	r0, r9
    1d5c:	026d016b 	rsbeq	r0, sp, #-1073741798	; 0xc000001a
    1d60:	19900000 	ldmibne	r0, {}	; <UNPREDICTABLE>
    1d64:	19b60000 	ldmibne	r6!, {}	; <UNPREDICTABLE>
    1d68:	15f60000 	ldrbne	r0, [r6, #0]!
    1d6c:	03a50000 			; <UNDEFINED> instruction: 0x03a50000
    1d70:	46090000 	strmi	r0, [r9], -r0
    1d74:	01000003 	tsteq	r0, r3
    1d78:	00026d6b 	andeq	r6, r2, fp, ror #26
    1d7c:	6c910200 	lfmvs	f0, 4, [r1], {0}
    1d80:	7465720d 	strbtvc	r7, [r5], #-525	; 0xfffffdf3
    1d84:	6d6d0100 	stfvse	f0, [sp, #-0]
    1d88:	02000002 	andeq	r0, r0, #2
    1d8c:	0c007491 	cfstrseq	mvf7, [r0], {145}	; 0x91
    1d90:	00094f01 	andeq	r4, r9, r1, lsl #30
    1d94:	01740100 	cmneq	r4, r0, lsl #2
    1d98:	0000026d 	andeq	r0, r0, sp, ror #4
    1d9c:	000019b8 			; <UNDEFINED> instruction: 0x000019b8
    1da0:	000019de 	ldrdeq	r1, [r0], -lr
    1da4:	00001652 	andeq	r1, r0, r2, asr r6
    1da8:	000003df 	ldrdeq	r0, [r0], -pc	; <UNPREDICTABLE>
    1dac:	00034609 	andeq	r4, r3, r9, lsl #12
    1db0:	6d740100 	ldfvse	f0, [r4, #-0]
    1db4:	02000002 	andeq	r0, r0, #2
    1db8:	720d6c91 	andvc	r6, sp, #37120	; 0x9100
    1dbc:	01007465 	tsteq	r0, r5, ror #8
    1dc0:	00026d76 	andeq	r6, r2, r6, ror sp
    1dc4:	74910200 	ldrvc	r0, [r1], #512	; 0x200
    1dc8:	35010800 	strcc	r0, [r1, #-2048]	; 0xfffff800
    1dcc:	01000009 	tsteq	r0, r9
    1dd0:	19e0017d 	stmibne	r0!, {r0, r2, r3, r4, r5, r6, r8}^
    1dd4:	1a4e0000 	bne	1381ddc <_etext+0x137f6e3>
    1dd8:	16ae0000 	strtne	r0, [lr], r0
    1ddc:	044a0000 	strbeq	r0, [sl], #-0
    1de0:	57090000 	strpl	r0, [r9, -r0]
    1de4:	01000004 	tsteq	r0, r4
    1de8:	00029b7d 	andeq	r9, r2, sp, ror fp
    1dec:	64910200 	ldrvs	r0, [r1], #512	; 0x200
    1df0:	0001b00e 	andeq	fp, r1, lr
    1df4:	8c7f0100 	ldfhie	f0, [pc], #-0	; 1dfc <sem_init+0x30>
    1df8:	02000000 	andeq	r0, r0, #0
    1dfc:	300e7491 	mulcc	lr, r1, r4
    1e00:	01000009 	tsteq	r0, r9
    1e04:	00026d80 	andeq	r6, r2, r0, lsl #27
    1e08:	6c910200 	lfmvs	f0, 4, [r1], {0}
    1e0c:	0008760e 	andeq	r7, r8, lr, lsl #12
    1e10:	6d810100 	stfvss	f0, [r1]
    1e14:	02000002 	andeq	r0, r0, #2
    1e18:	9f0e7091 	svcls	0x000e7091
    1e1c:	01000008 	tsteq	r0, r8
    1e20:	00026d82 	andeq	r6, r2, r2, lsl #27
    1e24:	68910200 	ldmvs	r1, {r9}
    1e28:	0008b212 	andeq	fp, r8, r2, lsl r2
    1e2c:	42930100 	addsmi	r0, r3, #0, 2
    1e30:	0000001a 	andeq	r0, r0, sl, lsl r0
    1e34:	09240108 	stmdbeq	r4!, {r3, r8}
    1e38:	98010000 	stmdals	r1, {}	; <UNPREDICTABLE>
    1e3c:	001a5001 	andseq	r5, sl, r1
    1e40:	001aa200 	andseq	sl, sl, r0, lsl #4
    1e44:	00170a00 	andseq	r0, r7, r0, lsl #20
    1e48:	0004a700 	andeq	sl, r4, r0, lsl #14
    1e4c:	04570900 	ldrbeq	r0, [r7], #-2304	; 0xfffff700
    1e50:	98010000 	stmdals	r1, {}	; <UNPREDICTABLE>
    1e54:	0000029b 	muleq	r0, fp, r2
    1e58:	096c9102 	stmdbeq	ip!, {r1, r8, ip, pc}^
    1e5c:	00000346 	andeq	r0, r0, r6, asr #6
    1e60:	026d9801 	rsbeq	r9, sp, #65536	; 0x10000
    1e64:	91020000 	mrsls	r0, (UNDEF: 2)
    1e68:	09300e68 	ldmdbeq	r0!, {r3, r5, r6, r9, sl, fp}
    1e6c:	9a010000 	bls	41e74 <_etext+0x3f77b>
    1e70:	0000026d 	andeq	r0, r0, sp, ror #4
    1e74:	0e749102 	expeqs	f1, f2
    1e78:	00000954 	andeq	r0, r0, r4, asr r9
    1e7c:	026d9b01 	rsbeq	r9, sp, #1024	; 0x400
    1e80:	91020000 	mrsls	r0, (UNDEF: 2)
    1e84:	08b21270 	ldmeq	r2!, {r4, r5, r6, r9, ip}
    1e88:	a8010000 	stmdage	r1, {}	; <UNPREDICTABLE>
    1e8c:	00001a96 	muleq	r0, r6, sl
    1e90:	db010800 	blle	43e98 <_etext+0x4179f>
    1e94:	01000008 	tsteq	r0, r8
    1e98:	1aa401ac 	bne	fe902550 <_stack_top+0xde8f6550>
    1e9c:	1af60000 	bne	ffd81ea4 <_stack_top+0xdfd75ea4>
    1ea0:	17660000 	strbne	r0, [r6, -r0]!
    1ea4:	05040000 	streq	r0, [r4, #-0]
    1ea8:	57090000 	strpl	r0, [r9, -r0]
    1eac:	01000004 	tsteq	r0, r4
    1eb0:	00029bac 	andeq	r9, r2, ip, lsr #23
    1eb4:	6c910200 	lfmvs	f0, 4, [r1], {0}
    1eb8:	00034609 	andeq	r4, r3, r9, lsl #12
    1ebc:	6dac0100 	stfvss	f0, [ip]
    1ec0:	02000002 	andeq	r0, r0, #2
    1ec4:	300e6891 	mulcc	lr, r1, r8
    1ec8:	01000009 	tsteq	r0, r9
    1ecc:	00026dae 	andeq	r6, r2, lr, lsr #27
    1ed0:	74910200 	ldrvc	r0, [r1], #512	; 0x200
    1ed4:	0009540e 	andeq	r5, r9, lr, lsl #8
    1ed8:	6daf0100 	stfvss	f0, [pc]	; 1ee0 <sem_release+0x38>
    1edc:	02000002 	andeq	r0, r0, #2
    1ee0:	b2127091 	andslt	r7, r2, #145	; 0x91
    1ee4:	01000008 	tsteq	r0, r8
    1ee8:	001aeabc 			; <UNDEFINED> instruction: 0x001aeabc
    1eec:	010c0000 	mrseq	r0, (UNDEF: 12)
    1ef0:	000008ec 	andeq	r0, r0, ip, ror #17
    1ef4:	6d01c001 	stcvs	0, cr12, [r1, #-4]
    1ef8:	f8000002 			; <UNDEFINED> instruction: 0xf8000002
    1efc:	6200001a 	andvs	r0, r0, #26
    1f00:	c200001b 	andgt	r0, r0, #27
    1f04:	65000017 	strvs	r0, [r0, #-23]	; 0xffffffe9
    1f08:	09000005 	stmdbeq	r0, {r0, r2}
    1f0c:	00000457 	andeq	r0, r0, r7, asr r4
    1f10:	029bc001 	addseq	ip, fp, #1
    1f14:	91020000 	mrsls	r0, (UNDEF: 2)
    1f18:	09300e64 	ldmdbeq	r0!, {r2, r5, r6, r9, sl, fp}
    1f1c:	c2010000 	andgt	r0, r1, #0
    1f20:	0000026d 	andeq	r0, r0, sp, ror #4
    1f24:	0e709102 	expeqs	f1, f2
    1f28:	00000954 	andeq	r0, r0, r4, asr r9
    1f2c:	026dc301 	rsbeq	ip, sp, #67108864	; 0x4000000
    1f30:	91020000 	mrsls	r0, (UNDEF: 2)
    1f34:	65720d6c 	ldrbvs	r0, [r2, #-3436]!	; 0xfffff294
    1f38:	c4010074 	strgt	r0, [r1], #-116	; 0xffffff8c
    1f3c:	0000026d 	andeq	r0, r0, sp, ror #4
    1f40:	12749102 	rsbsne	r9, r4, #-2147483648	; 0x80000000
    1f44:	000008b2 			; <UNDEFINED> instruction: 0x000008b2
    1f48:	1b54d701 	blne	1537b54 <_etext+0x153545b>
    1f4c:	13000000 	movwne	r0, #0
    1f50:	00088d01 	andeq	r8, r8, r1, lsl #26
    1f54:	01db0100 	bicseq	r0, fp, r0, lsl #2
    1f58:	00001b64 	andeq	r1, r0, r4, ror #22
    1f5c:	00001bbe 			; <UNDEFINED> instruction: 0x00001bbe
    1f60:	0000181e 	andeq	r1, r0, lr, lsl r8
    1f64:	00045709 	andeq	r5, r4, r9, lsl #14
    1f68:	9bdb0100 	blls	ff6c2370 <_stack_top+0xdf6b6370>
    1f6c:	02000002 	andeq	r0, r0, #2
    1f70:	df096c91 	svcle	0x00096c91
    1f74:	01000007 	tsteq	r0, r7
    1f78:	00026ddb 	ldrdeq	r6, [r2], -fp
    1f7c:	68910200 	ldmvs	r1, {r9}
    1f80:	0009540e 	andeq	r5, r9, lr, lsl #8
    1f84:	6ddd0100 	ldfvse	f0, [sp]
    1f88:	02000002 	andeq	r0, r0, #2
    1f8c:	4a0e7491 	bmi	39f1d8 <_etext+0x39cadf>
    1f90:	01000009 	tsteq	r0, r9
    1f94:	00026dde 	ldrdeq	r6, [r2], -lr
    1f98:	70910200 	addsvc	r0, r1, r0, lsl #4
    1f9c:	0008b212 	andeq	fp, r8, r2, lsl r2
    1fa0:	b6ee0100 	strbtlt	r0, [lr], r0, lsl #2
    1fa4:	0000001b 	andeq	r0, r0, fp, lsl r0
    1fa8:	00050d00 	andeq	r0, r5, r0, lsl #26
    1fac:	d6000200 	strle	r0, [r0], -r0, lsl #4
    1fb0:	04000006 	streq	r0, [r0], #-6
    1fb4:	00008301 	andeq	r8, r0, r1, lsl #6
    1fb8:	09910100 	ldmibeq	r1, {r8}
    1fbc:	00000000 	andeq	r0, r0, r0
    1fc0:	1bc00000 	blne	ff001fc8 <_stack_top+0xdeff5fc8>
    1fc4:	1dca0000 	stclne	0, cr0, [sl]
    1fc8:	072c0000 	streq	r0, [ip, -r0]!
    1fcc:	01020000 	mrseq	r0, (UNDEF: 2)
    1fd0:	00003206 	andeq	r3, r0, r6, lsl #4
    1fd4:	02250300 	eoreq	r0, r5, #0, 6
    1fd8:	1d020000 	stcne	0, cr0, [r2, #-0]
    1fdc:	00000037 	andeq	r0, r0, r7, lsr r0
    1fe0:	30080102 	andcc	r0, r8, r2, lsl #2
    1fe4:	02000000 	andeq	r0, r0, #0
    1fe8:	010a0502 	tsteq	sl, r2, lsl #10
    1fec:	02020000 	andeq	r0, r2, #0
    1ff0:	00003e07 	andeq	r3, r0, r7, lsl #28
    1ff4:	05040200 	streq	r0, [r4, #-512]	; 0xfffffe00
    1ff8:	00000101 	andeq	r0, r0, r1, lsl #2
    1ffc:	0001a003 	andeq	sl, r1, r3
    2000:	5e410200 	cdppl	2, 4, cr0, cr1, cr0, {0}
    2004:	02000000 	andeq	r0, r0, #0
    2008:	00710704 	rsbseq	r0, r1, r4, lsl #14
    200c:	08020000 	stmdaeq	r2, {}	; <UNPREDICTABLE>
    2010:	0000fc05 	andeq	pc, r0, r5, lsl #24
    2014:	07080200 	streq	r0, [r8, -r0, lsl #4]
    2018:	0000006c 	andeq	r0, r0, ip, rrx
    201c:	69050404 	stmdbvs	r5, {r2, sl}
    2020:	0200746e 	andeq	r7, r0, #1845493760	; 0x6e000000
    2024:	00760704 	rsbseq	r0, r6, r4, lsl #14
    2028:	27030000 	strcs	r0, [r3, -r0]
    202c:	03000002 	movweq	r0, #2
    2030:	00002c14 	andeq	r2, r0, r4, lsl ip
    2034:	01a20300 			; <UNDEFINED> instruction: 0x01a20300
    2038:	20030000 	andcs	r0, r3, r0
    203c:	00000053 	andeq	r0, r0, r3, asr r0
    2040:	0001b605 	andeq	fp, r1, r5, lsl #12
    2044:	12040800 	andne	r0, r4, #0, 16
    2048:	000000c0 	andeq	r0, r0, r0, asr #1
    204c:	00094a06 	andeq	r4, r9, r6, lsl #20
    2050:	c0130400 	andsgt	r0, r3, r0, lsl #8
    2054:	02000000 	andeq	r0, r0, #0
    2058:	54060023 	strpl	r0, [r6], #-35	; 0xffffffdd
    205c:	04000009 	streq	r0, [r0], #-9
    2060:	0000c014 	andeq	ip, r0, r4, lsl r0
    2064:	04230200 	strteq	r0, [r3], #-512	; 0xfffffe00
    2068:	97040700 	strls	r0, [r4, -r0, lsl #14]
    206c:	03000000 	movweq	r0, #0
    2070:	0000018b 	andeq	r0, r0, fp, lsl #3
    2074:	00971504 	addseq	r1, r7, r4, lsl #10
    2078:	97050000 	strls	r0, [r5, -r0]
    207c:	0c000001 	stceq	0, cr0, [r0], {1}
    2080:	00fa1904 	rscseq	r1, sl, r4, lsl #18
    2084:	30060000 	andcc	r0, r6, r0
    2088:	04000009 	streq	r0, [r0], #-9
    208c:	0000c61a 	andeq	ip, r0, sl, lsl r6
    2090:	00230200 	eoreq	r0, r3, r0, lsl #4
    2094:	0001ab06 	andeq	sl, r1, r6, lsl #22
    2098:	8c1b0400 	cfldrshi	mvf0, [fp], {-0}
    209c:	02000000 	andeq	r0, r0, #0
    20a0:	03000823 	movweq	r0, #2083	; 0x823
    20a4:	00000172 	andeq	r0, r0, r2, ror r1
    20a8:	00d11c04 	sbcseq	r1, r1, r4, lsl #24
    20ac:	fd030000 	stc2	0, cr0, [r3, #-0]
    20b0:	05000002 	streq	r0, [r0, #-2]
    20b4:	00008c0e 	andeq	r8, r0, lr, lsl #24
    20b8:	022f0500 	eoreq	r0, pc, #0, 10
    20bc:	05400000 	strbeq	r0, [r0, #-0]
    20c0:	0001e110 	andeq	lr, r1, r0, lsl r1
    20c4:	02660600 	rsbeq	r0, r6, #0, 12
    20c8:	12050000 	andne	r0, r5, #0
    20cc:	000001e1 	andeq	r0, r0, r1, ror #3
    20d0:	06002302 	streq	r2, [r0], -r2, lsl #6
    20d4:	000002d8 	ldrdeq	r0, [r0], -r8
    20d8:	008c1305 	addeq	r1, ip, r5, lsl #6
    20dc:	23020000 	movwcs	r0, #8192	; 0x2000
    20e0:	05f00604 	ldrbeq	r0, [r0, #1540]!	; 0x604
    20e4:	14050000 	strne	r0, [r5], #-0
    20e8:	0000008c 	andeq	r0, r0, ip, lsl #1
    20ec:	06082302 	streq	r2, [r8], -r2, lsl #6
    20f0:	00000133 	andeq	r0, r0, r3, lsr r1
    20f4:	00c61705 	sbceq	r1, r6, r5, lsl #14
    20f8:	23020000 	movwcs	r0, #8192	; 0x2000
    20fc:	016c060c 	cmneq	ip, ip, lsl #12
    2100:	18050000 	stmdane	r5, {}	; <UNPREDICTABLE>
    2104:	0000008c 	andeq	r0, r0, ip, lsl #1
    2108:	06142302 	ldreq	r2, [r4], -r2, lsl #6
    210c:	00000341 	andeq	r0, r0, r1, asr #6
    2110:	00c61b05 	sbceq	r1, r6, r5, lsl #22
    2114:	23020000 	movwcs	r0, #8192	; 0x2000
    2118:	02600618 	rsbeq	r0, r0, #24, 12	; 0x1800000
    211c:	1c050000 	stcne	0, cr0, [r5], {-0}
    2120:	0000008c 	andeq	r0, r0, ip, lsl #1
    2124:	06202302 	strteq	r2, [r0], -r2, lsl #6
    2128:	000002f1 	strdeq	r0, [r0], -r1
    212c:	008c1f05 	addeq	r1, ip, r5, lsl #30
    2130:	23020000 	movwcs	r0, #8192	; 0x2000
    2134:	021f0624 	andseq	r0, pc, #36, 12	; 0x2400000
    2138:	22050000 	andcs	r0, r5, #0
    213c:	000001f5 	strdeq	r0, [r0], -r5
    2140:	06282302 	strteq	r2, [r8], -r2, lsl #6
    2144:	00000127 	andeq	r0, r0, r7, lsr #2
    2148:	01f32305 	mvnseq	r2, r5, lsl #6
    214c:	23020000 	movwcs	r0, #8192	; 0x2000
    2150:	02c7062c 	sbceq	r0, r7, #44, 12	; 0x2c00000
    2154:	24050000 	strcs	r0, [r5], #-0
    2158:	00000081 	andeq	r0, r0, r1, lsl #1
    215c:	06302302 	ldrteq	r2, [r0], -r2, lsl #6
    2160:	0000014c 	andeq	r0, r0, ip, asr #2
    2164:	02242705 	eoreq	r2, r4, #1310720	; 0x140000
    2168:	23020000 	movwcs	r0, #8192	; 0x2000
    216c:	02940634 	addseq	r0, r4, #52, 12	; 0x3400000
    2170:	28050000 	stmdacs	r5, {}	; <UNPREDICTABLE>
    2174:	000001f3 	strdeq	r0, [r0], -r3
    2178:	06382302 	ldrteq	r2, [r8], -r2, lsl #6
    217c:	00000179 	andeq	r0, r0, r9, ror r1
    2180:	008c2905 	addeq	r2, ip, r5, lsl #18
    2184:	23020000 	movwcs	r0, #8192	; 0x2000
    2188:	0407003c 	streq	r0, [r7], #-60	; 0xffffffc4
    218c:	00000105 	andeq	r0, r0, r5, lsl #2
    2190:	01f30108 	mvnseq	r0, r8, lsl #2
    2194:	f3090000 	vhadd.u8	d0, d9, d0
    2198:	00000001 	andeq	r0, r0, r1
    219c:	0407040a 	streq	r0, [r7], #-1034	; 0xfffffbf6
    21a0:	000001e7 	andeq	r0, r0, r7, ror #3
    21a4:	00015705 	andeq	r5, r1, r5, lsl #14
    21a8:	10061000 	andne	r1, r6, r0
    21ac:	00000224 	andeq	r0, r0, r4, lsr #4
    21b0:	0000f706 	andeq	pc, r0, r6, lsl #14
    21b4:	5a110600 	bpl	4439bc <_etext+0x4412c3>
    21b8:	02000002 	andeq	r0, r0, #2
    21bc:	37060023 	strcc	r0, [r6, -r3, lsr #32]
    21c0:	06000003 	streq	r0, [r0], -r3
    21c4:	0000fa12 	andeq	pc, r0, r2, lsl sl	; <UNPREDICTABLE>
    21c8:	04230200 	strteq	r0, [r3], #-512	; 0xfffffe00
    21cc:	fb040700 	blx	103dd6 <_etext+0x1016dd>
    21d0:	03000001 	movweq	r0, #1
    21d4:	000001d8 	ldrdeq	r0, [r0], -r8
    21d8:	01102b05 	tsteq	r0, r5, lsl #22
    21dc:	100b0000 	andne	r0, fp, r0
    21e0:	01000002 	tsteq	r0, r2
    21e4:	025a0906 	subseq	r0, sl, #98304	; 0x18000
    21e8:	5a0c0000 	bpl	3021f0 <_etext+0x2ffaf7>
    21ec:	00000003 	andeq	r0, r0, r3
    21f0:	00030a0c 	andeq	r0, r3, ip, lsl #20
    21f4:	f70c0100 			; <UNDEFINED> instruction: 0xf70c0100
    21f8:	02000001 	andeq	r0, r0, #1
    21fc:	00027f0c 	andeq	r7, r2, ip, lsl #30
    2200:	03000300 	movweq	r0, #768	; 0x300
    2204:	00000249 	andeq	r0, r0, r9, asr #4
    2208:	02350e06 	eorseq	r0, r5, #6, 28	; 0x60
    220c:	1f030000 	svcne	0x00030000
    2210:	06000003 	streq	r0, [r0], -r3
    2214:	0001fb13 	andeq	pc, r1, r3, lsl fp	; <UNPREDICTABLE>
    2218:	059c0b00 	ldreq	r0, [ip, #2816]	; 0xb00
    221c:	07010000 	streq	r0, [r1, -r0]
    2220:	00029505 	andeq	r9, r2, r5, lsl #10
    2224:	05ac0c00 	streq	r0, [ip, #3072]!	; 0xc00
    2228:	0c000000 	stceq	0, cr0, [r0], {-0}
    222c:	000007f6 	strdeq	r0, [r0], -r6
    2230:	068a0c01 	streq	r0, [sl], r1, lsl #24
    2234:	0c020000 	stceq	0, cr0, [r2], {-0}
    2238:	00000667 	andeq	r0, r0, r7, ror #12
    223c:	010d0003 	tsteq	sp, r3
    2240:	000009b8 			; <UNDEFINED> instruction: 0x000009b8
    2244:	c0010401 	andgt	r0, r1, r1, lsl #8
    2248:	e200001b 	and	r0, r0, #27
    224c:	6e00001b 	mcrvs	0, 0, r0, cr0, cr11, {0}
    2250:	cb000018 	blgt	22b8 <mem_block_init+0x50>
    2254:	0e000002 	cdpeq	0, 0, cr0, cr0, cr2, {0}
    2258:	00000151 	andeq	r0, r0, r1, asr r1
    225c:	02cb0401 	sbceq	r0, fp, #16777216	; 0x1000000
    2260:	91020000 	mrsls	r0, (UNDEF: 2)
    2264:	00f70e74 	rscseq	r0, r7, r4, ror lr
    2268:	04010000 	streq	r0, [r1], #-0
    226c:	0000025a 	andeq	r0, r0, sl, asr r2
    2270:	00739102 	rsbseq	r9, r3, r2, lsl #2
    2274:	02650407 	rsbeq	r0, r5, #117440512	; 0x7000000
    2278:	010d0000 	mrseq	r0, (UNDEF: 13)
    227c:	00000964 	andeq	r0, r0, r4, ror #18
    2280:	e4010a01 	str	r0, [r1], #-2561	; 0xfffff5ff
    2284:	4000001b 	andmi	r0, r0, fp, lsl r0
    2288:	be00001c 	mcrlt	0, 0, r0, cr0, cr12, {0}
    228c:	3f000018 	svccc	0x00000018
    2290:	0e000003 	cdpeq	0, 0, cr0, cr0, cr3, {0}
    2294:	00000151 	andeq	r0, r0, r1, asr r1
    2298:	02cb0a01 	sbceq	r0, fp, #4096	; 0x1000
    229c:	91020000 	mrsls	r0, (UNDEF: 2)
    22a0:	05c30e6c 	strbeq	r0, [r3, #3692]	; 0xe6c
    22a4:	0a010000 	beq	422ac <_etext+0x3fbb3>
    22a8:	0000033f 	andeq	r0, r0, pc, lsr r3
    22ac:	0f689102 	svceq	0x00689102
    22b0:	0067736d 	rsbeq	r7, r7, sp, ror #6
    22b4:	01f30a01 	mvnseq	r0, r1, lsl #20
    22b8:	91020000 	mrsls	r0, (UNDEF: 2)
    22bc:	016c0e64 	cmneq	ip, r4, ror #28
    22c0:	0a010000 	beq	422c8 <_etext+0x3fbcf>
    22c4:	0000008c 	andeq	r0, r0, ip, lsl #1
    22c8:	0e609102 	lgneqs	f1, f2
    22cc:	000009c3 	andeq	r0, r0, r3, asr #19
    22d0:	008c0a01 	addeq	r0, ip, r1, lsl #20
    22d4:	91020000 	mrsls	r0, (UNDEF: 2)
    22d8:	07041000 	streq	r1, [r4, -r0]
    22dc:	0c010000 	stceq	0, cr0, [r1], {-0}
    22e0:	0000008c 	andeq	r0, r0, ip, lsl #1
    22e4:	00749102 	rsbseq	r9, r4, r2, lsl #2
    22e8:	022a0407 	eoreq	r0, sl, #117440512	; 0x7000000
    22ec:	01110000 	tsteq	r1, r0
    22f0:	00000999 	muleq	r0, r9, r9
    22f4:	3f011b01 	svccc	0x00011b01
    22f8:	40000003 	andmi	r0, r0, r3
    22fc:	ae00001c 	mcrge	0, 0, r0, cr0, cr12, {0}
    2300:	0e00001c 	mcreq	0, 0, r0, cr0, cr12, {0}
    2304:	b7000019 	smladlt	r0, r9, r0, r0
    2308:	0e000003 	cdpeq	0, 0, cr0, cr0, cr3, {0}
    230c:	00000151 	andeq	r0, r0, r1, asr r1
    2310:	02cb1b01 	sbceq	r1, fp, #1024	; 0x400
    2314:	91020000 	mrsls	r0, (UNDEF: 2)
    2318:	736d0f64 	cmnvc	sp, #100, 30	; 0x190
    231c:	1b010067 	blne	424c0 <_etext+0x3fdc7>
    2320:	000001f3 	strdeq	r0, [r0], -r3
    2324:	0e609102 	lgneqs	f1, f2
    2328:	00000184 	andeq	r0, r0, r4, lsl #3
    232c:	008c1b01 	addeq	r1, ip, r1, lsl #22
    2330:	91020000 	mrsls	r0, (UNDEF: 2)
    2334:	07df105c 			; <UNDEFINED> instruction: 0x07df105c
    2338:	1d010000 	stcne	0, cr0, [r1, #-0]
    233c:	000003b7 			; <UNDEFINED> instruction: 0x000003b7
    2340:	10709102 	rsbsne	r9, r0, r2, lsl #2
    2344:	000005c3 	andeq	r0, r0, r3, asr #11
    2348:	033f1e01 	teqeq	pc, #1, 28
    234c:	91020000 	mrsls	r0, (UNDEF: 2)
    2350:	07041074 	smlsdxeq	r4, r4, r0, r1
    2354:	20010000 	andcs	r0, r1, r0
    2358:	0000008c 	andeq	r0, r0, ip, lsl #1
    235c:	006c9102 	rsbeq	r9, ip, r2, lsl #2
    2360:	00c60407 	sbceq	r0, r6, r7, lsl #8
    2364:	010d0000 	mrseq	r0, (UNDEF: 13)
    2368:	000009a6 	andeq	r0, r0, r6, lsr #19
    236c:	b0013201 	andlt	r3, r1, r1, lsl #4
    2370:	fe00001c 	mcr2	0, 0, r0, cr0, cr12, {0}
    2374:	5e00001c 	mcrpl	0, 0, r0, cr0, cr12, {0}
    2378:	0f000019 	svceq	0x00000019
    237c:	0e000004 	cdpeq	0, 0, cr0, cr0, cr4, {0}
    2380:	000005c3 	andeq	r0, r0, r3, asr #11
    2384:	033f3201 	teqeq	pc, #268435456	; 0x10000000
    2388:	91020000 	mrsls	r0, (UNDEF: 2)
    238c:	736d0f6c 	cmnvc	sp, #108, 30	; 0x1b0
    2390:	32010067 	andcc	r0, r1, #103	; 0x67
    2394:	000001f3 	strdeq	r0, [r0], -r3
    2398:	0e689102 	lgneqe	f1, f2
    239c:	00000184 	andeq	r0, r0, r4, lsl #3
    23a0:	008c3201 	addeq	r3, ip, r1, lsl #4
    23a4:	91020000 	mrsls	r0, (UNDEF: 2)
    23a8:	07041064 	streq	r1, [r4, -r4, rrx]
    23ac:	34010000 	strcc	r0, [r1], #-0
    23b0:	0000008c 	andeq	r0, r0, ip, lsl #1
    23b4:	00749102 	rsbseq	r9, r4, r2, lsl #2
    23b8:	09800111 	stmibeq	r0, {r0, r4, r8}
    23bc:	3f010000 	svccc	0x00010000
    23c0:	00008c01 	andeq	r8, r0, r1, lsl #24
    23c4:	001d0000 	andseq	r0, sp, r0
    23c8:	001d9c00 	andseq	r9, sp, r0, lsl #24
    23cc:	0019ae00 	andseq	sl, r9, r0, lsl #28
    23d0:	0004a900 	andeq	sl, r4, r0, lsl #18
    23d4:	01510e00 	cmpeq	r1, r0, lsl #28
    23d8:	3f010000 	svccc	0x00010000
    23dc:	000002cb 	andeq	r0, r0, fp, asr #5
    23e0:	0f649102 	svceq	0x00649102
    23e4:	0067736d 	rsbeq	r7, r7, sp, ror #6
    23e8:	01f33f01 	mvnseq	r3, r1, lsl #30
    23ec:	91020000 	mrsls	r0, (UNDEF: 2)
    23f0:	01840e60 	orreq	r0, r4, r0, ror #28
    23f4:	3f010000 	svccc	0x00010000
    23f8:	0000008c 	andeq	r0, r0, ip, lsl #1
    23fc:	105c9102 	subsne	r9, ip, r2, lsl #2
    2400:	000007df 	ldrdeq	r0, [r0], -pc	; <UNPREDICTABLE>
    2404:	03b74101 			; <UNDEFINED> instruction: 0x03b74101
    2408:	91020000 	mrsls	r0, (UNDEF: 2)
    240c:	01b01074 	rorseq	r1, r4, r0
    2410:	42010000 	andmi	r0, r1, #0
    2414:	0000008c 	andeq	r0, r0, ip, lsl #1
    2418:	10709102 	rsbsne	r9, r0, r2, lsl #2
    241c:	00000704 	andeq	r0, r0, r4, lsl #14
    2420:	008c4301 	addeq	r4, ip, r1, lsl #6
    2424:	91020000 	mrsls	r0, (UNDEF: 2)
    2428:	0276126c 	rsbseq	r1, r6, #108, 4	; 0xc0000006
    242c:	04c70000 	strbeq	r0, [r7], #0
    2430:	05010000 	streq	r0, [r1, #-0]
    2434:	0026e803 	eoreq	lr, r6, r3, lsl #16
    2438:	1d301300 	ldcne	3, cr1, [r0, #-0]
    243c:	1d6e0000 	stclne	0, cr0, [lr, #-0]
    2440:	c3100000 	tstgt	r0, #0
    2444:	01000005 	tsteq	r0, r5
    2448:	00033f49 	andeq	r3, r3, r9, asr #30
    244c:	68910200 	ldmvs	r1, {r9}
    2450:	c0140000 	andsgt	r0, r4, r0
    2454:	b9000004 	stmdblt	r0, {r2}
    2458:	15000004 	strne	r0, [r0, #-4]
    245c:	000004b9 			; <UNDEFINED> instruction: 0x000004b9
    2460:	04020010 	streq	r0, [r2], #-16
    2464:	0000f307 	andeq	pc, r0, r7, lsl #6
    2468:	08010200 	stmdaeq	r1, {r9}
    246c:	00000039 	andeq	r0, r0, r9, lsr r0
    2470:	0004a916 	andeq	sl, r4, r6, lsl r9
    2474:	6f011700 	svcvs	0x00011700
    2478:	01000009 	tsteq	r0, r9
    247c:	008c0158 	addeq	r0, ip, r8, asr r1
    2480:	1d9c0000 	ldcne	0, cr0, [ip]
    2484:	1dca0000 	stclne	0, cr0, [sl]
    2488:	19fe0000 	ldmibne	lr!, {}^	; <UNPREDICTABLE>
    248c:	510e0000 	mrspl	r0, (UNDEF: 14)
    2490:	01000001 	tsteq	r0, r1
    2494:	0002cb58 	andeq	ip, r2, r8, asr fp
    2498:	6c910200 	lfmvs	f0, 4, [r1], {0}
    249c:	0001b010 	andeq	fp, r1, r0, lsl r0
    24a0:	8c5a0100 	ldfhie	f0, [sl], {-0}
    24a4:	02000000 	andeq	r0, r0, #0
    24a8:	04107491 	ldreq	r7, [r0], #-1169	; 0xfffffb6f
    24ac:	01000007 	tsteq	r0, r7
    24b0:	00008c5b 	andeq	r8, r0, fp, asr ip
    24b4:	70910200 	addsvc	r0, r1, r0, lsl #4
    24b8:	04d50000 	ldrbeq	r0, [r5], #0
    24bc:	00020000 	andeq	r0, r2, r0
    24c0:	00000806 	andeq	r0, r0, r6, lsl #16
    24c4:	00830104 	addeq	r0, r3, r4, lsl #2
    24c8:	ec010000 	stc	0, cr0, [r1], {-0}
    24cc:	00000009 	andeq	r0, r0, r9
    24d0:	cc000000 	stcgt	0, cr0, [r0], {-0}
    24d4:	9800001d 	stmdals	r0, {r0, r2, r3, r4}
    24d8:	2900001f 	stmdbcs	r0, {r0, r1, r2, r3, r4}
    24dc:	02000008 	andeq	r0, r0, #8
    24e0:	00320601 	eorseq	r0, r2, r1, lsl #12
    24e4:	25030000 	strcs	r0, [r3, #-0]
    24e8:	02000002 	andeq	r0, r0, #2
    24ec:	0000371d 	andeq	r3, r0, sp, lsl r7
    24f0:	08010200 	stmdaeq	r1, {r9}
    24f4:	00000030 	andeq	r0, r0, r0, lsr r0
    24f8:	0a050202 	beq	142d08 <_etext+0x14060f>
    24fc:	02000001 	andeq	r0, r0, #1
    2500:	003e0702 	eorseq	r0, lr, r2, lsl #14
    2504:	04020000 	streq	r0, [r2], #-0
    2508:	00010105 	andeq	r0, r1, r5, lsl #2
    250c:	01a00300 	lsleq	r0, r0, #6
    2510:	41020000 	mrsmi	r0, (UNDEF: 2)
    2514:	0000005e 	andeq	r0, r0, lr, asr r0
    2518:	71070402 	tstvc	r7, r2, lsl #8
    251c:	02000000 	andeq	r0, r0, #0
    2520:	00fc0508 	rscseq	r0, ip, r8, lsl #10
    2524:	08020000 	stmdaeq	r2, {}	; <UNPREDICTABLE>
    2528:	00006c07 	andeq	r6, r0, r7, lsl #24
    252c:	05040400 	streq	r0, [r4, #-1024]	; 0xfffffc00
    2530:	00746e69 	rsbseq	r6, r4, r9, ror #28
    2534:	76070402 	strvc	r0, [r7], -r2, lsl #8
    2538:	03000000 	movweq	r0, #0
    253c:	00000227 	andeq	r0, r0, r7, lsr #4
    2540:	002c1403 	eoreq	r1, ip, r3, lsl #8
    2544:	a2030000 	andge	r0, r3, #0
    2548:	03000001 	movweq	r0, #1
    254c:	00005320 	andeq	r5, r0, r0, lsr #6
    2550:	01b60500 			; <UNDEFINED> instruction: 0x01b60500
    2554:	04080000 	streq	r0, [r8], #-0
    2558:	0000c012 	andeq	ip, r0, r2, lsl r0
    255c:	094a0600 	stmdbeq	sl, {r9, sl}^
    2560:	13040000 	movwne	r0, #16384	; 0x4000
    2564:	000000c0 	andeq	r0, r0, r0, asr #1
    2568:	06002302 	streq	r2, [r0], -r2, lsl #6
    256c:	00000954 	andeq	r0, r0, r4, asr r9
    2570:	00c01404 	sbceq	r1, r0, r4, lsl #8
    2574:	23020000 	movwcs	r0, #8192	; 0x2000
    2578:	04070004 	streq	r0, [r7], #-4
    257c:	00000097 	muleq	r0, r7, r0
    2580:	00018b03 	andeq	r8, r1, r3, lsl #22
    2584:	97150400 	ldrls	r0, [r5, -r0, lsl #8]
    2588:	05000000 	streq	r0, [r0, #-0]
    258c:	00000197 	muleq	r0, r7, r1
    2590:	fa19040c 	blx	6435c8 <_etext+0x640ecf>
    2594:	06000000 	streq	r0, [r0], -r0
    2598:	00000930 	andeq	r0, r0, r0, lsr r9
    259c:	00c61a04 	sbceq	r1, r6, r4, lsl #20
    25a0:	23020000 	movwcs	r0, #8192	; 0x2000
    25a4:	01ab0600 			; <UNDEFINED> instruction: 0x01ab0600
    25a8:	1b040000 	blne	1025b0 <_etext+0xffeb7>
    25ac:	0000008c 	andeq	r0, r0, ip, lsl #1
    25b0:	00082302 	andeq	r2, r8, r2, lsl #6
    25b4:	00017203 	andeq	r7, r1, r3, lsl #4
    25b8:	d11c0400 	tstle	ip, r0, lsl #8
    25bc:	03000000 	movweq	r0, #0
    25c0:	000002fd 	strdeq	r0, [r0], -sp
    25c4:	008c0e05 	addeq	r0, ip, r5, lsl #28
    25c8:	2f050000 	svccs	0x00050000
    25cc:	40000002 	andmi	r0, r0, r2
    25d0:	01e11005 	mvneq	r1, r5
    25d4:	66060000 	strvs	r0, [r6], -r0
    25d8:	05000002 	streq	r0, [r0, #-2]
    25dc:	0001e112 	andeq	lr, r1, r2, lsl r1
    25e0:	00230200 	eoreq	r0, r3, r0, lsl #4
    25e4:	0002d806 	andeq	sp, r2, r6, lsl #16
    25e8:	8c130500 	cfldr32hi	mvfx0, [r3], {-0}
    25ec:	02000000 	andeq	r0, r0, #0
    25f0:	f0060423 			; <UNDEFINED> instruction: 0xf0060423
    25f4:	05000005 	streq	r0, [r0, #-5]
    25f8:	00008c14 	andeq	r8, r0, r4, lsl ip
    25fc:	08230200 	stmdaeq	r3!, {r9}
    2600:	00013306 	andeq	r3, r1, r6, lsl #6
    2604:	c6170500 	ldrgt	r0, [r7], -r0, lsl #10
    2608:	02000000 	andeq	r0, r0, #0
    260c:	6c060c23 	stcvs	12, cr0, [r6], {35}	; 0x23
    2610:	05000001 	streq	r0, [r0, #-1]
    2614:	00008c18 	andeq	r8, r0, r8, lsl ip
    2618:	14230200 	strtne	r0, [r3], #-512	; 0xfffffe00
    261c:	00034106 	andeq	r4, r3, r6, lsl #2
    2620:	c61b0500 	ldrgt	r0, [fp], -r0, lsl #10
    2624:	02000000 	andeq	r0, r0, #0
    2628:	60061823 	andvs	r1, r6, r3, lsr #16
    262c:	05000002 	streq	r0, [r0, #-2]
    2630:	00008c1c 	andeq	r8, r0, ip, lsl ip
    2634:	20230200 	eorcs	r0, r3, r0, lsl #4
    2638:	0002f106 	andeq	pc, r2, r6, lsl #2
    263c:	8c1f0500 	cfldr32hi	mvfx0, [pc], {-0}
    2640:	02000000 	andeq	r0, r0, #0
    2644:	1f062423 	svcne	0x00062423
    2648:	05000002 	streq	r0, [r0, #-2]
    264c:	0001f522 	andeq	pc, r1, r2, lsr #10
    2650:	28230200 	stmdacs	r3!, {r9}
    2654:	00012706 	andeq	r2, r1, r6, lsl #14
    2658:	f3230500 	vrshl.u32	d0, d0, d3
    265c:	02000001 	andeq	r0, r0, #1
    2660:	c7062c23 	strgt	r2, [r6, -r3, lsr #24]
    2664:	05000002 	streq	r0, [r0, #-2]
    2668:	00008124 	andeq	r8, r0, r4, lsr #2
    266c:	30230200 	eorcc	r0, r3, r0, lsl #4
    2670:	00014c06 	andeq	r4, r1, r6, lsl #24
    2674:	24270500 	strtcs	r0, [r7], #-1280	; 0xfffffb00
    2678:	02000002 	andeq	r0, r0, #2
    267c:	94063423 	strls	r3, [r6], #-1059	; 0xfffffbdd
    2680:	05000002 	streq	r0, [r0, #-2]
    2684:	0001f328 	andeq	pc, r1, r8, lsr #6
    2688:	38230200 	stmdacc	r3!, {r9}
    268c:	00017906 	andeq	r7, r1, r6, lsl #18
    2690:	8c290500 	cfstr32hi	mvfx0, [r9], #-0
    2694:	02000000 	andeq	r0, r0, #0
    2698:	07003c23 	streq	r3, [r0, -r3, lsr #24]
    269c:	00010504 	andeq	r0, r1, r4, lsl #10
    26a0:	f3010800 	vsub.i8	d0, d1, d0
    26a4:	09000001 	stmdbeq	r0, {r0}
    26a8:	000001f3 	strdeq	r0, [r0], -r3
    26ac:	07040a00 	streq	r0, [r4, -r0, lsl #20]
    26b0:	0001e704 	andeq	lr, r1, r4, lsl #14
    26b4:	01570500 	cmpeq	r7, r0, lsl #10
    26b8:	06100000 	ldreq	r0, [r0], -r0
    26bc:	00022410 	andeq	r2, r2, r0, lsl r4
    26c0:	00f70600 	rscseq	r0, r7, r0, lsl #12
    26c4:	11060000 	mrsne	r0, (UNDEF: 6)
    26c8:	0000025a 	andeq	r0, r0, sl, asr r2
    26cc:	06002302 	streq	r2, [r0], -r2, lsl #6
    26d0:	00000337 	andeq	r0, r0, r7, lsr r3
    26d4:	00fa1206 	rscseq	r1, sl, r6, lsl #4
    26d8:	23020000 	movwcs	r0, #8192	; 0x2000
    26dc:	04070004 	streq	r0, [r7], #-4
    26e0:	000001fb 	strdeq	r0, [r0], -fp
    26e4:	0001d803 	andeq	sp, r1, r3, lsl #16
    26e8:	102b0500 	eorne	r0, fp, r0, lsl #10
    26ec:	0b000001 	bleq	26f8 <__func__.3920+0x10>
    26f0:	00000210 	andeq	r0, r0, r0, lsl r2
    26f4:	5a090601 	bpl	243f00 <_etext+0x241807>
    26f8:	0c000002 	stceq	0, cr0, [r0], {2}
    26fc:	0000035a 	andeq	r0, r0, sl, asr r3
    2700:	030a0c00 	movweq	r0, #44032	; 0xac00
    2704:	0c010000 	stceq	0, cr0, [r1], {-0}
    2708:	000001f7 	strdeq	r0, [r0], -r7
    270c:	027f0c02 	rsbseq	r0, pc, #512	; 0x200
    2710:	00030000 	andeq	r0, r3, r0
    2714:	00024903 	andeq	r4, r2, r3, lsl #18
    2718:	350e0600 	strcc	r0, [lr, #-1536]	; 0xfffffa00
    271c:	03000002 	movweq	r0, #2
    2720:	0000031f 	andeq	r0, r0, pc, lsl r3
    2724:	01fb1306 	mvnseq	r1, r6, lsl #6
    2728:	3a050000 	bcc	142730 <_etext+0x140037>
    272c:	1800000a 	stmdane	r0, {r1, r3}
    2730:	02a70707 	adceq	r0, r7, #1835008	; 0x1c0000
    2734:	51060000 	mrspl	r0, (UNDEF: 6)
    2738:	07000001 	streq	r0, [r0, -r1]
    273c:	00026509 	andeq	r6, r2, r9, lsl #10
    2740:	00230200 	eoreq	r0, r3, r0, lsl #4
    2744:	0001b006 	andeq	fp, r1, r6
    2748:	8c0a0700 	stchi	7, cr0, [sl], {-0}
    274c:	02000000 	andeq	r0, r0, #0
    2750:	6c061023 	stcvs	0, cr1, [r6], {35}	; 0x23
    2754:	07000002 	streq	r0, [r0, -r2]
    2758:	00008c0b 	andeq	r8, r0, fp, lsl #24
    275c:	14230200 	strtne	r0, [r3], #-512	; 0xfffffe00
    2760:	0a1e0300 	beq	783368 <_etext+0x780c6f>
    2764:	0c070000 	stceq	0, cr0, [r7], {-0}
    2768:	00000270 	andeq	r0, r0, r0, ror r2
    276c:	000a4205 	andeq	r4, sl, r5, lsl #4
    2770:	0e070c00 	cdpeq	12, 0, cr0, cr7, cr0, {0}
    2774:	000002e9 	andeq	r0, r0, r9, ror #5
    2778:	0001b006 	andeq	fp, r1, r6
    277c:	8c0f0700 	stchi	7, cr0, [pc], {-0}
    2780:	02000000 	andeq	r0, r0, #0
    2784:	6c060023 	stcvs	0, cr0, [r6], {35}	; 0x23
    2788:	07000002 	streq	r0, [r0, -r2]
    278c:	00008c10 	andeq	r8, r0, r0, lsl ip
    2790:	04230200 	strteq	r0, [r3], #-512	; 0xfffffe00
    2794:	0009cb06 	andeq	ip, r9, r6, lsl #22
    2798:	8c110700 	ldchi	7, cr0, [r1], {-0}
    279c:	02000000 	andeq	r0, r0, #0
    27a0:	03000823 	movweq	r0, #2083	; 0x823
    27a4:	00000a24 	andeq	r0, r0, r4, lsr #20
    27a8:	02b21207 	adcseq	r1, r2, #1879048192	; 0x70000000
    27ac:	9c0b0000 	stcls	0, cr0, [fp], {-0}
    27b0:	01000005 	tsteq	r0, r5
    27b4:	03190508 	tsteq	r9, #8, 10	; 0x2000000
    27b8:	ac0c0000 	stcge	0, cr0, [ip], {-0}
    27bc:	00000005 	andeq	r0, r0, r5
    27c0:	0007f60c 	andeq	pc, r7, ip, lsl #12
    27c4:	8a0c0100 	bhi	302bcc <_etext+0x3004d3>
    27c8:	02000006 	andeq	r0, r0, #6
    27cc:	0006670c 	andeq	r6, r6, ip, lsl #14
    27d0:	0d000300 	stceq	3, cr0, [r0, #-0]
    27d4:	0009d601 	andeq	sp, r9, r1, lsl #12
    27d8:	01050100 	mrseq	r0, (UNDEF: 21)
    27dc:	00001dcc 	andeq	r1, r0, ip, asr #27
    27e0:	00001e04 	andeq	r1, r0, r4, lsl #28
    27e4:	00001a4e 	andeq	r1, r0, lr, asr #20
    27e8:	0000035d 	andeq	r0, r0, sp, asr r3
    27ec:	6d65730e 	stclvs	3, cr7, [r5, #-56]!	; 0xffffffc8
    27f0:	5d050100 	stfpls	f0, [r5, #-0]
    27f4:	02000003 	andeq	r0, r0, #3
    27f8:	b00f7491 	mullt	pc, r1, r4	; <UNPREDICTABLE>
    27fc:	01000001 	tsteq	r0, r1
    2800:	00008c05 	andeq	r8, r0, r5, lsl #24
    2804:	70910200 	addsvc	r0, r1, r0, lsl #4
    2808:	00026c0f 	andeq	r6, r2, pc, lsl #24
    280c:	8c050100 	stfhis	f0, [r5], {-0}
    2810:	02000000 	andeq	r0, r0, #0
    2814:	07006c91 			; <UNDEFINED> instruction: 0x07006c91
    2818:	0002a704 	andeq	sl, r2, r4, lsl #14
    281c:	12011000 	andne	r1, r1, #0
    2820:	0100000a 	tsteq	r0, sl
    2824:	008c0110 	addeq	r0, ip, r0, lsl r1
    2828:	1e040000 	cdpne	0, 0, cr0, cr4, cr0, {0}
    282c:	1e640000 	cdpne	0, 6, cr0, cr4, cr0, {0}
    2830:	1a9e0000 	bne	fe782838 <_stack_top+0xde776838>
    2834:	03ab0000 			; <UNDEFINED> instruction: 0x03ab0000
    2838:	730e0000 	movwvc	r0, #57344	; 0xe000
    283c:	01006d65 	tsteq	r0, r5, ror #26
    2840:	00035d10 	andeq	r5, r3, r0, lsl sp
    2844:	6c910200 	lfmvs	f0, 4, [r1], {0}
    2848:	000a2f0f 	andeq	r2, sl, pc, lsl #30
    284c:	8c100100 	ldfhis	f0, [r0], {-0}
    2850:	02000000 	andeq	r0, r0, #0
    2854:	04116891 	ldreq	r6, [r1], #-2193	; 0xfffff76f
    2858:	01000007 	tsteq	r0, r7
    285c:	00008c12 	andeq	r8, r0, r2, lsl ip
    2860:	74910200 	ldrvc	r0, [r1], #512	; 0x200
    2864:	f2011000 	vhadd.s8	d1, d1, d0
    2868:	01000009 	tsteq	r0, r9
    286c:	008c0121 	addeq	r0, ip, r1, lsr #2
    2870:	1e640000 	cdpne	0, 6, cr0, cr4, cr0, {0}
    2874:	1ea80000 	cdpne	0, 10, cr0, cr8, cr0, {0}
    2878:	1aee0000 	bne	ffb82880 <_stack_top+0xdfb76880>
    287c:	03e50000 	mvneq	r0, #0
    2880:	730e0000 	movwvc	r0, #57344	; 0xe000
    2884:	01006d65 	tsteq	r0, r5, ror #26
    2888:	00035d21 	andeq	r5, r3, r1, lsr #26
    288c:	6c910200 	lfmvs	f0, 4, [r1], {0}
    2890:	00070411 	andeq	r0, r7, r1, lsl r4
    2894:	8c230100 	stfhis	f0, [r3], #-0
    2898:	02000000 	andeq	r0, r0, #0
    289c:	0d007491 	cfstrseq	mvf7, [r0, #-580]	; 0xfffffdbc
    28a0:	000a0601 	andeq	r0, sl, r1, lsl #12
    28a4:	012f0100 			; <UNDEFINED> instruction: 0x012f0100
    28a8:	00001ea8 	andeq	r1, r0, r8, lsr #29
    28ac:	00001f20 	andeq	r1, r0, r0, lsr #30
    28b0:	00001b3e 	andeq	r1, r0, lr, lsr fp
    28b4:	00000433 	andeq	r0, r0, r3, lsr r4
    28b8:	6d65730e 	stclvs	3, cr7, [r5, #-56]!	; 0xffffffc8
    28bc:	5d2f0100 	stfpls	f0, [pc, #-0]	; 28c4 <_etext+0x1cb>
    28c0:	02000003 	andeq	r0, r0, #3
    28c4:	04116c91 	ldreq	r6, [r1], #-3217	; 0xfffff36f
    28c8:	01000007 	tsteq	r0, r7
    28cc:	00008c31 	andeq	r8, r0, r1, lsr ip
    28d0:	74910200 	ldrvc	r0, [r1], #512	; 0x200
    28d4:	001ec412 	andseq	ip, lr, r2, lsl r4
    28d8:	001ee400 	andseq	lr, lr, r0, lsl #8
    28dc:	05c31100 	strbeq	r1, [r3, #256]	; 0x100
    28e0:	33010000 	movwcc	r0, #4096	; 0x1000
    28e4:	00000433 	andeq	r0, r0, r3, lsr r4
    28e8:	00709102 	rsbseq	r9, r0, r2, lsl #2
    28ec:	2a040700 	bcs	1044f4 <_etext+0x101dfb>
    28f0:	0d000002 	stceq	0, cr0, [r0, #-8]
    28f4:	0009df01 	andeq	sp, r9, r1, lsl #30
    28f8:	01400100 	mrseq	r0, (UNDEF: 80)
    28fc:	00001f20 	andeq	r1, r0, r0, lsr #30
    2900:	00001f5a 	andeq	r1, r0, sl, asr pc
    2904:	00001b8e 	andeq	r1, r0, lr, lsl #23
    2908:	0000047d 	andeq	r0, r0, sp, ror r4
    290c:	6d65730e 	stclvs	3, cr7, [r5, #-56]!	; 0xffffffc8
    2910:	5d400100 	stfple	f0, [r0, #-0]
    2914:	02000003 	andeq	r0, r0, #3
    2918:	850f6c91 	strhi	r6, [pc, #-3217]	; 1c8f <event_wakeup+0x4f>
    291c:	01000006 	tsteq	r0, r6
    2920:	00047d40 	andeq	r7, r4, r0, asr #26
    2924:	68910200 	ldmvs	r1, {r9}
    2928:	00070411 	andeq	r0, r7, r1, lsl r4
    292c:	8c420100 	stfhie	f0, [r2], {-0}
    2930:	02000000 	andeq	r0, r0, #0
    2934:	07007491 			; <UNDEFINED> instruction: 0x07007491
    2938:	0002e904 	andeq	lr, r2, r4, lsl #18
    293c:	4f011000 	svcmi	0x00011000
    2940:	0100000a 	tsteq	r0, sl
    2944:	008c0149 	addeq	r0, ip, r9, asr #2
    2948:	1f5c0000 	svcne	0x005c0000
    294c:	1f980000 	svcne	0x00980000
    2950:	1bde0000 	blne	ff782958 <_stack_top+0xdf776958>
    2954:	04cb0000 	strbeq	r0, [fp], #0
    2958:	730e0000 	movwvc	r0, #57344	; 0xe000
    295c:	01006d65 	tsteq	r0, r5, ror #26
    2960:	00035d49 	andeq	r5, r3, r9, asr #26
    2964:	6c910200 	lfmvs	f0, 4, [r1], {0}
    2968:	00070411 	andeq	r0, r7, r1, lsl r4
    296c:	8c4b0100 	stfhie	f0, [fp], {-0}
    2970:	02000000 	andeq	r0, r0, #0
    2974:	b0117491 	mulslt	r1, r1, r4
    2978:	01000001 	tsteq	r0, r1
    297c:	00008c4d 	andeq	r8, r0, sp, asr #24
    2980:	70910200 	addsvc	r0, r1, r0, lsl #4
    2984:	06941300 	ldreq	r1, [r4], r0, lsl #6
    2988:	36050000 	strcc	r0, [r5], -r0
    298c:	00000433 	andeq	r0, r0, r3, lsr r4
    2990:	6d000101 	stfvss	f0, [r0, #-4]
    2994:	02000005 	andeq	r0, r0, #5
    2998:	00090a00 	andeq	r0, r9, r0, lsl #20
    299c:	83010400 	movwhi	r0, #5120	; 0x1400
    29a0:	01000000 	mrseq	r0, (UNDEF: 0)
    29a4:	00000ab0 			; <UNDEFINED> instruction: 0x00000ab0
    29a8:	00000000 	andeq	r0, r0, r0
    29ac:	00001f98 	muleq	r0, r8, pc	; <UNPREDICTABLE>
    29b0:	00002266 	andeq	r2, r0, r6, ror #4
    29b4:	0000091f 	andeq	r0, r0, pc, lsl r9
    29b8:	32060102 	andcc	r0, r6, #-2147483648	; 0x80000000
    29bc:	03000000 	movweq	r0, #0
    29c0:	00000225 	andeq	r0, r0, r5, lsr #4
    29c4:	00371d02 	eorseq	r1, r7, r2, lsl #26
    29c8:	01020000 	mrseq	r0, (UNDEF: 2)
    29cc:	00003008 	andeq	r3, r0, r8
    29d0:	05020200 	streq	r0, [r2, #-512]	; 0xfffffe00
    29d4:	0000010a 	andeq	r0, r0, sl, lsl #2
    29d8:	3e070202 	cdpcc	2, 0, cr0, cr7, cr2, {0}
    29dc:	02000000 	andeq	r0, r0, #0
    29e0:	01010504 	tsteq	r1, r4, lsl #10
    29e4:	a0030000 	andge	r0, r3, r0
    29e8:	02000001 	andeq	r0, r0, #1
    29ec:	00005e41 	andeq	r5, r0, r1, asr #28
    29f0:	07040200 	streq	r0, [r4, -r0, lsl #4]
    29f4:	00000071 	andeq	r0, r0, r1, ror r0
    29f8:	fc050802 	stc2	8, cr0, [r5], {2}
    29fc:	02000000 	andeq	r0, r0, #0
    2a00:	006c0708 	rsbeq	r0, ip, r8, lsl #14
    2a04:	04040000 	streq	r0, [r4], #-0
    2a08:	746e6905 	strbtvc	r6, [lr], #-2309	; 0xfffff6fb
    2a0c:	07040200 	streq	r0, [r4, -r0, lsl #4]
    2a10:	00000076 	andeq	r0, r0, r6, ror r0
    2a14:	00022703 	andeq	r2, r2, r3, lsl #14
    2a18:	2c140300 	ldccs	3, cr0, [r4], {-0}
    2a1c:	03000000 	movweq	r0, #0
    2a20:	000001a2 	andeq	r0, r0, r2, lsr #3
    2a24:	00532003 	subseq	r2, r3, r3
    2a28:	b6050000 	strlt	r0, [r5], -r0
    2a2c:	08000001 	stmdaeq	r0, {r0}
    2a30:	00c01204 	sbceq	r1, r0, r4, lsl #4
    2a34:	4a060000 	bmi	182a3c <_etext+0x180343>
    2a38:	04000009 	streq	r0, [r0], #-9
    2a3c:	0000c013 	andeq	ip, r0, r3, lsl r0
    2a40:	00230200 	eoreq	r0, r3, r0, lsl #4
    2a44:	00095406 	andeq	r5, r9, r6, lsl #8
    2a48:	c0140400 	andsgt	r0, r4, r0, lsl #8
    2a4c:	02000000 	andeq	r0, r0, #0
    2a50:	07000423 	streq	r0, [r0, -r3, lsr #8]
    2a54:	00009704 	andeq	r9, r0, r4, lsl #14
    2a58:	018b0300 	orreq	r0, fp, r0, lsl #6
    2a5c:	15040000 	strne	r0, [r4, #-0]
    2a60:	00000097 	muleq	r0, r7, r0
    2a64:	00019705 	andeq	r9, r1, r5, lsl #14
    2a68:	19040c00 	stmdbne	r4, {sl, fp}
    2a6c:	000000fa 	strdeq	r0, [r0], -sl
    2a70:	00093006 	andeq	r3, r9, r6
    2a74:	c61a0400 	ldrgt	r0, [sl], -r0, lsl #8
    2a78:	02000000 	andeq	r0, r0, #0
    2a7c:	ab060023 	blge	182b10 <_etext+0x180417>
    2a80:	04000001 	streq	r0, [r0], #-1
    2a84:	00008c1b 	andeq	r8, r0, fp, lsl ip
    2a88:	08230200 	stmdaeq	r3!, {r9}
    2a8c:	01720300 	cmneq	r2, r0, lsl #6
    2a90:	1c040000 	stcne	0, cr0, [r4], {-0}
    2a94:	000000d1 	ldrdeq	r0, [r0], -r1
    2a98:	0002fd03 	andeq	pc, r2, r3, lsl #26
    2a9c:	8c0e0500 	cfstr32hi	mvfx0, [lr], {-0}
    2aa0:	05000000 	streq	r0, [r0, #-0]
    2aa4:	0000022f 	andeq	r0, r0, pc, lsr #4
    2aa8:	e1100540 	tst	r0, r0, asr #10
    2aac:	06000001 	streq	r0, [r0], -r1
    2ab0:	00000266 	andeq	r0, r0, r6, ror #4
    2ab4:	01e11205 	mvneq	r1, r5, lsl #4
    2ab8:	23020000 	movwcs	r0, #8192	; 0x2000
    2abc:	02d80600 	sbcseq	r0, r8, #0, 12
    2ac0:	13050000 	movwne	r0, #20480	; 0x5000
    2ac4:	0000008c 	andeq	r0, r0, ip, lsl #1
    2ac8:	06042302 	streq	r2, [r4], -r2, lsl #6
    2acc:	000005f0 	strdeq	r0, [r0], -r0	; <UNPREDICTABLE>
    2ad0:	008c1405 	addeq	r1, ip, r5, lsl #8
    2ad4:	23020000 	movwcs	r0, #8192	; 0x2000
    2ad8:	01330608 	teqeq	r3, r8, lsl #12
    2adc:	17050000 	strne	r0, [r5, -r0]
    2ae0:	000000c6 	andeq	r0, r0, r6, asr #1
    2ae4:	060c2302 	streq	r2, [ip], -r2, lsl #6
    2ae8:	0000016c 	andeq	r0, r0, ip, ror #2
    2aec:	008c1805 	addeq	r1, ip, r5, lsl #16
    2af0:	23020000 	movwcs	r0, #8192	; 0x2000
    2af4:	03410614 	movteq	r0, #5652	; 0x1614
    2af8:	1b050000 	blne	142b00 <_etext+0x140407>
    2afc:	000000c6 	andeq	r0, r0, r6, asr #1
    2b00:	06182302 	ldreq	r2, [r8], -r2, lsl #6
    2b04:	00000260 	andeq	r0, r0, r0, ror #4
    2b08:	008c1c05 	addeq	r1, ip, r5, lsl #24
    2b0c:	23020000 	movwcs	r0, #8192	; 0x2000
    2b10:	02f10620 	rscseq	r0, r1, #32, 12	; 0x2000000
    2b14:	1f050000 	svcne	0x00050000
    2b18:	0000008c 	andeq	r0, r0, ip, lsl #1
    2b1c:	06242302 	strteq	r2, [r4], -r2, lsl #6
    2b20:	0000021f 	andeq	r0, r0, pc, lsl r2
    2b24:	01f52205 	mvnseq	r2, r5, lsl #4
    2b28:	23020000 	movwcs	r0, #8192	; 0x2000
    2b2c:	01270628 			; <UNDEFINED> instruction: 0x01270628
    2b30:	23050000 	movwcs	r0, #20480	; 0x5000
    2b34:	000001f3 	strdeq	r0, [r0], -r3
    2b38:	062c2302 	strteq	r2, [ip], -r2, lsl #6
    2b3c:	000002c7 	andeq	r0, r0, r7, asr #5
    2b40:	00812405 	addeq	r2, r1, r5, lsl #8
    2b44:	23020000 	movwcs	r0, #8192	; 0x2000
    2b48:	014c0630 	cmpeq	ip, r0, lsr r6
    2b4c:	27050000 	strcs	r0, [r5, -r0]
    2b50:	00000224 	andeq	r0, r0, r4, lsr #4
    2b54:	06342302 	ldrteq	r2, [r4], -r2, lsl #6
    2b58:	00000294 	muleq	r0, r4, r2
    2b5c:	01f32805 	mvnseq	r2, r5, lsl #16
    2b60:	23020000 	movwcs	r0, #8192	; 0x2000
    2b64:	01790638 	cmneq	r9, r8, lsr r6
    2b68:	29050000 	stmdbcs	r5, {}	; <UNPREDICTABLE>
    2b6c:	0000008c 	andeq	r0, r0, ip, lsl #1
    2b70:	003c2302 	eorseq	r2, ip, r2, lsl #6
    2b74:	01050407 	tsteq	r5, r7, lsl #8
    2b78:	01080000 	mrseq	r0, (UNDEF: 8)
    2b7c:	000001f3 	strdeq	r0, [r0], -r3
    2b80:	0001f309 	andeq	pc, r1, r9, lsl #6
    2b84:	040a0000 	streq	r0, [sl], #-0
    2b88:	01e70407 	mvneq	r0, r7, lsl #8
    2b8c:	57050000 	strpl	r0, [r5, -r0]
    2b90:	10000001 	andne	r0, r0, r1
    2b94:	02241006 	eoreq	r1, r4, #6
    2b98:	f7060000 			; <UNDEFINED> instruction: 0xf7060000
    2b9c:	06000000 	streq	r0, [r0], -r0
    2ba0:	00025a11 	andeq	r5, r2, r1, lsl sl
    2ba4:	00230200 	eoreq	r0, r3, r0, lsl #4
    2ba8:	00033706 	andeq	r3, r3, r6, lsl #14
    2bac:	fa120600 	blx	4843b4 <_etext+0x481cbb>
    2bb0:	02000000 	andeq	r0, r0, #0
    2bb4:	07000423 	streq	r0, [r0, -r3, lsr #8]
    2bb8:	0001fb04 	andeq	pc, r1, r4, lsl #22
    2bbc:	01d80300 	bicseq	r0, r8, r0, lsl #6
    2bc0:	2b050000 	blcs	142bc8 <_etext+0x1404cf>
    2bc4:	00000110 	andeq	r0, r0, r0, lsl r1
    2bc8:	0002100b 	andeq	r1, r2, fp
    2bcc:	09060100 	stmdbeq	r6, {r8}
    2bd0:	0000025a 	andeq	r0, r0, sl, asr r2
    2bd4:	00035a0c 	andeq	r5, r3, ip, lsl #20
    2bd8:	0a0c0000 	beq	302be0 <_etext+0x3004e7>
    2bdc:	01000003 	tsteq	r0, r3
    2be0:	0001f70c 	andeq	pc, r1, ip, lsl #14
    2be4:	7f0c0200 	svcvc	0x000c0200
    2be8:	03000002 	movweq	r0, #2
    2bec:	02490300 	subeq	r0, r9, #0, 6
    2bf0:	0e060000 	cdpeq	0, 0, cr0, cr6, cr0, {0}
    2bf4:	00000235 	andeq	r0, r0, r5, lsr r2
    2bf8:	00031f03 	andeq	r1, r3, r3, lsl #30
    2bfc:	fb130600 	blx	4c4406 <_etext+0x4c1d0d>
    2c00:	05000001 	streq	r0, [r0, #-1]
    2c04:	00000a80 	andeq	r0, r0, r0, lsl #21
    2c08:	d1090724 	tstle	r9, r4, lsr #14
    2c0c:	06000002 	streq	r0, [r0], -r2
    2c10:	00000151 	andeq	r0, r0, r1, asr r1
    2c14:	02650b07 	rsbeq	r0, r5, #7168	; 0x1c00
    2c18:	23020000 	movwcs	r0, #8192	; 0x2000
    2c1c:	01b00600 	lslseq	r0, r0, #12
    2c20:	0c070000 	stceq	0, cr0, [r7], {-0}
    2c24:	0000008c 	andeq	r0, r0, ip, lsl #1
    2c28:	06102302 	ldreq	r2, [r0], -r2, lsl #6
    2c2c:	00000a7b 	andeq	r0, r0, fp, ror sl
    2c30:	008c0d07 	addeq	r0, ip, r7, lsl #26
    2c34:	23020000 	movwcs	r0, #8192	; 0x2000
    2c38:	0a5b0614 	beq	16c4490 <_etext+0x16c1d97>
    2c3c:	0e070000 	cdpeq	0, 0, cr0, cr7, cr0, {0}
    2c40:	0000008c 	andeq	r0, r0, ip, lsl #1
    2c44:	06182302 	ldreq	r2, [r8], -r2, lsl #6
    2c48:	0000026c 	andeq	r0, r0, ip, ror #4
    2c4c:	008c0f07 	addeq	r0, ip, r7, lsl #30
    2c50:	23020000 	movwcs	r0, #8192	; 0x2000
    2c54:	0b02061c 	bleq	844cc <_etext+0x81dd3>
    2c58:	10070000 	andne	r0, r7, r0
    2c5c:	000002d1 	ldrdeq	r0, [r0], -r1
    2c60:	00202302 	eoreq	r2, r0, r2, lsl #6
    2c64:	01f30407 	mvnseq	r0, r7, lsl #8
    2c68:	ba030000 	blt	c2c70 <_etext+0xc0577>
    2c6c:	0700000a 	streq	r0, [r0, -sl]
    2c70:	00027012 	andeq	r7, r2, r2, lsl r0
    2c74:	0a890500 	beq	fe24407c <_stack_top+0xde23807c>
    2c78:	070c0000 	streq	r0, [ip, -r0]
    2c7c:	00031914 	andeq	r1, r3, r4, lsl r9
    2c80:	01b00600 	lslseq	r0, r0, #12
    2c84:	15070000 	strne	r0, [r7, #-0]
    2c88:	0000008c 	andeq	r0, r0, ip, lsl #1
    2c8c:	06002302 	streq	r2, [r0], -r2, lsl #6
    2c90:	0000026c 	andeq	r0, r0, ip, ror #4
    2c94:	008c1607 	addeq	r1, ip, r7, lsl #12
    2c98:	23020000 	movwcs	r0, #8192	; 0x2000
    2c9c:	09cb0604 	stmibeq	fp, {r2, r9, sl}^
    2ca0:	17070000 	strne	r0, [r7, -r0]
    2ca4:	0000008c 	andeq	r0, r0, ip, lsl #1
    2ca8:	00082302 	andeq	r2, r8, r2, lsl #6
    2cac:	000aa403 	andeq	sl, sl, r3, lsl #8
    2cb0:	e2180700 	ands	r0, r8, #0, 14
    2cb4:	0b000002 	bleq	2cc4 <_etext+0x5cb>
    2cb8:	0000059c 	muleq	r0, ip, r5
    2cbc:	49050801 	stmdbmi	r5, {r0, fp}
    2cc0:	0c000003 	stceq	0, cr0, [r0], {3}
    2cc4:	000005ac 	andeq	r0, r0, ip, lsr #11
    2cc8:	07f60c00 	ldrbeq	r0, [r6, r0, lsl #24]!
    2ccc:	0c010000 	stceq	0, cr0, [r1], {-0}
    2cd0:	0000068a 	andeq	r0, r0, sl, lsl #13
    2cd4:	06670c02 	strbteq	r0, [r7], -r2, lsl #24
    2cd8:	00030000 	andeq	r0, r3, r0
    2cdc:	0aed010d 	beq	ffb43118 <_stack_top+0xdfb37118>
    2ce0:	05010000 	streq	r0, [r1, #-0]
    2ce4:	001f9801 	andseq	r9, pc, r1, lsl #16
    2ce8:	001fd200 	andseq	sp, pc, r0, lsl #4
    2cec:	001c2e00 	andseq	r2, ip, r0, lsl #28
    2cf0:	00038d00 	andeq	r8, r3, r0, lsl #26
    2cf4:	0ac10e00 	beq	ff0464fc <_stack_top+0xdf03a4fc>
    2cf8:	05010000 	streq	r0, [r1, #-0]
    2cfc:	0000038d 	andeq	r0, r0, sp, lsl #7
    2d00:	0e749102 	expeqs	f1, f2
    2d04:	00000b02 	andeq	r0, r0, r2, lsl #22
    2d08:	02d10501 	sbcseq	r0, r1, #4194304	; 0x400000
    2d0c:	91020000 	mrsls	r0, (UNDEF: 2)
    2d10:	026c0e70 	rsbeq	r0, ip, #112, 28	; 0x700
    2d14:	05010000 	streq	r0, [r1, #-0]
    2d18:	0000008c 	andeq	r0, r0, ip, lsl #1
    2d1c:	006c9102 	rsbeq	r9, ip, r2, lsl #2
    2d20:	02d70407 	sbcseq	r0, r7, #117440512	; 0x7000000
    2d24:	010f0000 	mrseq	r0, CPSR
    2d28:	00000a61 	andeq	r0, r0, r1, ror #20
    2d2c:	8c010f01 	stchi	15, cr0, [r1], {1}
    2d30:	d4000000 	strle	r0, [r0], #-0
    2d34:	6800001f 	stmdavs	r0, {r0, r1, r2, r3, r4}
    2d38:	7e000020 	cdpvc	0, 0, cr0, cr0, cr0, {1}
    2d3c:	e900001c 	stmdb	r0, {r2, r3, r4}
    2d40:	0e000003 	cdpeq	0, 0, cr0, cr0, cr3, {0}
    2d44:	00000ac1 	andeq	r0, r0, r1, asr #21
    2d48:	038d0f01 	orreq	r0, sp, #1, 30
    2d4c:	91020000 	mrsls	r0, (UNDEF: 2)
    2d50:	736d106c 	cmnvc	sp, #108	; 0x6c
    2d54:	0f010067 	svceq	0x00010067
    2d58:	000002d1 	ldrdeq	r0, [r0], -r1
    2d5c:	0e689102 	lgneqe	f1, f2
    2d60:	00000a2f 	andeq	r0, r0, pc, lsr #20
    2d64:	008c0f01 	addeq	r0, ip, r1, lsl #30
    2d68:	91020000 	mrsls	r0, (UNDEF: 2)
    2d6c:	07041164 	streq	r1, [r4, -r4, ror #2]
    2d70:	11010000 	mrsne	r0, (UNDEF: 1)
    2d74:	0000008c 	andeq	r0, r0, ip, lsl #1
    2d78:	00749102 	rsbseq	r9, r4, r2, lsl #2
    2d7c:	0a6a010f 	beq	1a831c0 <_etext+0x1a80ac7>
    2d80:	26010000 	strcs	r0, [r1], -r0
    2d84:	00008c01 	andeq	r8, r0, r1, lsl #24
    2d88:	00206800 	eoreq	r6, r0, r0, lsl #16
    2d8c:	0020d800 	eoreq	sp, r0, r0, lsl #16
    2d90:	001cce00 	andseq	ip, ip, r0, lsl #28
    2d94:	00043100 	andeq	r3, r4, r0, lsl #2
    2d98:	0ac10e00 	beq	ff0465a0 <_stack_top+0xdf03a5a0>
    2d9c:	26010000 	strcs	r0, [r1], -r0
    2da0:	0000038d 	andeq	r0, r0, sp, lsl #7
    2da4:	106c9102 	rsbne	r9, ip, r2, lsl #2
    2da8:	0067736d 	rsbeq	r7, r7, sp, ror #6
    2dac:	02d12601 	sbcseq	r2, r1, #1048576	; 0x100000
    2db0:	91020000 	mrsls	r0, (UNDEF: 2)
    2db4:	07041168 	streq	r1, [r4, -r8, ror #2]
    2db8:	28010000 	stmdacs	r1, {}	; <UNPREDICTABLE>
    2dbc:	0000008c 	andeq	r0, r0, ip, lsl #1
    2dc0:	00749102 	rsbseq	r9, r4, r2, lsl #2
    2dc4:	0ad5010f 	beq	ff543208 <_stack_top+0xdf537208>
    2dc8:	39010000 	stmdbcc	r1, {}	; <UNPREDICTABLE>
    2dcc:	00008c01 	andeq	r8, r0, r1, lsl #24
    2dd0:	0020d800 	eoreq	sp, r0, r0, lsl #16
    2dd4:	0021b800 	eoreq	fp, r1, r0, lsl #16
    2dd8:	001d1e00 	andseq	r1, sp, r0, lsl #28
    2ddc:	00049500 	andeq	r9, r4, r0, lsl #10
    2de0:	0ac10e00 	beq	ff0465e8 <_stack_top+0xdf03a5e8>
    2de4:	39010000 	stmdbcc	r1, {}	; <UNPREDICTABLE>
    2de8:	0000038d 	andeq	r0, r0, sp, lsl #7
    2dec:	106c9102 	rsbne	r9, ip, r2, lsl #2
    2df0:	0067736d 	rsbeq	r7, r7, sp, ror #6
    2df4:	01f33901 	mvnseq	r3, r1, lsl #18
    2df8:	91020000 	mrsls	r0, (UNDEF: 2)
    2dfc:	0ac60e68 	beq	ff1867a4 <_stack_top+0xdf17a7a4>
    2e00:	39010000 	stmdbcc	r1, {}	; <UNPREDICTABLE>
    2e04:	0000008c 	andeq	r0, r0, ip, lsl #1
    2e08:	11649102 	cmnne	r4, r2, lsl #2
    2e0c:	00000704 	andeq	r0, r0, r4, lsl #14
    2e10:	008c3b01 	addeq	r3, ip, r1, lsl #22
    2e14:	91020000 	mrsls	r0, (UNDEF: 2)
    2e18:	05c31174 	strbeq	r1, [r3, #372]	; 0x174
    2e1c:	3c010000 	stccc	0, cr0, [r1], {-0}
    2e20:	00000495 	muleq	r0, r5, r4
    2e24:	00709102 	rsbseq	r9, r0, r2, lsl #2
    2e28:	022a0407 	eoreq	r0, sl, #117440512	; 0x7000000
    2e2c:	010d0000 	mrseq	r0, (UNDEF: 13)
    2e30:	00000af7 	strdeq	r0, [r0], -r7
    2e34:	b8015d01 	stmdalt	r1, {r0, r8, sl, fp, ip, lr}
    2e38:	f2000021 	vhadd.s8	d0, d0, d17
    2e3c:	6e000021 	cdpvs	0, 0, cr0, cr0, cr1, {1}
    2e40:	d100001d 	tstle	r0, sp, lsl r0
    2e44:	0e000004 	cdpeq	0, 0, cr0, cr0, cr4, {0}
    2e48:	00000ac1 	andeq	r0, r0, r1, asr #21
    2e4c:	038d5d01 	orreq	r5, sp, #1, 26	; 0x40
    2e50:	91020000 	mrsls	r0, (UNDEF: 2)
    2e54:	0704116c 	streq	r1, [r4, -ip, ror #2]
    2e58:	5f010000 	svcpl	0x00010000
    2e5c:	0000008c 	andeq	r0, r0, ip, lsl #1
    2e60:	00749102 	rsbseq	r9, r4, r2, lsl #2
    2e64:	0a97010f 	beq	fe5c32a8 <_stack_top+0xde5b72a8>
    2e68:	6a010000 	bvs	42e70 <_etext+0x40777>
    2e6c:	00008c01 	andeq	r8, r0, r1, lsl #24
    2e70:	0021f400 	eoreq	pc, r1, r0, lsl #8
    2e74:	00222a00 	eoreq	r2, r2, r0, lsl #20
    2e78:	001dbe00 	andseq	fp, sp, r0, lsl #28
    2e7c:	00051900 	andeq	r1, r5, r0, lsl #18
    2e80:	0ac10e00 	beq	ff046688 <_stack_top+0xdf03a688>
    2e84:	6a010000 	bvs	42e8c <_etext+0x40793>
    2e88:	0000038d 	andeq	r0, r0, sp, lsl #7
    2e8c:	116c9102 	cmnne	ip, r2, lsl #2
    2e90:	00000704 	andeq	r0, r0, r4, lsl #14
    2e94:	008c6c01 	addeq	r6, ip, r1, lsl #24
    2e98:	91020000 	mrsls	r0, (UNDEF: 2)
    2e9c:	01b01174 	rorseq	r1, r4, r1
    2ea0:	6e010000 	cdpvs	0, 0, cr0, cr1, cr0, {0}
    2ea4:	0000008c 	andeq	r0, r0, ip, lsl #1
    2ea8:	00709102 	rsbseq	r9, r0, r2, lsl #2
    2eac:	0adf010d 	beq	ff7c32e8 <_stack_top+0xdf7b72e8>
    2eb0:	78010000 	stmdavc	r1, {}	; <UNPREDICTABLE>
    2eb4:	00222c01 	eoreq	r2, r2, r1, lsl #24
    2eb8:	00226600 	eoreq	r6, r2, r0, lsl #12
    2ebc:	001e0e00 	andseq	r0, lr, r0, lsl #28
    2ec0:	00055d00 	andeq	r5, r5, r0, lsl #26
    2ec4:	0ac10e00 	beq	ff0466cc <_stack_top+0xdf03a6cc>
    2ec8:	78010000 	stmdavc	r1, {}	; <UNPREDICTABLE>
    2ecc:	0000038d 	andeq	r0, r0, sp, lsl #7
    2ed0:	0e6c9102 	lgneqe	f1, f2
    2ed4:	00000685 	andeq	r0, r0, r5, lsl #13
    2ed8:	055d7801 	ldrbeq	r7, [sp, #-2049]	; 0xfffff7ff
    2edc:	91020000 	mrsls	r0, (UNDEF: 2)
    2ee0:	07041168 	streq	r1, [r4, -r8, ror #2]
    2ee4:	7a010000 	bvc	42eec <_etext+0x407f3>
    2ee8:	0000008c 	andeq	r0, r0, ip, lsl #1
    2eec:	00749102 	rsbseq	r9, r4, r2, lsl #2
    2ef0:	03190407 	tsteq	r9, #117440512	; 0x7000000
    2ef4:	94120000 	ldrls	r0, [r2], #-0
    2ef8:	05000006 	streq	r0, [r0, #-6]
    2efc:	00049536 	andeq	r9, r4, r6, lsr r5
    2f00:	00010100 	andeq	r0, r1, r0, lsl #2
    2f04:	0000056a 	andeq	r0, r0, sl, ror #10
    2f08:	0a050002 	beq	142f18 <_etext+0x14081f>
    2f0c:	01040000 	mrseq	r0, (UNDEF: 4)
    2f10:	00000083 	andeq	r0, r0, r3, lsl #1
    2f14:	000bce01 	andeq	ip, fp, r1, lsl #28
    2f18:	00000000 	andeq	r0, r0, r0
    2f1c:	00226800 	eoreq	r6, r2, r0, lsl #16
    2f20:	00248a00 	eoreq	r8, r4, r0, lsl #20
    2f24:	000a3500 	andeq	r3, sl, r0, lsl #10
    2f28:	06010200 	streq	r0, [r1], -r0, lsl #4
    2f2c:	00000032 	andeq	r0, r0, r2, lsr r0
    2f30:	00022503 	andeq	r2, r2, r3, lsl #10
    2f34:	371d0200 	ldrcc	r0, [sp, -r0, lsl #4]
    2f38:	02000000 	andeq	r0, r0, #0
    2f3c:	00300801 	eorseq	r0, r0, r1, lsl #16
    2f40:	02020000 	andeq	r0, r2, #0
    2f44:	00010a05 	andeq	r0, r1, r5, lsl #20
    2f48:	07020200 	streq	r0, [r2, -r0, lsl #4]
    2f4c:	0000003e 	andeq	r0, r0, lr, lsr r0
    2f50:	01050402 	tsteq	r5, r2, lsl #8
    2f54:	03000001 	movweq	r0, #1
    2f58:	000001a0 	andeq	r0, r0, r0, lsr #3
    2f5c:	005e4102 	subseq	r4, lr, r2, lsl #2
    2f60:	04020000 	streq	r0, [r2], #-0
    2f64:	00007107 	andeq	r7, r0, r7, lsl #2
    2f68:	05080200 	streq	r0, [r8, #-512]	; 0xfffffe00
    2f6c:	000000fc 	strdeq	r0, [r0], -ip
    2f70:	6c070802 	stcvs	8, cr0, [r7], {2}
    2f74:	04000000 	streq	r0, [r0], #-0
    2f78:	6e690504 	cdpvs	5, 6, cr0, cr9, cr4, {0}
    2f7c:	04020074 	streq	r0, [r2], #-116	; 0xffffff8c
    2f80:	00007607 	andeq	r7, r0, r7, lsl #12
    2f84:	02270300 	eoreq	r0, r7, #0, 6
    2f88:	14030000 	strne	r0, [r3], #-0
    2f8c:	0000002c 	andeq	r0, r0, ip, lsr #32
    2f90:	0001a203 	andeq	sl, r1, r3, lsl #4
    2f94:	53200300 	noppl	{0}	; <UNPREDICTABLE>
    2f98:	05000000 	streq	r0, [r0, #-0]
    2f9c:	000001b6 			; <UNDEFINED> instruction: 0x000001b6
    2fa0:	c0120408 	andsgt	r0, r2, r8, lsl #8
    2fa4:	06000000 	streq	r0, [r0], -r0
    2fa8:	0000094a 	andeq	r0, r0, sl, asr #18
    2fac:	00c01304 	sbceq	r1, r0, r4, lsl #6
    2fb0:	23020000 	movwcs	r0, #8192	; 0x2000
    2fb4:	09540600 	ldmdbeq	r4, {r9, sl}^
    2fb8:	14040000 	strne	r0, [r4], #-0
    2fbc:	000000c0 	andeq	r0, r0, r0, asr #1
    2fc0:	00042302 	andeq	r2, r4, r2, lsl #6
    2fc4:	00970407 	addseq	r0, r7, r7, lsl #8
    2fc8:	8b030000 	blhi	c2fd0 <_etext+0xc08d7>
    2fcc:	04000001 	streq	r0, [r0], #-1
    2fd0:	00009715 	andeq	r9, r0, r5, lsl r7
    2fd4:	01970500 	orrseq	r0, r7, r0, lsl #10
    2fd8:	040c0000 	streq	r0, [ip], #-0
    2fdc:	0000fa19 	andeq	pc, r0, r9, lsl sl	; <UNPREDICTABLE>
    2fe0:	09300600 	ldmdbeq	r0!, {r9, sl}
    2fe4:	1a040000 	bne	102fec <_etext+0x1008f3>
    2fe8:	000000c6 	andeq	r0, r0, r6, asr #1
    2fec:	06002302 	streq	r2, [r0], -r2, lsl #6
    2ff0:	000001ab 	andeq	r0, r0, fp, lsr #3
    2ff4:	008c1b04 	addeq	r1, ip, r4, lsl #22
    2ff8:	23020000 	movwcs	r0, #8192	; 0x2000
    2ffc:	72030008 	andvc	r0, r3, #8
    3000:	04000001 	streq	r0, [r0], #-1
    3004:	0000d11c 	andeq	sp, r0, ip, lsl r1
    3008:	02fd0300 	rscseq	r0, sp, #0, 6
    300c:	0e050000 	cdpeq	0, 0, cr0, cr5, cr0, {0}
    3010:	0000008c 	andeq	r0, r0, ip, lsl #1
    3014:	00022f05 	andeq	r2, r2, r5, lsl #30
    3018:	10054000 	andne	r4, r5, r0
    301c:	000001e1 	andeq	r0, r0, r1, ror #3
    3020:	00026606 	andeq	r6, r2, r6, lsl #12
    3024:	e1120500 	tst	r2, r0, lsl #10
    3028:	02000001 	andeq	r0, r0, #1
    302c:	d8060023 	stmdale	r6, {r0, r1, r5}
    3030:	05000002 	streq	r0, [r0, #-2]
    3034:	00008c13 	andeq	r8, r0, r3, lsl ip
    3038:	04230200 	strteq	r0, [r3], #-512	; 0xfffffe00
    303c:	0005f006 	andeq	pc, r5, r6
    3040:	8c140500 	cfldr32hi	mvfx0, [r4], {-0}
    3044:	02000000 	andeq	r0, r0, #0
    3048:	33060823 	movwcc	r0, #26659	; 0x6823
    304c:	05000001 	streq	r0, [r0, #-1]
    3050:	0000c617 	andeq	ip, r0, r7, lsl r6
    3054:	0c230200 	sfmeq	f0, 4, [r3], #-0
    3058:	00016c06 	andeq	r6, r1, r6, lsl #24
    305c:	8c180500 	cfldr32hi	mvfx0, [r8], {-0}
    3060:	02000000 	andeq	r0, r0, #0
    3064:	41061423 	tstmi	r6, r3, lsr #8
    3068:	05000003 	streq	r0, [r0, #-3]
    306c:	0000c61b 	andeq	ip, r0, fp, lsl r6
    3070:	18230200 	stmdane	r3!, {r9}
    3074:	00026006 	andeq	r6, r2, r6
    3078:	8c1c0500 	cfldr32hi	mvfx0, [ip], {-0}
    307c:	02000000 	andeq	r0, r0, #0
    3080:	f1062023 			; <UNDEFINED> instruction: 0xf1062023
    3084:	05000002 	streq	r0, [r0, #-2]
    3088:	00008c1f 	andeq	r8, r0, pc, lsl ip
    308c:	24230200 	strtcs	r0, [r3], #-512	; 0xfffffe00
    3090:	00021f06 	andeq	r1, r2, r6, lsl #30
    3094:	f5220500 			; <UNDEFINED> instruction: 0xf5220500
    3098:	02000001 	andeq	r0, r0, #1
    309c:	27062823 	strcs	r2, [r6, -r3, lsr #16]
    30a0:	05000001 	streq	r0, [r0, #-1]
    30a4:	0001f323 	andeq	pc, r1, r3, lsr #6
    30a8:	2c230200 	sfmcs	f0, 4, [r3], #-0
    30ac:	0002c706 	andeq	ip, r2, r6, lsl #14
    30b0:	81240500 			; <UNDEFINED> instruction: 0x81240500
    30b4:	02000000 	andeq	r0, r0, #0
    30b8:	4c063023 	stcmi	0, cr3, [r6], {35}	; 0x23
    30bc:	05000001 	streq	r0, [r0, #-1]
    30c0:	00022427 	andeq	r2, r2, r7, lsr #8
    30c4:	34230200 	strtcc	r0, [r3], #-512	; 0xfffffe00
    30c8:	00029406 	andeq	r9, r2, r6, lsl #8
    30cc:	f3280500 	vrshl.u32	d0, d0, d8
    30d0:	02000001 	andeq	r0, r0, #1
    30d4:	79063823 	stmdbvc	r6, {r0, r1, r5, fp, ip, sp}
    30d8:	05000001 	streq	r0, [r0, #-1]
    30dc:	00008c29 	andeq	r8, r0, r9, lsr #24
    30e0:	3c230200 	sfmcc	f0, 4, [r3], #-0
    30e4:	05040700 	streq	r0, [r4, #-1792]	; 0xfffff900
    30e8:	08000001 	stmdaeq	r0, {r0}
    30ec:	0001f301 	andeq	pc, r1, r1, lsl #6
    30f0:	01f30900 	mvnseq	r0, r0, lsl #18
    30f4:	0a000000 	beq	30fc <_etext+0xa03>
    30f8:	e7040704 	str	r0, [r4, -r4, lsl #14]
    30fc:	05000001 	streq	r0, [r0, #-1]
    3100:	00000157 	andeq	r0, r0, r7, asr r1
    3104:	24100610 	ldrcs	r0, [r0], #-1552	; 0xfffff9f0
    3108:	06000002 	streq	r0, [r0], -r2
    310c:	000000f7 	strdeq	r0, [r0], -r7
    3110:	025a1106 	subseq	r1, sl, #-2147483647	; 0x80000001
    3114:	23020000 	movwcs	r0, #8192	; 0x2000
    3118:	03370600 	teqeq	r7, #0, 12
    311c:	12060000 	andne	r0, r6, #0
    3120:	000000fa 	strdeq	r0, [r0], -sl
    3124:	00042302 	andeq	r2, r4, r2, lsl #6
    3128:	01fb0407 	mvnseq	r0, r7, lsl #8
    312c:	d8030000 	stmdale	r3, {}	; <UNPREDICTABLE>
    3130:	05000001 	streq	r0, [r0, #-1]
    3134:	0001102b 	andeq	r1, r1, fp, lsr #32
    3138:	02100b00 	andseq	r0, r0, #0, 22
    313c:	06010000 	streq	r0, [r1], -r0
    3140:	00025a09 	andeq	r5, r2, r9, lsl #20
    3144:	035a0c00 	cmpeq	sl, #0, 24
    3148:	0c000000 	stceq	0, cr0, [r0], {-0}
    314c:	0000030a 	andeq	r0, r0, sl, lsl #6
    3150:	01f70c01 	mvnseq	r0, r1, lsl #24
    3154:	0c020000 	stceq	0, cr0, [r2], {-0}
    3158:	0000027f 	andeq	r0, r0, pc, ror r2
    315c:	49030003 	stmdbmi	r3, {r0, r1}
    3160:	06000002 	streq	r0, [r0], -r2
    3164:	0002350e 	andeq	r3, r2, lr, lsl #10
    3168:	031f0300 	tsteq	pc, #0, 6
    316c:	13060000 	movwne	r0, #24576	; 0x6000
    3170:	000001fb 	strdeq	r0, [r0], -fp
    3174:	00059c0b 	andeq	r9, r5, fp, lsl #24
    3178:	05070100 	streq	r0, [r7, #-256]	; 0xffffff00
    317c:	00000295 	muleq	r0, r5, r2
    3180:	0005ac0c 	andeq	sl, r5, ip, lsl #24
    3184:	f60c0000 			; <UNDEFINED> instruction: 0xf60c0000
    3188:	01000007 	tsteq	r0, r7
    318c:	00068a0c 	andeq	r8, r6, ip, lsl #20
    3190:	670c0200 	strvs	r0, [ip, -r0, lsl #4]
    3194:	03000006 	movweq	r0, #6
    3198:	013e0500 	teqeq	lr, r0, lsl #10
    319c:	08280000 	stmdaeq	r8!, {}	; <UNPREDICTABLE>
    31a0:	0002e80b 	andeq	lr, r2, fp, lsl #16
    31a4:	01510600 	cmpeq	r1, r0, lsl #12
    31a8:	0c080000 	stceq	0, cr0, [r8], {-0}
    31ac:	00000265 	andeq	r0, r0, r5, ror #4
    31b0:	06002302 	streq	r2, [r0], -r2, lsl #6
    31b4:	00000b7b 	andeq	r0, r0, fp, ror fp
    31b8:	01f30d08 	mvnseq	r0, r8, lsl #26
    31bc:	23020000 	movwcs	r0, #8192	; 0x2000
    31c0:	01610610 	cmneq	r1, r0, lsl r6
    31c4:	0e080000 	cdpeq	0, 0, cr0, cr8, cr0, {0}
    31c8:	0000008c 	andeq	r0, r0, ip, lsl #1
    31cc:	06142302 	ldreq	r2, [r4], -r2, lsl #6
    31d0:	0000026c 	andeq	r0, r0, ip, ror #4
    31d4:	008c0f08 	addeq	r0, ip, r8, lsl #30
    31d8:	23020000 	movwcs	r0, #8192	; 0x2000
    31dc:	02380618 	eorseq	r0, r8, #24, 12	; 0x1800000
    31e0:	10080000 	andne	r0, r8, r0
    31e4:	000000fa 	strdeq	r0, [r0], -sl
    31e8:	001c2302 	andseq	r2, ip, r2, lsl #6
    31ec:	0002bb03 	andeq	fp, r2, r3, lsl #22
    31f0:	95110800 	ldrls	r0, [r1, #-2048]	; 0xfffff800
    31f4:	05000002 	streq	r0, [r0, #-2]
    31f8:	00000b1d 	andeq	r0, r0, sp, lsl fp
    31fc:	38130810 	ldmdacc	r3, {r4, fp}
    3200:	06000003 	streq	r0, [r0], -r3
    3204:	000001b0 			; <UNDEFINED> instruction: 0x000001b0
    3208:	008c1408 	addeq	r1, ip, r8, lsl #8
    320c:	23020000 	movwcs	r0, #8192	; 0x2000
    3210:	026c0600 	rsbeq	r0, ip, #0, 12
    3214:	15080000 	strne	r0, [r8, #-0]
    3218:	0000008c 	andeq	r0, r0, ip, lsl #1
    321c:	06042302 	streq	r2, [r4], -r2, lsl #6
    3220:	00000161 	andeq	r0, r0, r1, ror #2
    3224:	008c1608 	addeq	r1, ip, r8, lsl #12
    3228:	23020000 	movwcs	r0, #8192	; 0x2000
    322c:	09cb0608 	stmibeq	fp, {r3, r9, sl}^
    3230:	17080000 	strne	r0, [r8, -r0]
    3234:	0000008c 	andeq	r0, r0, ip, lsl #1
    3238:	000c2302 	andeq	r2, ip, r2, lsl #6
    323c:	000b3e03 	andeq	r3, fp, r3, lsl #28
    3240:	f3180800 	vsub.i16	d0, d8, d0
    3244:	0d000002 	stceq	0, cr0, [r0, #-8]
    3248:	000bbf01 	andeq	fp, fp, r1, lsl #30
    324c:	01040100 	mrseq	r0, (UNDEF: 20)
    3250:	00002268 	andeq	r2, r0, r8, ror #4
    3254:	000022e2 	andeq	r2, r0, r2, ror #5
    3258:	00001e5e 	andeq	r1, r0, lr, asr lr
    325c:	000003bc 			; <UNDEFINED> instruction: 0x000003bc
    3260:	000b990e 	andeq	r9, fp, lr, lsl #18
    3264:	bc040100 	stflts	f0, [r4], {-0}
    3268:	02000003 	andeq	r0, r0, #3
    326c:	7b0e6c91 	blvc	39e4b8 <_etext+0x39bdbf>
    3270:	0100000b 	tsteq	r0, fp
    3274:	0003c204 	andeq	ip, r3, r4, lsl #4
    3278:	68910200 	ldmvs	r1, {r9}
    327c:	0001610e 	andeq	r6, r1, lr, lsl #2
    3280:	8c040100 	stfhis	f0, [r4], {-0}
    3284:	02000000 	andeq	r0, r0, #0
    3288:	b50e6491 	strlt	r6, [lr, #-1169]	; 0xfffffb6f
    328c:	0100000b 	tsteq	r0, fp
    3290:	00008c04 	andeq	r8, r0, r4, lsl #24
    3294:	60910200 	addsvs	r0, r1, r0, lsl #4
    3298:	000b710f 	andeq	r7, fp, pc, lsl #2
    329c:	c2060100 	andgt	r0, r6, #0, 2
    32a0:	02000003 	andeq	r0, r0, #3
    32a4:	300f7491 	mulcc	pc, r1, r4	; <UNPREDICTABLE>
    32a8:	0100000b 	tsteq	r0, fp
    32ac:	0003c207 	andeq	ip, r3, r7, lsl #4
    32b0:	70910200 	addsvc	r0, r1, r0, lsl #4
    32b4:	0008b210 	andeq	fp, r8, r0, lsl r2
    32b8:	da1a0100 	ble	6836c0 <_etext+0x680fc7>
    32bc:	00000022 	andeq	r0, r0, r2, lsr #32
    32c0:	02e80407 	rsceq	r0, r8, #117440512	; 0x7000000
    32c4:	04070000 	streq	r0, [r7], #-0
    32c8:	00000081 	andeq	r0, r0, r1, lsl #1
    32cc:	0b0d0111 	bleq	343718 <_etext+0x34101f>
    32d0:	1f010000 	svcne	0x00010000
    32d4:	00008c01 	andeq	r8, r0, r1, lsl #24
    32d8:	0022e400 	eoreq	lr, r2, r0, lsl #8
    32dc:	00235c00 	eoreq	r5, r3, r0, lsl #24
    32e0:	001eae00 	andseq	sl, lr, r0, lsl #28
    32e4:	00041e00 	andeq	r1, r4, r0, lsl #28
    32e8:	0b990e00 	bleq	fe646af0 <_stack_top+0xde63aaf0>
    32ec:	1f010000 	svcne	0x00010000
    32f0:	000003bc 			; <UNDEFINED> instruction: 0x000003bc
    32f4:	126c9102 	rsbne	r9, ip, #-2147483648	; 0x80000000
    32f8:	006d656d 	rsbeq	r6, sp, sp, ror #10
    32fc:	041e1f01 	ldreq	r1, [lr], #-3841	; 0xfffff0ff
    3300:	91020000 	mrsls	r0, (UNDEF: 2)
    3304:	0a2f0e68 	beq	bc6cac <_etext+0xbc45b3>
    3308:	1f010000 	svcne	0x00010000
    330c:	0000008c 	andeq	r0, r0, ip, lsl #1
    3310:	0f649102 	svceq	0x00649102
    3314:	00000704 	andeq	r0, r0, r4, lsl #14
    3318:	008c2101 	addeq	r2, ip, r1, lsl #2
    331c:	91020000 	mrsls	r0, (UNDEF: 2)
    3320:	04070074 	streq	r0, [r7], #-116	; 0xffffff8c
    3324:	000003c2 	andeq	r0, r0, r2, asr #7
    3328:	0b810111 	bleq	fe043774 <_stack_top+0xde037774>
    332c:	30010000 	andcc	r0, r1, r0
    3330:	00008c01 	andeq	r8, r0, r1, lsl #24
    3334:	00235c00 	eoreq	r5, r3, r0, lsl #24
    3338:	0023a600 	eoreq	sl, r3, r0, lsl #12
    333c:	001efe00 	andseq	pc, lr, r0, lsl #28
    3340:	00046c00 	andeq	r6, r4, r0, lsl #24
    3344:	0b990e00 	bleq	fe646b4c <_stack_top+0xde63ab4c>
    3348:	30010000 	andcc	r0, r1, r0
    334c:	000003bc 			; <UNDEFINED> instruction: 0x000003bc
    3350:	126c9102 	rsbne	r9, ip, #-2147483648	; 0x80000000
    3354:	006d656d 	rsbeq	r6, sp, sp, ror #10
    3358:	041e3001 	ldreq	r3, [lr], #-1
    335c:	91020000 	mrsls	r0, (UNDEF: 2)
    3360:	07040f68 	streq	r0, [r4, -r8, ror #30]
    3364:	32010000 	andcc	r0, r1, #0
    3368:	0000008c 	andeq	r0, r0, ip, lsl #1
    336c:	00749102 	rsbseq	r9, r4, r2, lsl #2
    3370:	0b62010d 	bleq	18837ac <_etext+0x18810b3>
    3374:	3f010000 	svccc	0x00010000
    3378:	0023a801 	eoreq	sl, r3, r1, lsl #16
    337c:	00240800 	eoreq	r0, r4, r0, lsl #16
    3380:	001f4e00 	andseq	r4, pc, r0, lsl #28
    3384:	0004c800 	andeq	ip, r4, r0, lsl #16
    3388:	0b990e00 	bleq	fe646b90 <_stack_top+0xde63ab90>
    338c:	3f010000 	svccc	0x00010000
    3390:	000003bc 			; <UNDEFINED> instruction: 0x000003bc
    3394:	126c9102 	rsbne	r9, ip, #-2147483648	; 0x80000000
    3398:	006d656d 	rsbeq	r6, sp, sp, ror #10
    339c:	03c23f01 	biceq	r3, r2, #1, 30
    33a0:	91020000 	mrsls	r0, (UNDEF: 2)
    33a4:	07040f68 	streq	r0, [r4, -r8, ror #30]
    33a8:	41010000 	mrsmi	r0, (UNDEF: 1)
    33ac:	0000008c 	andeq	r0, r0, ip, lsl #1
    33b0:	13749102 	cmnne	r4, #-2147483648	; 0x80000000
    33b4:	000023c6 	andeq	r2, r0, r6, asr #7
    33b8:	000023e6 	andeq	r2, r0, r6, ror #7
    33bc:	0005c30f 	andeq	ip, r5, pc, lsl #6
    33c0:	c8430100 	stmdagt	r3, {r8}^
    33c4:	02000004 	andeq	r0, r0, #4
    33c8:	00007091 	muleq	r0, r1, r0
    33cc:	022a0407 	eoreq	r0, sl, #117440512	; 0x7000000
    33d0:	010d0000 	mrseq	r0, (UNDEF: 13)
    33d4:	00000b4f 	andeq	r0, r0, pc, asr #22
    33d8:	08014e01 	stmdaeq	r1, {r0, r9, sl, fp, lr}
    33dc:	52000024 	andpl	r0, r0, #36	; 0x24
    33e0:	9e000024 	cdpls	0, 0, cr0, cr0, cr4, {1}
    33e4:	1200001f 	andne	r0, r0, #31
    33e8:	0e000005 	cdpeq	0, 0, cr0, cr0, cr5, {0}
    33ec:	00000b99 	muleq	r0, r9, fp
    33f0:	03bc4e01 			; <UNDEFINED> instruction: 0x03bc4e01
    33f4:	91020000 	mrsls	r0, (UNDEF: 2)
    33f8:	06850e6c 	streq	r0, [r5], ip, ror #28
    33fc:	4e010000 	cdpmi	0, 0, cr0, cr1, cr0, {0}
    3400:	00000512 	andeq	r0, r0, r2, lsl r5
    3404:	0f689102 	svceq	0x00689102
    3408:	00000704 	andeq	r0, r0, r4, lsl #14
    340c:	008c5001 	addeq	r5, ip, r1
    3410:	91020000 	mrsls	r0, (UNDEF: 2)
    3414:	04070074 	streq	r0, [r7], #-116	; 0xffffff8c
    3418:	00000338 	andeq	r0, r0, r8, lsr r3
    341c:	0ba30111 	bleq	fe8c3868 <_stack_top+0xde8b7868>
    3420:	58010000 	stmdapl	r1, {}	; <UNPREDICTABLE>
    3424:	00008c01 	andeq	r8, r0, r1, lsl #24
    3428:	00245400 	eoreq	r5, r4, r0, lsl #8
    342c:	00248a00 	eoreq	r8, r4, r0, lsl #20
    3430:	001fee00 	andseq	lr, pc, r0, lsl #28
    3434:	00056000 	andeq	r6, r5, r0
    3438:	0b990e00 	bleq	fe646c40 <_stack_top+0xde63ac40>
    343c:	58010000 	stmdapl	r1, {}	; <UNPREDICTABLE>
    3440:	000003bc 			; <UNDEFINED> instruction: 0x000003bc
    3444:	0f6c9102 	svceq	0x006c9102
    3448:	00000704 	andeq	r0, r0, r4, lsl #14
    344c:	008c5a01 	addeq	r5, ip, r1, lsl #20
    3450:	91020000 	mrsls	r0, (UNDEF: 2)
    3454:	01b00f74 	rorseq	r0, r4, pc
    3458:	5c010000 	stcpl	0, cr0, [r1], {-0}
    345c:	0000008c 	andeq	r0, r0, ip, lsl #1
    3460:	00709102 	rsbseq	r9, r0, r2, lsl #2
    3464:	00069414 	andeq	r9, r6, r4, lsl r4
    3468:	c8360500 	ldmdagt	r6!, {r8, sl}
    346c:	01000004 	tsteq	r0, r4
    3470:	00720001 	rsbseq	r0, r2, r1
    3474:	00020000 	andeq	r0, r2, r0
    3478:	00000b16 	andeq	r0, r0, r6, lsl fp
    347c:	00830104 	addeq	r0, r3, r4, lsl #2
    3480:	d9010000 	stmdble	r1, {}	; <UNPREDICTABLE>
    3484:	0000000b 	andeq	r0, r0, fp
    3488:	3c000000 	stccc	0, cr0, [r0], {-0}
    348c:	0200000b 	andeq	r0, r0, #11
    3490:	00320601 	eorseq	r0, r2, r1, lsl #12
    3494:	01020000 	mrseq	r0, (UNDEF: 2)
    3498:	00003008 	andeq	r3, r0, r8
    349c:	05020200 	streq	r0, [r2, #-512]	; 0xfffffe00
    34a0:	0000010a 	andeq	r0, r0, sl, lsl #2
    34a4:	3e070202 	cdpcc	2, 0, cr0, cr7, cr2, {0}
    34a8:	02000000 	andeq	r0, r0, #0
    34ac:	01010504 	tsteq	r1, r4, lsl #10
    34b0:	04020000 	streq	r0, [r2], #-0
    34b4:	00007107 	andeq	r7, r0, r7, lsl #2
    34b8:	05080200 	streq	r0, [r8, #-512]	; 0xfffffe00
    34bc:	000000fc 	strdeq	r0, [r0], -ip
    34c0:	6c070802 	stcvs	8, cr0, [r7], {2}
    34c4:	03000000 	movweq	r0, #0
    34c8:	6e690504 	cdpvs	5, 6, cr0, cr9, cr4, {0}
    34cc:	04020074 	streq	r0, [r2], #-116	; 0xffffff8c
    34d0:	00007607 	andeq	r7, r0, r7, lsl #12
    34d4:	73730400 	cmnvc	r3, #0, 8
    34d8:	03010073 	movweq	r0, #4211	; 0x1073
    34dc:	00000055 	andeq	r0, r0, r5, asr r0
    34e0:	d8030501 	stmdale	r3, {r0, r8, sl}
    34e4:	0020005a 	eoreq	r0, r0, sl, asr r0

Disassembly of section .debug_abbrev:

00000000 <.debug_abbrev>:
   0:	25011101 	strcs	r1, [r1, #-257]	; 0xfffffeff
   4:	030b130e 	movweq	r1, #45838	; 0xb30e
   8:	110e1b0e 	tstne	lr, lr, lsl #22
   c:	10011201 	andne	r1, r1, r1, lsl #4
  10:	02000006 	andeq	r0, r0, #6
  14:	0b0b0024 	bleq	2c00ac <_etext+0x2bd9b3>
  18:	0e030b3e 	vmoveq.16	d3[0], r0
  1c:	24030000 	strcs	r0, [r3], #-0
  20:	3e0b0b00 	vmlacc.f64	d0, d11, d0
  24:	0008030b 	andeq	r0, r8, fp, lsl #6
  28:	002e0400 	eoreq	r0, lr, r0, lsl #8
  2c:	0b3a0e03 	bleq	e83840 <_etext+0xe81147>
  30:	0c270b3b 	stceq	11, cr0, [r7], #-236	; 0xffffff14
  34:	01120111 	tsteq	r2, r1, lsl r1
  38:	00000640 	andeq	r0, r0, r0, asr #12
  3c:	49010105 	stmdbmi	r1, {r0, r2, r8}
  40:	00130113 	andseq	r0, r3, r3, lsl r1
  44:	00210600 	eoreq	r0, r1, r0, lsl #12
  48:	0b2f1349 	bleq	bc4d74 <_etext+0xbc267b>
  4c:	0f070000 	svceq	0x00070000
  50:	490b0b00 	stmdbmi	fp, {r8, r9, fp}
  54:	08000013 	stmdaeq	r0, {r0, r1, r4}
  58:	0c270015 	stceq	0, cr0, [r7], #-84	; 0xffffffac
  5c:	34090000 	strcc	r0, [r9], #-0
  60:	3a0e0300 	bcc	380c68 <_etext+0x37e56f>
  64:	490b3b0b 	stmdbmi	fp, {r0, r1, r3, r8, r9, fp, ip, sp}
  68:	020c3f13 	andeq	r3, ip, #19, 30	; 0x4c
  6c:	0000000a 	andeq	r0, r0, sl
  70:	25011101 	strcs	r1, [r1, #-257]	; 0xfffffeff
  74:	030b130e 	movweq	r1, #45838	; 0xb30e
  78:	110e1b0e 	tstne	lr, lr, lsl #22
  7c:	10011201 	andne	r1, r1, r1, lsl #4
  80:	02000006 	andeq	r0, r0, #6
  84:	0b0b0024 	bleq	2c011c <_etext+0x2bda23>
  88:	0e030b3e 	vmoveq.16	d3[0], r0
  8c:	16030000 	strne	r0, [r3], -r0
  90:	3a0e0300 	bcc	380c98 <_etext+0x37e59f>
  94:	490b3b0b 	stmdbmi	fp, {r0, r1, r3, r8, r9, fp, ip, sp}
  98:	04000013 	streq	r0, [r0], #-19	; 0xffffffed
  9c:	0b0b0024 	bleq	2c0134 <_etext+0x2bda3b>
  a0:	08030b3e 	stmdaeq	r3, {r1, r2, r3, r4, r5, r8, r9, fp}
  a4:	13050000 	movwne	r0, #20480	; 0x5000
  a8:	0b0e0301 	bleq	380cb4 <_etext+0x37e5bb>
  ac:	3b0b3a0b 	blcc	2ce8e0 <_etext+0x2cc1e7>
  b0:	0013010b 	andseq	r0, r3, fp, lsl #2
  b4:	000d0600 	andeq	r0, sp, r0, lsl #12
  b8:	0b3a0e03 	bleq	e838cc <_etext+0xe811d3>
  bc:	13490b3b 	movtne	r0, #39739	; 0x9b3b
  c0:	00000a38 	andeq	r0, r0, r8, lsr sl
  c4:	0b000f07 	bleq	3ce8 <_etext+0x15ef>
  c8:	0013490b 	andseq	r4, r3, fp, lsl #18
  cc:	01150800 	tsteq	r5, r0, lsl #16
  d0:	13010c27 	movwne	r0, #7207	; 0x1c27
  d4:	05090000 	streq	r0, [r9, #-0]
  d8:	00134900 	andseq	r4, r3, r0, lsl #18
  dc:	000f0a00 	andeq	r0, pc, r0, lsl #20
  e0:	00000b0b 	andeq	r0, r0, fp, lsl #22
  e4:	0301040b 	movweq	r0, #5131	; 0x140b
  e8:	3a0b0b0e 	bcc	2c2d28 <_etext+0x2c062f>
  ec:	010b3b0b 	tsteq	fp, fp, lsl #22
  f0:	0c000013 	stceq	0, cr0, [r0], {19}
  f4:	0e030028 	cdpeq	0, 0, cr0, cr3, cr8, {1}
  f8:	00000d1c 	andeq	r0, r0, ip, lsl sp
  fc:	4901010d 	stmdbmi	r1, {r0, r2, r3, r8}
 100:	00130113 	andseq	r0, r3, r3, lsl r1
 104:	00210e00 	eoreq	r0, r1, r0, lsl #28
 108:	0b2f1349 	bleq	bc4e34 <_etext+0xbc273b>
 10c:	2e0f0000 	cdpcs	0, 0, cr0, cr15, cr0, {0}
 110:	3a0e0301 	bcc	380d1c <_etext+0x37e623>
 114:	270b3b0b 	strcs	r3, [fp, -fp, lsl #22]
 118:	1201110c 	andne	r1, r1, #12, 2
 11c:	01064001 	tsteq	r6, r1
 120:	10000013 	andne	r0, r0, r3, lsl r0
 124:	0e030034 	mcreq	0, 0, r0, cr3, cr4, {1}
 128:	0b3b0b3a 	bleq	ec2e18 <_etext+0xec071f>
 12c:	0a021349 	beq	84e58 <_etext+0x8275f>
 130:	2e110000 	cdpcs	0, 1, cr0, cr1, cr0, {0}
 134:	030c3f01 	movweq	r3, #52993	; 0xcf01
 138:	3b0b3a0e 	blcc	2ce978 <_etext+0x2cc27f>
 13c:	110c270b 	tstne	ip, fp, lsl #14
 140:	40011201 	andmi	r1, r1, r1, lsl #4
 144:	00130106 	andseq	r0, r3, r6, lsl #2
 148:	00051200 	andeq	r1, r5, r0, lsl #4
 14c:	0b3a0e03 	bleq	e83960 <_etext+0xe81267>
 150:	13490b3b 	movtne	r0, #39739	; 0x9b3b
 154:	00000a02 	andeq	r0, r0, r2, lsl #20
 158:	03003413 	movweq	r3, #1043	; 0x413
 15c:	3b0b3a08 	blcc	2ce984 <_etext+0x2cc28b>
 160:	0213490b 	andseq	r4, r3, #180224	; 0x2c000
 164:	1400000a 	strne	r0, [r0], #-10
 168:	0e030034 	mcreq	0, 0, r0, cr3, cr4, {1}
 16c:	0c341349 	ldceq	3, cr1, [r4], #-292	; 0xfffffedc
 170:	00000a02 	andeq	r0, r0, r2, lsl #20
 174:	49002615 	stmdbmi	r0, {r0, r2, r4, r9, sl, sp}
 178:	16000013 			; <UNDEFINED> instruction: 0x16000013
 17c:	0111010b 	tsteq	r1, fp, lsl #2
 180:	00000112 	andeq	r0, r0, r2, lsl r1
 184:	3f002e17 	svccc	0x00002e17
 188:	3a0e030c 	bcc	380dc0 <_etext+0x37e6c7>
 18c:	490b3b0b 	stmdbmi	fp, {r0, r1, r3, r8, r9, fp, ip, sp}
 190:	12011113 	andne	r1, r1, #-1073741820	; 0xc0000004
 194:	00064001 	andeq	r4, r6, r1
 198:	00341800 	eorseq	r1, r4, r0, lsl #16
 19c:	0b3a0e03 	bleq	e839b0 <_etext+0xe812b7>
 1a0:	13490b3b 	movtne	r0, #39739	; 0x9b3b
 1a4:	0c3c0c3f 	ldceq	12, cr0, [ip], #-252	; 0xffffff04
 1a8:	34190000 	ldrcc	r0, [r9], #-0
 1ac:	3a0e0300 	bcc	380db4 <_etext+0x37e6bb>
 1b0:	490b3b0b 	stmdbmi	fp, {r0, r1, r3, r8, r9, fp, ip, sp}
 1b4:	020c3f13 	andeq	r3, ip, #19, 30	; 0x4c
 1b8:	1a00000a 	bne	1e8 <_text+0x1e8>
 1bc:	13490021 	movtne	r0, #36897	; 0x9021
 1c0:	0000052f 	andeq	r0, r0, pc, lsr #10
 1c4:	01110100 	tsteq	r1, r0, lsl #2
 1c8:	0b130e25 	bleq	4c3a64 <_etext+0x4c136b>
 1cc:	0e1b0e03 	cdpeq	14, 1, cr0, cr11, cr3, {0}
 1d0:	01120111 	tsteq	r2, r1, lsl r1
 1d4:	00000610 	andeq	r0, r0, r0, lsl r6
 1d8:	0b002402 	bleq	91e8 <_etext+0x6aef>
 1dc:	030b3e0b 	movweq	r3, #48651	; 0xbe0b
 1e0:	0300000e 	movweq	r0, #14
 1e4:	0e030016 	mcreq	0, 0, r0, cr3, cr6, {0}
 1e8:	0b3b0b3a 	bleq	ec2ed8 <_etext+0xec07df>
 1ec:	00001349 	andeq	r1, r0, r9, asr #6
 1f0:	0b002404 	bleq	9208 <_etext+0x6b0f>
 1f4:	030b3e0b 	movweq	r3, #48651	; 0xbe0b
 1f8:	05000008 	streq	r0, [r0, #-8]
 1fc:	0e030113 	mcreq	1, 0, r0, cr3, cr3, {0}
 200:	0b3a0b0b 	bleq	e82e34 <_etext+0xe8073b>
 204:	13010b3b 	movwne	r0, #6971	; 0x1b3b
 208:	0d060000 	stceq	0, cr0, [r6, #-0]
 20c:	3a0e0300 	bcc	380e14 <_etext+0x37e71b>
 210:	490b3b0b 	stmdbmi	fp, {r0, r1, r3, r8, r9, fp, ip, sp}
 214:	000a3813 	andeq	r3, sl, r3, lsl r8
 218:	000d0700 	andeq	r0, sp, r0, lsl #14
 21c:	0b3a0803 	bleq	e82230 <_etext+0xe7fb37>
 220:	13490b3b 	movtne	r0, #39739	; 0x9b3b
 224:	00000a38 	andeq	r0, r0, r8, lsr sl
 228:	49003508 	stmdbmi	r0, {r3, r8, sl, ip, sp}
 22c:	09000013 	stmdbeq	r0, {r0, r1, r4}
 230:	0c3f012e 	ldfeqs	f0, [pc], #-184	; 180 <_text+0x180>
 234:	0b3a0e03 	bleq	e83a48 <_etext+0xe8134f>
 238:	0c270b3b 	stceq	11, cr0, [r7], #-236	; 0xffffff14
 23c:	01120111 	tsteq	r2, r1, lsl r1
 240:	13010640 	movwne	r0, #5696	; 0x1640
 244:	050a0000 	streq	r0, [sl, #-0]
 248:	3a080300 	bcc	200e50 <_etext+0x1fe757>
 24c:	490b3b0b 	stmdbmi	fp, {r0, r1, r3, r8, r9, fp, ip, sp}
 250:	000a0213 	andeq	r0, sl, r3, lsl r2
 254:	00340b00 	eorseq	r0, r4, r0, lsl #22
 258:	0b3a0e03 	bleq	e83a6c <_etext+0xe81373>
 25c:	13490b3b 	movtne	r0, #39739	; 0x9b3b
 260:	00000a02 	andeq	r0, r0, r2, lsl #20
 264:	0b000f0c 	bleq	3e9c <_etext+0x17a3>
 268:	0013490b 	andseq	r4, r3, fp, lsl #18
 26c:	002e0d00 	eoreq	r0, lr, r0, lsl #26
 270:	0e030c3f 	mcreq	12, 0, r0, cr3, cr15, {1}
 274:	0b3b0b3a 	bleq	ec2f64 <_etext+0xec086b>
 278:	01110c27 	tsteq	r1, r7, lsr #24
 27c:	06400112 			; <UNDEFINED> instruction: 0x06400112
 280:	01000000 	mrseq	r0, (UNDEF: 0)
 284:	0e250111 	mcreq	1, 1, r0, cr5, cr1, {0}
 288:	0e030b13 	vmoveq.32	d3[0], r0
 28c:	01110e1b 	tsteq	r1, fp, lsl lr
 290:	06100112 			; <UNDEFINED> instruction: 0x06100112
 294:	16020000 	strne	r0, [r2], -r0
 298:	3a0e0300 	bcc	380ea0 <_etext+0x37e7a7>
 29c:	490b3b0b 	stmdbmi	fp, {r0, r1, r3, r8, r9, fp, ip, sp}
 2a0:	03000013 	movweq	r0, #19
 2a4:	0e030113 	mcreq	1, 0, r0, cr3, cr3, {0}
 2a8:	0b3a0b0b 	bleq	e82edc <_etext+0xe807e3>
 2ac:	13010b3b 	movwne	r0, #6971	; 0x1b3b
 2b0:	0d040000 	stceq	0, cr0, [r4, #-0]
 2b4:	490e0300 	stmdbmi	lr, {r8, r9}
 2b8:	340a3813 	strcc	r3, [sl], #-2067	; 0xfffff7ed
 2bc:	0500000c 	streq	r0, [r0, #-12]
 2c0:	0b0b000f 	bleq	2c0304 <_etext+0x2bdc0b>
 2c4:	24060000 	strcs	r0, [r6], #-0
 2c8:	3e0b0b00 	vmlacc.f64	d0, d11, d0
 2cc:	000e030b 	andeq	r0, lr, fp, lsl #6
 2d0:	00240700 	eoreq	r0, r4, r0, lsl #14
 2d4:	0b3e0b0b 	bleq	f82f08 <_etext+0xf8080f>
 2d8:	00000803 	andeq	r0, r0, r3, lsl #16
 2dc:	3f012e08 	svccc	0x00012e08
 2e0:	3a0e030c 	bcc	380f18 <_etext+0x37e81f>
 2e4:	270b3b0b 	strcs	r3, [fp, -fp, lsl #22]
 2e8:	1113490c 	tstne	r3, ip, lsl #18
 2ec:	40011201 	andmi	r1, r1, r1, lsl #4
 2f0:	00130106 	andseq	r0, r3, r6, lsl #2
 2f4:	00050900 	andeq	r0, r5, r0, lsl #18
 2f8:	0b3a0803 	bleq	e8230c <_etext+0xe7fc13>
 2fc:	13490b3b 	movtne	r0, #39739	; 0x9b3b
 300:	00000a02 	andeq	r0, r0, r2, lsl #20
 304:	0b000f0a 	bleq	3f34 <_etext+0x183b>
 308:	0013490b 	andseq	r4, r3, fp, lsl #18
 30c:	00340b00 	eorseq	r0, r4, r0, lsl #22
 310:	0b3a0803 	bleq	e82324 <_etext+0xe7fc2b>
 314:	13490b3b 	movtne	r0, #39739	; 0x9b3b
 318:	00000a02 	andeq	r0, r0, r2, lsl #20
 31c:	0300050c 	movweq	r0, #1292	; 0x50c
 320:	3b0b3a0e 	blcc	2ceb60 <_etext+0x2cc467>
 324:	0213490b 	andseq	r4, r3, #180224	; 0x2c000
 328:	0d00000a 	stceq	0, cr0, [r0, #-40]	; 0xffffffd8
 32c:	0e030034 	mcreq	0, 0, r0, cr3, cr4, {1}
 330:	0b3b0b3a 	bleq	ec3020 <_etext+0xec0927>
 334:	0a021349 	beq	85060 <_etext+0x82967>
 338:	2e0e0000 	cdpcs	0, 0, cr0, cr14, cr0, {0}
 33c:	030c3f01 	movweq	r3, #52993	; 0xcf01
 340:	3b0b3a0e 	blcc	2ceb80 <_etext+0x2cc487>
 344:	110c270b 	tstne	ip, fp, lsl #14
 348:	40011201 	andmi	r1, r1, r1, lsl #4
 34c:	00130106 	andseq	r0, r3, r6, lsl #2
 350:	00180f00 	andseq	r0, r8, r0, lsl #30
 354:	26100000 	ldrcs	r0, [r0], -r0
 358:	00134900 	andseq	r4, r3, r0, lsl #18
 35c:	012e1100 			; <UNDEFINED> instruction: 0x012e1100
 360:	0e030c3f 	mcreq	12, 0, r0, cr3, cr15, {1}
 364:	053b0b3a 	ldreq	r0, [fp, #-2874]!	; 0xfffff4c6
 368:	13490c27 	movtne	r0, #39975	; 0x9c27
 36c:	01120111 	tsteq	r2, r1, lsl r1
 370:	13010640 	movwne	r0, #5696	; 0x1640
 374:	05120000 	ldreq	r0, [r2, #-0]
 378:	3a080300 	bcc	200f80 <_etext+0x1fe887>
 37c:	49053b0b 	stmdbmi	r5, {r0, r1, r3, r8, r9, fp, ip, sp}
 380:	000a0213 	andeq	r0, sl, r3, lsl r2
 384:	00341300 	eorseq	r1, r4, r0, lsl #6
 388:	0b3a0e03 	bleq	e83b9c <_etext+0xe814a3>
 38c:	1349053b 	movtne	r0, #38203	; 0x953b
 390:	00000a02 	andeq	r0, r0, r2, lsl #20
 394:	03003414 	movweq	r3, #1044	; 0x414
 398:	3b0b3a08 	blcc	2cebc0 <_etext+0x2cc4c7>
 39c:	02134905 	andseq	r4, r3, #81920	; 0x14000
 3a0:	1500000a 	strne	r0, [r0, #-10]
 3a4:	00000026 	andeq	r0, r0, r6, lsr #32
 3a8:	03000516 	movweq	r0, #1302	; 0x516
 3ac:	3b0b3a0e 	blcc	2cebec <_etext+0x2cc4f3>
 3b0:	02134905 	andseq	r4, r3, #81920	; 0x14000
 3b4:	1700000a 	strne	r0, [r0, -sl]
 3b8:	0e030034 	mcreq	0, 0, r0, cr3, cr4, {1}
 3bc:	0b3b0b3a 	bleq	ec30ac <_etext+0xec09b3>
 3c0:	0c3f1349 	ldceq	3, cr1, [pc], #-292	; 2a4 <clear_bss+0x18>
 3c4:	00000a02 	andeq	r0, r0, r2, lsl #20
 3c8:	49003518 	stmdbmi	r0, {r3, r4, r8, sl, ip, sp}
 3cc:	19000013 	stmdbne	r0, {r0, r1, r4}
 3d0:	13490101 	movtne	r0, #37121	; 0x9101
 3d4:	00001301 	andeq	r1, r0, r1, lsl #6
 3d8:	4900211a 	stmdbmi	r0, {r1, r3, r4, r8, sp}
 3dc:	000b2f13 	andeq	r2, fp, r3, lsl pc
 3e0:	11010000 	mrsne	r0, (UNDEF: 1)
 3e4:	11061000 	mrsne	r1, (UNDEF: 6)
 3e8:	03011201 	movweq	r1, #4609	; 0x1201
 3ec:	25081b08 	strcs	r1, [r8, #-2824]	; 0xfffff4f8
 3f0:	00051308 	andeq	r1, r5, r8, lsl #6
 3f4:	11010000 	mrsne	r0, (UNDEF: 1)
 3f8:	130e2501 	movwne	r2, #58625	; 0xe501
 3fc:	1b0e030b 	blne	381030 <_etext+0x37e937>
 400:	1201110e 	andne	r1, r1, #-2147483645	; 0x80000003
 404:	00061001 	andeq	r1, r6, r1
 408:	00240200 	eoreq	r0, r4, r0, lsl #4
 40c:	0b3e0b0b 	bleq	f83040 <_etext+0xf80947>
 410:	00000e03 	andeq	r0, r0, r3, lsl #28
 414:	03001603 	movweq	r1, #1539	; 0x603
 418:	3b0b3a0e 	blcc	2cec58 <_etext+0x2cc55f>
 41c:	0013490b 	andseq	r4, r3, fp, lsl #18
 420:	00240400 	eoreq	r0, r4, r0, lsl #8
 424:	0b3e0b0b 	bleq	f83058 <_etext+0xf8095f>
 428:	00000803 	andeq	r0, r0, r3, lsl #16
 42c:	03011305 	movweq	r1, #4869	; 0x1305
 430:	3a0b0b0e 	bcc	2c3070 <_etext+0x2c0977>
 434:	010b3b0b 	tsteq	fp, fp, lsl #22
 438:	06000013 			; <UNDEFINED> instruction: 0x06000013
 43c:	0e03000d 	cdpeq	0, 0, cr0, cr3, cr13, {0}
 440:	0b3b0b3a 	bleq	ec3130 <_etext+0xec0a37>
 444:	0a381349 	beq	e05170 <_etext+0xe02a77>
 448:	0f070000 	svceq	0x00070000
 44c:	490b0b00 	stmdbmi	fp, {r8, r9, fp}
 450:	08000013 	stmdaeq	r0, {r0, r1, r4}
 454:	0c270115 	stfeqs	f0, [r7], #-84	; 0xffffffac
 458:	00001301 	andeq	r1, r0, r1, lsl #6
 45c:	49000509 	stmdbmi	r0, {r0, r3, r8, sl}
 460:	0a000013 	beq	4b4 <init_systick>
 464:	0b0b000f 	bleq	2c04a8 <_etext+0x2bddaf>
 468:	040b0000 	streq	r0, [fp], #-0
 46c:	0b0e0301 	bleq	381078 <_etext+0x37e97f>
 470:	3b0b3a0b 	blcc	2ceca4 <_etext+0x2cc5ab>
 474:	0013010b 	andseq	r0, r3, fp, lsl #2
 478:	00280c00 	eoreq	r0, r8, r0, lsl #24
 47c:	0d1c0e03 	ldceq	14, cr0, [ip, #-12]
 480:	2e0d0000 	cdpcs	0, 0, cr0, cr13, cr0, {0}
 484:	3a0e0301 	bcc	381090 <_etext+0x37e997>
 488:	270b3b0b 	strcs	r3, [fp, -fp, lsl #22]
 48c:	1201110c 	andne	r1, r1, #12, 2
 490:	01064001 	tsteq	r6, r1
 494:	0e000013 	mcreq	0, 0, r0, cr0, cr3, {0}
 498:	0e030005 	cdpeq	0, 0, cr0, cr3, cr5, {0}
 49c:	0b3b0b3a 	bleq	ec318c <_etext+0xec0a93>
 4a0:	0a021349 	beq	851cc <_etext+0x82ad3>
 4a4:	2e0f0000 	cdpcs	0, 0, cr0, cr15, cr0, {0}
 4a8:	030c3f01 	movweq	r3, #52993	; 0xcf01
 4ac:	3b0b3a0e 	blcc	2cecec <_etext+0x2cc5f3>
 4b0:	110c270b 	tstne	ip, fp, lsl #14
 4b4:	40011201 	andmi	r1, r1, r1, lsl #4
 4b8:	00130106 	andseq	r0, r3, r6, lsl #2
 4bc:	00341000 	eorseq	r1, r4, r0
 4c0:	13490e03 	movtne	r0, #40451	; 0x9e03
 4c4:	0a020c34 	beq	8359c <_etext+0x80ea3>
 4c8:	01110000 	tsteq	r1, r0
 4cc:	01134901 	tsteq	r3, r1, lsl #18
 4d0:	12000013 	andne	r0, r0, #19
 4d4:	13490021 	movtne	r0, #36897	; 0x9021
 4d8:	00000b2f 	andeq	r0, r0, pc, lsr #22
 4dc:	49002613 	stmdbmi	r0, {r0, r1, r4, r9, sl, sp}
 4e0:	14000013 	strne	r0, [r0], #-19	; 0xffffffed
 4e4:	0e030034 	mcreq	0, 0, r0, cr3, cr4, {1}
 4e8:	0b3b0b3a 	bleq	ec31d8 <_etext+0xec0adf>
 4ec:	0a021349 	beq	85218 <_etext+0x82b1f>
 4f0:	0a150000 	beq	5404f8 <_etext+0x53ddff>
 4f4:	3a0e0300 	bcc	3810fc <_etext+0x37ea03>
 4f8:	110b3b0b 	tstne	fp, fp, lsl #22
 4fc:	16000001 	strne	r0, [r0], -r1
 500:	0c3f002e 	ldceq	0, cr0, [pc], #-184	; 450 <main+0x64>
 504:	0b3a0e03 	bleq	e83d18 <_etext+0xe8161f>
 508:	0c270b3b 	stceq	11, cr0, [r7], #-236	; 0xffffff14
 50c:	01120111 	tsteq	r2, r1, lsl r1
 510:	00000640 	andeq	r0, r0, r0, asr #12
 514:	03003417 	movweq	r3, #1047	; 0x417
 518:	3b0b3a08 	blcc	2ced40 <_etext+0x2cc647>
 51c:	0213490b 	andseq	r4, r3, #180224	; 0x2c000
 520:	1800000a 	stmdane	r0, {r1, r3}
 524:	0c3f012e 	ldfeqs	f0, [pc], #-184	; 474 <main+0x88>
 528:	0b3a0e03 	bleq	e83d3c <_etext+0xe81643>
 52c:	0c270b3b 	stceq	11, cr0, [r7], #-236	; 0xffffff14
 530:	01111349 	tsteq	r1, r9, asr #6
 534:	06400112 			; <UNDEFINED> instruction: 0x06400112
 538:	00001301 	andeq	r1, r0, r1, lsl #6
 53c:	3f012e19 	svccc	0x00012e19
 540:	3a0e030c 	bcc	381178 <_etext+0x37ea7f>
 544:	27053b0b 	strcs	r3, [r5, -fp, lsl #22]
 548:	1201110c 	andne	r1, r1, #12, 2
 54c:	01064001 	tsteq	r6, r1
 550:	1a000013 	bne	5a4 <is_asc+0x18>
 554:	0e030005 	cdpeq	0, 0, cr0, cr3, cr5, {0}
 558:	053b0b3a 	ldreq	r0, [fp, #-2874]!	; 0xfffff4c6
 55c:	0a021349 	beq	85288 <_etext+0x82b8f>
 560:	341b0000 	ldrcc	r0, [fp], #-0
 564:	3a0e0300 	bcc	38116c <_etext+0x37ea73>
 568:	49053b0b 	stmdbmi	r5, {r0, r1, r3, r8, r9, fp, ip, sp}
 56c:	000a0213 	andeq	r0, sl, r3, lsl r2
 570:	012e1c00 			; <UNDEFINED> instruction: 0x012e1c00
 574:	0b3a0e03 	bleq	e83d88 <_etext+0xe8168f>
 578:	0c27053b 	cfstr32eq	mvfx0, [r7], #-236	; 0xffffff14
 57c:	01120111 	tsteq	r2, r1, lsl r1
 580:	13010640 	movwne	r0, #5696	; 0x1640
 584:	2e1d0000 	cdpcs	0, 1, cr0, cr13, cr0, {0}
 588:	030c3f01 	movweq	r3, #52993	; 0xcf01
 58c:	3b0b3a0e 	blcc	2cedcc <_etext+0x2cc6d3>
 590:	490c2705 	stmdbmi	ip, {r0, r2, r8, r9, sl, sp}
 594:	12011113 	andne	r1, r1, #-1073741820	; 0xc0000004
 598:	01064001 	tsteq	r6, r1
 59c:	1e000013 	mcrne	0, 0, r0, cr0, cr3, {0}
 5a0:	13490021 	movtne	r0, #36897	; 0x9021
 5a4:	0000052f 	andeq	r0, r0, pc, lsr #10
 5a8:	0300341f 	movweq	r3, #1055	; 0x41f
 5ac:	3b0b3a0e 	blcc	2cedec <_etext+0x2cc6f3>
 5b0:	3f13490b 	svccc	0x0013490b
 5b4:	000a020c 	andeq	r0, sl, ip, lsl #4
 5b8:	11010000 	mrsne	r0, (UNDEF: 1)
 5bc:	130e2501 	movwne	r2, #58625	; 0xe501
 5c0:	1b0e030b 	blne	3811f4 <_etext+0x37eafb>
 5c4:	1201110e 	andne	r1, r1, #-2147483645	; 0x80000003
 5c8:	00061001 	andeq	r1, r6, r1
 5cc:	00240200 	eoreq	r0, r4, r0, lsl #4
 5d0:	0b3e0b0b 	bleq	f83204 <_etext+0xf80b0b>
 5d4:	00000e03 	andeq	r0, r0, r3, lsl #28
 5d8:	03001603 	movweq	r1, #1539	; 0x603
 5dc:	3b0b3a0e 	blcc	2cee1c <_etext+0x2cc723>
 5e0:	0013490b 	andseq	r4, r3, fp, lsl #18
 5e4:	00240400 	eoreq	r0, r4, r0, lsl #8
 5e8:	0b3e0b0b 	bleq	f8321c <_etext+0xf80b23>
 5ec:	00000803 	andeq	r0, r0, r3, lsl #16
 5f0:	03011305 	movweq	r1, #4869	; 0x1305
 5f4:	3a0b0b0e 	bcc	2c3234 <_etext+0x2c0b3b>
 5f8:	010b3b0b 	tsteq	fp, fp, lsl #22
 5fc:	06000013 			; <UNDEFINED> instruction: 0x06000013
 600:	0e03000d 	cdpeq	0, 0, cr0, cr3, cr13, {0}
 604:	0b3b0b3a 	bleq	ec32f4 <_etext+0xec0bfb>
 608:	0a381349 	beq	e05334 <_etext+0xe02c3b>
 60c:	0f070000 	svceq	0x00070000
 610:	490b0b00 	stmdbmi	fp, {r8, r9, fp}
 614:	08000013 	stmdaeq	r0, {r0, r1, r4}
 618:	0c3f012e 	ldfeqs	f0, [pc], #-184	; 568 <is_dec_asc+0x1c>
 61c:	0b3a0e03 	bleq	e83e30 <_etext+0xe81737>
 620:	0c270b3b 	stceq	11, cr0, [r7], #-236	; 0xffffff14
 624:	01120111 	tsteq	r2, r1, lsl r1
 628:	13010640 	movwne	r0, #5696	; 0x1640
 62c:	05090000 	streq	r0, [r9, #-0]
 630:	3a0e0300 	bcc	381238 <_etext+0x37eb3f>
 634:	490b3b0b 	stmdbmi	fp, {r0, r1, r3, r8, r9, fp, ip, sp}
 638:	000a0213 	andeq	r0, sl, r3, lsl r2
 63c:	002e0a00 	eoreq	r0, lr, r0, lsl #20
 640:	0e030c3f 	mcreq	12, 0, r0, cr3, cr15, {1}
 644:	0b3b0b3a 	bleq	ec3334 <_etext+0xec0c3b>
 648:	13490c27 	movtne	r0, #39975	; 0x9c27
 64c:	01120111 	tsteq	r2, r1, lsl r1
 650:	00000640 	andeq	r0, r0, r0, asr #12
 654:	0300050b 	movweq	r0, #1291	; 0x50b
 658:	3b0b3a08 	blcc	2cee80 <_etext+0x2cc787>
 65c:	0213490b 	andseq	r4, r3, #180224	; 0x2c000
 660:	0c00000a 	stceq	0, cr0, [r0], {10}
 664:	0c3f012e 	ldfeqs	f0, [pc], #-184	; 5b4 <is_asc+0x28>
 668:	0b3a0e03 	bleq	e83e7c <_etext+0xe81783>
 66c:	0c270b3b 	stceq	11, cr0, [r7], #-236	; 0xffffff14
 670:	01111349 	tsteq	r1, r9, asr #6
 674:	06400112 			; <UNDEFINED> instruction: 0x06400112
 678:	00001301 	andeq	r1, r0, r1, lsl #6
 67c:	0300340d 	movweq	r3, #1037	; 0x40d
 680:	3b0b3a08 	blcc	2ceea8 <_etext+0x2cc7af>
 684:	0213490b 	andseq	r4, r3, #180224	; 0x2c000
 688:	0e00000a 	cdpeq	0, 0, cr0, cr0, cr10, {0}
 68c:	0e030034 	mcreq	0, 0, r0, cr3, cr4, {1}
 690:	0b3b0b3a 	bleq	ec3380 <_etext+0xec0c87>
 694:	0a021349 	beq	853c0 <_etext+0x82cc7>
 698:	010f0000 	mrseq	r0, CPSR
 69c:	01134901 	tsteq	r3, r1, lsl #18
 6a0:	10000013 	andne	r0, r0, r3, lsl r0
 6a4:	13490021 	movtne	r0, #36897	; 0x9021
 6a8:	00000b2f 	andeq	r0, r0, pc, lsr #22
 6ac:	49002611 	stmdbmi	r0, {r0, r4, r9, sl, sp}
 6b0:	12000013 	andne	r0, r0, #19
 6b4:	0e03000a 	cdpeq	0, 0, cr0, cr3, cr10, {0}
 6b8:	0b3b0b3a 	bleq	ec33a8 <_etext+0xec0caf>
 6bc:	00000111 	andeq	r0, r0, r1, lsl r1
 6c0:	3f012e13 	svccc	0x00012e13
 6c4:	3a0e030c 	bcc	3812fc <_etext+0x37ec03>
 6c8:	270b3b0b 	strcs	r3, [fp, -fp, lsl #22]
 6cc:	1201110c 	andne	r1, r1, #12, 2
 6d0:	00064001 	andeq	r4, r6, r1
 6d4:	11010000 	mrsne	r0, (UNDEF: 1)
 6d8:	130e2501 	movwne	r2, #58625	; 0xe501
 6dc:	1b0e030b 	blne	381310 <_etext+0x37ec17>
 6e0:	1201110e 	andne	r1, r1, #-2147483645	; 0x80000003
 6e4:	00061001 	andeq	r1, r6, r1
 6e8:	00240200 	eoreq	r0, r4, r0, lsl #4
 6ec:	0b3e0b0b 	bleq	f83320 <_etext+0xf80c27>
 6f0:	00000e03 	andeq	r0, r0, r3, lsl #28
 6f4:	03001603 	movweq	r1, #1539	; 0x603
 6f8:	3b0b3a0e 	blcc	2cef38 <_etext+0x2cc83f>
 6fc:	0013490b 	andseq	r4, r3, fp, lsl #18
 700:	00240400 	eoreq	r0, r4, r0, lsl #8
 704:	0b3e0b0b 	bleq	f83338 <_etext+0xf80c3f>
 708:	00000803 	andeq	r0, r0, r3, lsl #16
 70c:	03011305 	movweq	r1, #4869	; 0x1305
 710:	3a0b0b0e 	bcc	2c3350 <_etext+0x2c0c57>
 714:	010b3b0b 	tsteq	fp, fp, lsl #22
 718:	06000013 			; <UNDEFINED> instruction: 0x06000013
 71c:	0e03000d 	cdpeq	0, 0, cr0, cr3, cr13, {0}
 720:	0b3b0b3a 	bleq	ec3410 <_etext+0xec0d17>
 724:	0a381349 	beq	e05450 <_etext+0xe02d57>
 728:	0f070000 	svceq	0x00070000
 72c:	490b0b00 	stmdbmi	fp, {r8, r9, fp}
 730:	08000013 	stmdaeq	r0, {r0, r1, r4}
 734:	0c270115 	stfeqs	f0, [r7], #-84	; 0xffffffac
 738:	00001301 	andeq	r1, r0, r1, lsl #6
 73c:	49000509 	stmdbmi	r0, {r0, r3, r8, sl}
 740:	0a000013 	beq	794 <printf_dec+0x3c>
 744:	0b0b000f 	bleq	2c0788 <_etext+0x2be08f>
 748:	040b0000 	streq	r0, [fp], #-0
 74c:	0b0e0301 	bleq	381358 <_etext+0x37ec5f>
 750:	3b0b3a0b 	blcc	2cef84 <_etext+0x2cc88b>
 754:	0013010b 	andseq	r0, r3, fp, lsl #2
 758:	00280c00 	eoreq	r0, r8, r0, lsl #24
 75c:	0d1c0e03 	ldceq	14, cr0, [ip, #-12]
 760:	2e0d0000 	cdpcs	0, 0, cr0, cr13, cr0, {0}
 764:	030c3f01 	movweq	r3, #52993	; 0xcf01
 768:	3b0b3a0e 	blcc	2cefa8 <_etext+0x2cc8af>
 76c:	110c270b 	tstne	ip, fp, lsl #14
 770:	40011201 	andmi	r1, r1, r1, lsl #4
 774:	00130106 	andseq	r0, r3, r6, lsl #2
 778:	00050e00 	andeq	r0, r5, r0, lsl #28
 77c:	0b3a0e03 	bleq	e83f90 <_etext+0xe81897>
 780:	13490b3b 	movtne	r0, #39739	; 0x9b3b
 784:	00000a02 	andeq	r0, r0, r2, lsl #20
 788:	0300050f 	movweq	r0, #1295	; 0x50f
 78c:	3b0b3a08 	blcc	2cefb4 <_etext+0x2cc8bb>
 790:	0213490b 	andseq	r4, r3, #180224	; 0x2c000
 794:	1000000a 	andne	r0, r0, sl
 798:	0e030034 	mcreq	0, 0, r0, cr3, cr4, {1}
 79c:	0b3b0b3a 	bleq	ec348c <_etext+0xec0d93>
 7a0:	0a021349 	beq	854cc <_etext+0x82dd3>
 7a4:	2e110000 	cdpcs	0, 1, cr0, cr1, cr0, {0}
 7a8:	030c3f01 	movweq	r3, #52993	; 0xcf01
 7ac:	3b0b3a0e 	blcc	2cefec <_etext+0x2cc8f3>
 7b0:	490c270b 	stmdbmi	ip, {r0, r1, r3, r8, r9, sl, sp}
 7b4:	12011113 	andne	r1, r1, #-1073741820	; 0xc0000004
 7b8:	01064001 	tsteq	r6, r1
 7bc:	12000013 	andne	r0, r0, #19
 7c0:	0e030034 	mcreq	0, 0, r0, cr3, cr4, {1}
 7c4:	0c341349 	ldceq	3, cr1, [r4], #-292	; 0xfffffedc
 7c8:	00000a02 	andeq	r0, r0, r2, lsl #20
 7cc:	11010b13 	tstne	r1, r3, lsl fp
 7d0:	00011201 	andeq	r1, r1, r1, lsl #4
 7d4:	01011400 	tsteq	r1, r0, lsl #8
 7d8:	13011349 	movwne	r1, #4937	; 0x1349
 7dc:	21150000 	tstcs	r5, r0
 7e0:	2f134900 	svccs	0x00134900
 7e4:	1600000b 	strne	r0, [r0], -fp
 7e8:	13490026 	movtne	r0, #36902	; 0x9026
 7ec:	2e170000 	cdpcs	0, 1, cr0, cr7, cr0, {0}
 7f0:	030c3f01 	movweq	r3, #52993	; 0xcf01
 7f4:	3b0b3a0e 	blcc	2cf034 <_etext+0x2cc93b>
 7f8:	490c270b 	stmdbmi	ip, {r0, r1, r3, r8, r9, sl, sp}
 7fc:	12011113 	andne	r1, r1, #-1073741820	; 0xc0000004
 800:	00064001 	andeq	r4, r6, r1
 804:	11010000 	mrsne	r0, (UNDEF: 1)
 808:	130e2501 	movwne	r2, #58625	; 0xe501
 80c:	1b0e030b 	blne	381440 <_etext+0x37ed47>
 810:	1201110e 	andne	r1, r1, #-2147483645	; 0x80000003
 814:	00061001 	andeq	r1, r6, r1
 818:	00240200 	eoreq	r0, r4, r0, lsl #4
 81c:	0b3e0b0b 	bleq	f83450 <_etext+0xf80d57>
 820:	00000e03 	andeq	r0, r0, r3, lsl #28
 824:	03001603 	movweq	r1, #1539	; 0x603
 828:	3b0b3a0e 	blcc	2cf068 <_etext+0x2cc96f>
 82c:	0013490b 	andseq	r4, r3, fp, lsl #18
 830:	00240400 	eoreq	r0, r4, r0, lsl #8
 834:	0b3e0b0b 	bleq	f83468 <_etext+0xf80d6f>
 838:	00000803 	andeq	r0, r0, r3, lsl #16
 83c:	03011305 	movweq	r1, #4869	; 0x1305
 840:	3a0b0b0e 	bcc	2c3480 <_etext+0x2c0d87>
 844:	010b3b0b 	tsteq	fp, fp, lsl #22
 848:	06000013 			; <UNDEFINED> instruction: 0x06000013
 84c:	0e03000d 	cdpeq	0, 0, cr0, cr3, cr13, {0}
 850:	0b3b0b3a 	bleq	ec3540 <_etext+0xec0e47>
 854:	0a381349 	beq	e05580 <_etext+0xe02e87>
 858:	0f070000 	svceq	0x00070000
 85c:	490b0b00 	stmdbmi	fp, {r8, r9, fp}
 860:	08000013 	stmdaeq	r0, {r0, r1, r4}
 864:	0c270115 	stfeqs	f0, [r7], #-84	; 0xffffffac
 868:	00001301 	andeq	r1, r0, r1, lsl #6
 86c:	49000509 	stmdbmi	r0, {r0, r3, r8, sl}
 870:	0a000013 	beq	8c4 <printf_dec+0x16c>
 874:	0b0b000f 	bleq	2c08b8 <_etext+0x2be1bf>
 878:	040b0000 	streq	r0, [fp], #-0
 87c:	0b0e0301 	bleq	381488 <_etext+0x37ed8f>
 880:	3b0b3a0b 	blcc	2cf0b4 <_etext+0x2cc9bb>
 884:	0013010b 	andseq	r0, r3, fp, lsl #2
 888:	00280c00 	eoreq	r0, r8, r0, lsl #24
 88c:	0d1c0e03 	ldceq	14, cr0, [ip, #-12]
 890:	2e0d0000 	cdpcs	0, 0, cr0, cr13, cr0, {0}
 894:	030c3f01 	movweq	r3, #52993	; 0xcf01
 898:	3b0b3a0e 	blcc	2cf0d8 <_etext+0x2cc9df>
 89c:	110c270b 	tstne	ip, fp, lsl #14
 8a0:	40011201 	andmi	r1, r1, r1, lsl #4
 8a4:	00130106 	andseq	r0, r3, r6, lsl #2
 8a8:	00050e00 	andeq	r0, r5, r0, lsl #28
 8ac:	0b3a0803 	bleq	e828c0 <_etext+0xe801c7>
 8b0:	13490b3b 	movtne	r0, #39739	; 0x9b3b
 8b4:	00000a02 	andeq	r0, r0, r2, lsl #20
 8b8:	0300050f 	movweq	r0, #1295	; 0x50f
 8bc:	3b0b3a0e 	blcc	2cf0fc <_etext+0x2cca03>
 8c0:	0213490b 	andseq	r4, r3, #180224	; 0x2c000
 8c4:	1000000a 	andne	r0, r0, sl
 8c8:	0c3f012e 	ldfeqs	f0, [pc], #-184	; 818 <printf_dec+0xc0>
 8cc:	0b3a0e03 	bleq	e840e0 <_etext+0xe819e7>
 8d0:	0c270b3b 	stceq	11, cr0, [r7], #-236	; 0xffffff14
 8d4:	01111349 	tsteq	r1, r9, asr #6
 8d8:	06400112 			; <UNDEFINED> instruction: 0x06400112
 8dc:	00001301 	andeq	r1, r0, r1, lsl #6
 8e0:	03003411 	movweq	r3, #1041	; 0x411
 8e4:	3b0b3a0e 	blcc	2cf124 <_etext+0x2cca2b>
 8e8:	0213490b 	andseq	r4, r3, #180224	; 0x2c000
 8ec:	1200000a 	andne	r0, r0, #10
 8f0:	0111010b 	tsteq	r1, fp, lsl #2
 8f4:	00000112 	andeq	r0, r0, r2, lsl r1
 8f8:	03003413 	movweq	r3, #1043	; 0x413
 8fc:	3b0b3a0e 	blcc	2cf13c <_etext+0x2cca43>
 900:	3f13490b 	svccc	0x0013490b
 904:	000c3c0c 	andeq	r3, ip, ip, lsl #24
 908:	11010000 	mrsne	r0, (UNDEF: 1)
 90c:	130e2501 	movwne	r2, #58625	; 0xe501
 910:	1b0e030b 	blne	381544 <_etext+0x37ee4b>
 914:	1201110e 	andne	r1, r1, #-2147483645	; 0x80000003
 918:	00061001 	andeq	r1, r6, r1
 91c:	00240200 	eoreq	r0, r4, r0, lsl #4
 920:	0b3e0b0b 	bleq	f83554 <_etext+0xf80e5b>
 924:	00000e03 	andeq	r0, r0, r3, lsl #28
 928:	03001603 	movweq	r1, #1539	; 0x603
 92c:	3b0b3a0e 	blcc	2cf16c <_etext+0x2cca73>
 930:	0013490b 	andseq	r4, r3, fp, lsl #18
 934:	00240400 	eoreq	r0, r4, r0, lsl #8
 938:	0b3e0b0b 	bleq	f8356c <_etext+0xf80e73>
 93c:	00000803 	andeq	r0, r0, r3, lsl #16
 940:	03011305 	movweq	r1, #4869	; 0x1305
 944:	3a0b0b0e 	bcc	2c3584 <_etext+0x2c0e8b>
 948:	010b3b0b 	tsteq	fp, fp, lsl #22
 94c:	06000013 			; <UNDEFINED> instruction: 0x06000013
 950:	0e03000d 	cdpeq	0, 0, cr0, cr3, cr13, {0}
 954:	0b3b0b3a 	bleq	ec3644 <_etext+0xec0f4b>
 958:	0a381349 	beq	e05684 <_etext+0xe02f8b>
 95c:	0f070000 	svceq	0x00070000
 960:	490b0b00 	stmdbmi	fp, {r8, r9, fp}
 964:	08000013 	stmdaeq	r0, {r0, r1, r4}
 968:	0c270115 	stfeqs	f0, [r7], #-84	; 0xffffffac
 96c:	00001301 	andeq	r1, r0, r1, lsl #6
 970:	49000509 	stmdbmi	r0, {r0, r3, r8, sl}
 974:	0a000013 	beq	9c8 <printf_dec+0x270>
 978:	0b0b000f 	bleq	2c09bc <_etext+0x2be2c3>
 97c:	040b0000 	streq	r0, [fp], #-0
 980:	0b0e0301 	bleq	38158c <_etext+0x37ee93>
 984:	3b0b3a0b 	blcc	2cf1b8 <_etext+0x2ccabf>
 988:	0013010b 	andseq	r0, r3, fp, lsl #2
 98c:	00280c00 	eoreq	r0, r8, r0, lsl #24
 990:	0d1c0e03 	ldceq	14, cr0, [ip, #-12]
 994:	2e0d0000 	cdpcs	0, 0, cr0, cr13, cr0, {0}
 998:	030c3f01 	movweq	r3, #52993	; 0xcf01
 99c:	3b0b3a0e 	blcc	2cf1dc <_etext+0x2ccae3>
 9a0:	110c270b 	tstne	ip, fp, lsl #14
 9a4:	40011201 	andmi	r1, r1, r1, lsl #4
 9a8:	00130106 	andseq	r0, r3, r6, lsl #2
 9ac:	00050e00 	andeq	r0, r5, r0, lsl #28
 9b0:	0b3a0e03 	bleq	e841c4 <_etext+0xe81acb>
 9b4:	13490b3b 	movtne	r0, #39739	; 0x9b3b
 9b8:	00000a02 	andeq	r0, r0, r2, lsl #20
 9bc:	3f012e0f 	svccc	0x00012e0f
 9c0:	3a0e030c 	bcc	3815f8 <_etext+0x37eeff>
 9c4:	270b3b0b 	strcs	r3, [fp, -fp, lsl #22]
 9c8:	1113490c 	tstne	r3, ip, lsl #18
 9cc:	40011201 	andmi	r1, r1, r1, lsl #4
 9d0:	00130106 	andseq	r0, r3, r6, lsl #2
 9d4:	00051000 	andeq	r1, r5, r0
 9d8:	0b3a0803 	bleq	e829ec <_etext+0xe802f3>
 9dc:	13490b3b 	movtne	r0, #39739	; 0x9b3b
 9e0:	00000a02 	andeq	r0, r0, r2, lsl #20
 9e4:	03003411 	movweq	r3, #1041	; 0x411
 9e8:	3b0b3a0e 	blcc	2cf228 <_etext+0x2ccb2f>
 9ec:	0213490b 	andseq	r4, r3, #180224	; 0x2c000
 9f0:	1200000a 	andne	r0, r0, #10
 9f4:	0e030034 	mcreq	0, 0, r0, cr3, cr4, {1}
 9f8:	0b3b0b3a 	bleq	ec36e8 <_etext+0xec0fef>
 9fc:	0c3f1349 	ldceq	3, cr1, [pc], #-292	; 8e0 <printf_dec+0x188>
 a00:	00000c3c 	andeq	r0, r0, ip, lsr ip
 a04:	01110100 	tsteq	r1, r0, lsl #2
 a08:	0b130e25 	bleq	4c42a4 <_etext+0x4c1bab>
 a0c:	0e1b0e03 	cdpeq	14, 1, cr0, cr11, cr3, {0}
 a10:	01120111 	tsteq	r2, r1, lsl r1
 a14:	00000610 	andeq	r0, r0, r0, lsl r6
 a18:	0b002402 	bleq	9a28 <_etext+0x732f>
 a1c:	030b3e0b 	movweq	r3, #48651	; 0xbe0b
 a20:	0300000e 	movweq	r0, #14
 a24:	0e030016 	mcreq	0, 0, r0, cr3, cr6, {0}
 a28:	0b3b0b3a 	bleq	ec3718 <_etext+0xec101f>
 a2c:	00001349 	andeq	r1, r0, r9, asr #6
 a30:	0b002404 	bleq	9a48 <_etext+0x734f>
 a34:	030b3e0b 	movweq	r3, #48651	; 0xbe0b
 a38:	05000008 	streq	r0, [r0, #-8]
 a3c:	0e030113 	mcreq	1, 0, r0, cr3, cr3, {0}
 a40:	0b3a0b0b 	bleq	e83674 <_etext+0xe80f7b>
 a44:	13010b3b 	movwne	r0, #6971	; 0x1b3b
 a48:	0d060000 	stceq	0, cr0, [r6, #-0]
 a4c:	3a0e0300 	bcc	381654 <_etext+0x37ef5b>
 a50:	490b3b0b 	stmdbmi	fp, {r0, r1, r3, r8, r9, fp, ip, sp}
 a54:	000a3813 	andeq	r3, sl, r3, lsl r8
 a58:	000f0700 	andeq	r0, pc, r0, lsl #14
 a5c:	13490b0b 	movtne	r0, #39691	; 0x9b0b
 a60:	15080000 	strne	r0, [r8, #-0]
 a64:	010c2701 	tsteq	ip, r1, lsl #14
 a68:	09000013 	stmdbeq	r0, {r0, r1, r4}
 a6c:	13490005 	movtne	r0, #36869	; 0x9005
 a70:	0f0a0000 	svceq	0x000a0000
 a74:	000b0b00 	andeq	r0, fp, r0, lsl #22
 a78:	01040b00 	tsteq	r4, r0, lsl #22
 a7c:	0b0b0e03 	bleq	2c4290 <_etext+0x2c1b97>
 a80:	0b3b0b3a 	bleq	ec3770 <_etext+0xec1077>
 a84:	00001301 	andeq	r1, r0, r1, lsl #6
 a88:	0300280c 	movweq	r2, #2060	; 0x80c
 a8c:	000d1c0e 	andeq	r1, sp, lr, lsl #24
 a90:	012e0d00 			; <UNDEFINED> instruction: 0x012e0d00
 a94:	0e030c3f 	mcreq	12, 0, r0, cr3, cr15, {1}
 a98:	0b3b0b3a 	bleq	ec3788 <_etext+0xec108f>
 a9c:	01110c27 	tsteq	r1, r7, lsr #24
 aa0:	06400112 			; <UNDEFINED> instruction: 0x06400112
 aa4:	00001301 	andeq	r1, r0, r1, lsl #6
 aa8:	0300050e 	movweq	r0, #1294	; 0x50e
 aac:	3b0b3a0e 	blcc	2cf2ec <_etext+0x2ccbf3>
 ab0:	0213490b 	andseq	r4, r3, #180224	; 0x2c000
 ab4:	0f00000a 	svceq	0x0000000a
 ab8:	0e030034 	mcreq	0, 0, r0, cr3, cr4, {1}
 abc:	0b3b0b3a 	bleq	ec37ac <_etext+0xec10b3>
 ac0:	0a021349 	beq	857ec <_etext+0x830f3>
 ac4:	0a100000 	beq	400acc <_etext+0x3fe3d3>
 ac8:	3a0e0300 	bcc	3816d0 <_etext+0x37efd7>
 acc:	110b3b0b 	tstne	fp, fp, lsl #22
 ad0:	11000001 	tstne	r0, r1
 ad4:	0c3f012e 	ldfeqs	f0, [pc], #-184	; a24 <printk+0x48>
 ad8:	0b3a0e03 	bleq	e842ec <_etext+0xe81bf3>
 adc:	0c270b3b 	stceq	11, cr0, [r7], #-236	; 0xffffff14
 ae0:	01111349 	tsteq	r1, r9, asr #6
 ae4:	06400112 			; <UNDEFINED> instruction: 0x06400112
 ae8:	00001301 	andeq	r1, r0, r1, lsl #6
 aec:	03000512 	movweq	r0, #1298	; 0x512
 af0:	3b0b3a08 	blcc	2cf318 <_etext+0x2ccc1f>
 af4:	0213490b 	andseq	r4, r3, #180224	; 0x2c000
 af8:	1300000a 	movwne	r0, #10
 afc:	0111010b 	tsteq	r1, fp, lsl #2
 b00:	00000112 	andeq	r0, r0, r2, lsl r1
 b04:	03003414 	movweq	r3, #1044	; 0x414
 b08:	3b0b3a0e 	blcc	2cf348 <_etext+0x2ccc4f>
 b0c:	3f13490b 	svccc	0x0013490b
 b10:	000c3c0c 	andeq	r3, ip, ip, lsl #24
 b14:	11010000 	mrsne	r0, (UNDEF: 1)
 b18:	130e2501 	movwne	r2, #58625	; 0xe501
 b1c:	1b0e030b 	blne	381750 <_etext+0x37f057>
 b20:	0006100e 	andeq	r1, r6, lr
 b24:	00240200 	eoreq	r0, r4, r0, lsl #4
 b28:	0b3e0b0b 	bleq	f8375c <_etext+0xf81063>
 b2c:	00000e03 	andeq	r0, r0, r3, lsl #28
 b30:	0b002403 	bleq	9b44 <_etext+0x744b>
 b34:	030b3e0b 	movweq	r3, #48651	; 0xbe0b
 b38:	04000008 	streq	r0, [r0], #-8
 b3c:	08030034 	stmdaeq	r3, {r2, r4, r5}
 b40:	0b3b0b3a 	bleq	ec3830 <_etext+0xec1137>
 b44:	0c3f1349 	ldceq	3, cr1, [pc], #-292	; a28 <printk+0x4c>
 b48:	00000a02 	andeq	r0, r0, r2, lsl #20
	...

Disassembly of section .debug_loc:

00000000 <.debug_loc>:
       0:	00000000 	andeq	r0, r0, r0
       4:	00000002 	andeq	r0, r0, r2
       8:	007d0002 	rsbseq	r0, sp, r2
       c:	00000002 	andeq	r0, r0, r2
      10:	00000004 	andeq	r0, r0, r4
      14:	047d0002 	ldrbteq	r0, [sp], #-2
      18:	00000004 	andeq	r0, r0, r4
      1c:	00000006 	andeq	r0, r0, r6
      20:	04770002 	ldrbteq	r0, [r7], #-2
	...
      2c:	00000008 	andeq	r0, r0, r8
      30:	0000000a 	andeq	r0, r0, sl
      34:	007d0002 	rsbseq	r0, sp, r2
      38:	0000000a 	andeq	r0, r0, sl
      3c:	0000000c 	andeq	r0, r0, ip
      40:	047d0002 	ldrbteq	r0, [sp], #-2
      44:	0000000c 	andeq	r0, r0, ip
      48:	0000000e 	andeq	r0, r0, lr
      4c:	04770002 	ldrbteq	r0, [r7], #-2
	...
      58:	00000010 	andeq	r0, r0, r0, lsl r0
      5c:	00000012 	andeq	r0, r0, r2, lsl r0
      60:	007d0002 	rsbseq	r0, sp, r2
      64:	00000012 	andeq	r0, r0, r2, lsl r0
      68:	00000014 	andeq	r0, r0, r4, lsl r0
      6c:	087d0002 	ldmdaeq	sp!, {r1}^
      70:	00000014 	andeq	r0, r0, r4, lsl r0
      74:	00000020 	andeq	r0, r0, r0, lsr #32
      78:	08770002 	ldmdaeq	r7!, {r1}^
	...
      88:	00000002 	andeq	r0, r0, r2
      8c:	007d0002 	rsbseq	r0, sp, r2
      90:	00000002 	andeq	r0, r0, r2
      94:	00000004 	andeq	r0, r0, r4
      98:	047d0002 	ldrbteq	r0, [sp], #-2
      9c:	00000004 	andeq	r0, r0, r4
      a0:	00000006 	andeq	r0, r0, r6
      a4:	107d0002 	rsbsne	r0, sp, r2
      a8:	00000006 	andeq	r0, r0, r6
      ac:	00000026 	andeq	r0, r0, r6, lsr #32
      b0:	10770002 	rsbsne	r0, r7, r2
      b4:	00000026 	andeq	r0, r0, r6, lsr #32
      b8:	00000028 	andeq	r0, r0, r8, lsr #32
      bc:	04770002 	ldrbteq	r0, [r7], #-2
      c0:	00000028 	andeq	r0, r0, r8, lsr #32
      c4:	0000002c 	andeq	r0, r0, ip, lsr #32
      c8:	047d0002 	ldrbteq	r0, [sp], #-2
      cc:	0000002c 	andeq	r0, r0, ip, lsr #32
      d0:	00000038 	andeq	r0, r0, r8, lsr r0
      d4:	007d0002 	rsbseq	r0, sp, r2
	...
      e0:	00000038 	andeq	r0, r0, r8, lsr r0
      e4:	0000003a 	andeq	r0, r0, sl, lsr r0
      e8:	007d0002 	rsbseq	r0, sp, r2
      ec:	0000003a 	andeq	r0, r0, sl, lsr r0
      f0:	0000003c 	andeq	r0, r0, ip, lsr r0
      f4:	087d0002 	ldmdaeq	sp!, {r1}^
      f8:	0000003c 	andeq	r0, r0, ip, lsr r0
      fc:	0000003e 	andeq	r0, r0, lr, lsr r0
     100:	e87d0003 	ldmda	sp!, {r0, r1}^
     104:	00003e00 	andeq	r3, r0, r0, lsl #28
     108:	0000f000 	andeq	pc, r0, r0
     10c:	77000300 	strvc	r0, [r0, -r0, lsl #6]
     110:	000000e8 	andeq	r0, r0, r8, ror #1
     114:	00000000 	andeq	r0, r0, r0
     118:	00f00000 	rscseq	r0, r0, r0
     11c:	00f20000 	rscseq	r0, r2, r0
     120:	00020000 	andeq	r0, r2, r0
     124:	00f2007d 	rscseq	r0, r2, sp, ror r0
     128:	00f40000 	rscseq	r0, r4, r0
     12c:	00020000 	andeq	r0, r2, r0
     130:	00f4087d 	rscseq	r0, r4, sp, ror r8
     134:	00f60000 	rscseq	r0, r6, r0
     138:	00020000 	andeq	r0, r2, r0
     13c:	00f6187d 	rscseq	r1, r6, sp, ror r8
     140:	01200000 			; <UNDEFINED> instruction: 0x01200000
     144:	00020000 	andeq	r0, r2, r0
     148:	00001877 	andeq	r1, r0, r7, ror r8
     14c:	00000000 	andeq	r0, r0, r0
     150:	01200000 			; <UNDEFINED> instruction: 0x01200000
     154:	01220000 			; <UNDEFINED> instruction: 0x01220000
     158:	00020000 	andeq	r0, r2, r0
     15c:	0122007d 			; <UNDEFINED> instruction: 0x0122007d
     160:	01240000 			; <UNDEFINED> instruction: 0x01240000
     164:	00020000 	andeq	r0, r2, r0
     168:	0124087d 			; <UNDEFINED> instruction: 0x0124087d
     16c:	01260000 			; <UNDEFINED> instruction: 0x01260000
     170:	00020000 	andeq	r0, r2, r0
     174:	0126107d 			; <UNDEFINED> instruction: 0x0126107d
     178:	01400000 	mrseq	r0, (UNDEF: 64)
     17c:	00020000 	andeq	r0, r2, r0
     180:	00001077 	andeq	r1, r0, r7, ror r0
     184:	00000000 	andeq	r0, r0, r0
     188:	01400000 	mrseq	r0, (UNDEF: 64)
     18c:	01420000 	mrseq	r0, (UNDEF: 66)
     190:	00020000 	andeq	r0, r2, r0
     194:	0142007d 	hvceq	8205	; 0x200d
     198:	01440000 	mrseq	r0, (UNDEF: 68)
     19c:	00020000 	andeq	r0, r2, r0
     1a0:	0144087d 	hvceq	16525	; 0x408d
     1a4:	01460000 	mrseq	r0, (UNDEF: 70)
     1a8:	00020000 	andeq	r0, r2, r0
     1ac:	0146107d 	hvceq	24845	; 0x610d
     1b0:	01600000 	cmneq	r0, r0
     1b4:	00020000 	andeq	r0, r2, r0
     1b8:	00001077 	andeq	r1, r0, r7, ror r0
     1bc:	00000000 	andeq	r0, r0, r0
     1c0:	01600000 	cmneq	r0, r0
     1c4:	01620000 	cmneq	r2, r0
     1c8:	00020000 	andeq	r0, r2, r0
     1cc:	0162007d 	smceq	8205	; 0x200d
     1d0:	01640000 	cmneq	r4, r0
     1d4:	00020000 	andeq	r0, r2, r0
     1d8:	0164087d 	smceq	16525	; 0x408d
     1dc:	01660000 	cmneq	r6, r0
     1e0:	00020000 	andeq	r0, r2, r0
     1e4:	0166107d 	smceq	24845	; 0x610d
     1e8:	02280000 	eoreq	r0, r8, #0
     1ec:	00020000 	andeq	r0, r2, r0
     1f0:	00000877 	andeq	r0, r0, r7, ror r8
	...
     1fc:	00020000 	andeq	r0, r2, r0
     200:	00020000 	andeq	r0, r2, r0
     204:	0002007d 	andeq	r0, r2, sp, ror r0
     208:	00040000 	andeq	r0, r4, r0
     20c:	00020000 	andeq	r0, r2, r0
     210:	0004047d 	andeq	r0, r4, sp, ror r4
     214:	00060000 	andeq	r0, r6, r0
     218:	00020000 	andeq	r0, r2, r0
     21c:	0006187d 	andeq	r1, r6, sp, ror r8
     220:	00340000 	eorseq	r0, r4, r0
     224:	00020000 	andeq	r0, r2, r0
     228:	00341877 	eorseq	r1, r4, r7, ror r8
     22c:	00360000 	eorseq	r0, r6, r0
     230:	00020000 	andeq	r0, r2, r0
     234:	00360477 	eorseq	r0, r6, r7, ror r4
     238:	003a0000 	eorseq	r0, sl, r0
     23c:	00020000 	andeq	r0, r2, r0
     240:	003a047d 	eorseq	r0, sl, sp, ror r4
     244:	00440000 	subeq	r0, r4, r0
     248:	00020000 	andeq	r0, r2, r0
     24c:	0000007d 	andeq	r0, r0, sp, ror r0
     250:	00000000 	andeq	r0, r0, r0
     254:	00440000 	subeq	r0, r4, r0
     258:	00460000 	subeq	r0, r6, r0
     25c:	00020000 	andeq	r0, r2, r0
     260:	0046007d 	subeq	r0, r6, sp, ror r0
     264:	00480000 	subeq	r0, r8, r0
     268:	00020000 	andeq	r0, r2, r0
     26c:	0048087d 	subeq	r0, r8, sp, ror r8
     270:	004e0000 	subeq	r0, lr, r0
     274:	00020000 	andeq	r0, r2, r0
     278:	00000877 	andeq	r0, r0, r7, ror r8
     27c:	00000000 	andeq	r0, r0, r0
     280:	00500000 	subseq	r0, r0, r0
     284:	00520000 	subseq	r0, r2, r0
     288:	00020000 	andeq	r0, r2, r0
     28c:	0052007d 	subseq	r0, r2, sp, ror r0
     290:	00540000 	subseq	r0, r4, r0
     294:	00020000 	andeq	r0, r2, r0
     298:	0054047d 	subseq	r0, r4, sp, ror r4
     29c:	00640000 	rsbeq	r0, r4, r0
     2a0:	00020000 	andeq	r0, r2, r0
     2a4:	00640477 	rsbeq	r0, r4, r7, ror r4
     2a8:	00680000 	rsbeq	r0, r8, r0
     2ac:	00020000 	andeq	r0, r2, r0
     2b0:	0068047d 	rsbeq	r0, r8, sp, ror r4
     2b4:	00740000 	rsbseq	r0, r4, r0
     2b8:	00020000 	andeq	r0, r2, r0
     2bc:	0000007d 	andeq	r0, r0, sp, ror r0
	...
     2c8:	00020000 	andeq	r0, r2, r0
     2cc:	00020000 	andeq	r0, r2, r0
     2d0:	0002007d 	andeq	r0, r2, sp, ror r0
     2d4:	00040000 	andeq	r0, r4, r0
     2d8:	00020000 	andeq	r0, r2, r0
     2dc:	0004047d 	andeq	r0, r4, sp, ror r4
     2e0:	00060000 	andeq	r0, r6, r0
     2e4:	00020000 	andeq	r0, r2, r0
     2e8:	0006107d 	andeq	r1, r6, sp, ror r0
     2ec:	00180000 	andseq	r0, r8, r0
     2f0:	00020000 	andeq	r0, r2, r0
     2f4:	00181077 	andseq	r1, r8, r7, ror r0
     2f8:	001a0000 	andseq	r0, sl, r0
     2fc:	00020000 	andeq	r0, r2, r0
     300:	001a0477 	andseq	r0, sl, r7, ror r4
     304:	001e0000 	andseq	r0, lr, r0
     308:	00020000 	andeq	r0, r2, r0
     30c:	001e047d 	andseq	r0, lr, sp, ror r4
     310:	00240000 	eoreq	r0, r4, r0
     314:	00020000 	andeq	r0, r2, r0
     318:	0000007d 	andeq	r0, r0, sp, ror r0
     31c:	00000000 	andeq	r0, r0, r0
     320:	00240000 	eoreq	r0, r4, r0
     324:	00260000 	eoreq	r0, r6, r0
     328:	00020000 	andeq	r0, r2, r0
     32c:	0026007d 	eoreq	r0, r6, sp, ror r0
     330:	00280000 	eoreq	r0, r8, r0
     334:	00020000 	andeq	r0, r2, r0
     338:	0028047d 	eoreq	r0, r8, sp, ror r4
     33c:	002a0000 	eoreq	r0, sl, r0
     340:	00020000 	andeq	r0, r2, r0
     344:	002a187d 	eoreq	r1, sl, sp, ror r8
     348:	00580000 	subseq	r0, r8, r0
     34c:	00020000 	andeq	r0, r2, r0
     350:	00581877 	subseq	r1, r8, r7, ror r8
     354:	005a0000 	subseq	r0, sl, r0
     358:	00020000 	andeq	r0, r2, r0
     35c:	005a0477 	subseq	r0, sl, r7, ror r4
     360:	005e0000 	subseq	r0, lr, r0
     364:	00020000 	andeq	r0, r2, r0
     368:	005e047d 	subseq	r0, lr, sp, ror r4
     36c:	00640000 	rsbeq	r0, r4, r0
     370:	00020000 	andeq	r0, r2, r0
     374:	0000007d 	andeq	r0, r0, sp, ror r0
     378:	00000000 	andeq	r0, r0, r0
     37c:	00640000 	rsbeq	r0, r4, r0
     380:	00660000 	rsbeq	r0, r6, r0
     384:	00020000 	andeq	r0, r2, r0
     388:	0066007d 	rsbeq	r0, r6, sp, ror r0
     38c:	00680000 	rsbeq	r0, r8, r0
     390:	00020000 	andeq	r0, r2, r0
     394:	0068047d 	rsbeq	r0, r8, sp, ror r4
     398:	006a0000 	rsbeq	r0, sl, r0
     39c:	00020000 	andeq	r0, r2, r0
     3a0:	006a107d 	rsbeq	r1, sl, sp, ror r0
     3a4:	00900000 	addseq	r0, r0, r0
     3a8:	00020000 	andeq	r0, r2, r0
     3ac:	00901077 	addseq	r1, r0, r7, ror r0
     3b0:	00920000 	addseq	r0, r2, r0
     3b4:	00020000 	andeq	r0, r2, r0
     3b8:	00920477 	addseq	r0, r2, r7, ror r4
     3bc:	00960000 	addseq	r0, r6, r0
     3c0:	00020000 	andeq	r0, r2, r0
     3c4:	0096047d 	addseq	r0, r6, sp, ror r4
     3c8:	00980000 	addseq	r0, r8, r0
     3cc:	00020000 	andeq	r0, r2, r0
     3d0:	0000007d 	andeq	r0, r0, sp, ror r0
     3d4:	00000000 	andeq	r0, r0, r0
     3d8:	00980000 	addseq	r0, r8, r0
     3dc:	009a0000 	addseq	r0, sl, r0
     3e0:	00020000 	andeq	r0, r2, r0
     3e4:	009a007d 	addseq	r0, sl, sp, ror r0
     3e8:	009c0000 	addseq	r0, ip, r0
     3ec:	00020000 	andeq	r0, r2, r0
     3f0:	009c047d 	addseq	r0, ip, sp, ror r4
     3f4:	009e0000 	addseq	r0, lr, r0
     3f8:	00020000 	andeq	r0, r2, r0
     3fc:	009e107d 	addseq	r1, lr, sp, ror r0
     400:	00d00000 	sbcseq	r0, r0, r0
     404:	00020000 	andeq	r0, r2, r0
     408:	00d01077 	sbcseq	r1, r0, r7, ror r0
     40c:	00d20000 	sbcseq	r0, r2, r0
     410:	00020000 	andeq	r0, r2, r0
     414:	00d20477 	sbcseq	r0, r2, r7, ror r4
     418:	00d60000 	sbcseq	r0, r6, r0
     41c:	00020000 	andeq	r0, r2, r0
     420:	00d6047d 	sbcseq	r0, r6, sp, ror r4
     424:	00d80000 	sbcseq	r0, r8, r0
     428:	00020000 	andeq	r0, r2, r0
     42c:	0000007d 	andeq	r0, r0, sp, ror r0
     430:	00000000 	andeq	r0, r0, r0
     434:	00d80000 	sbcseq	r0, r8, r0
     438:	00da0000 	sbcseq	r0, sl, r0
     43c:	00020000 	andeq	r0, r2, r0
     440:	00da007d 	sbcseq	r0, sl, sp, ror r0
     444:	00dc0000 	sbcseq	r0, ip, r0
     448:	00020000 	andeq	r0, r2, r0
     44c:	00dc087d 	sbcseq	r0, ip, sp, ror r8
     450:	00de0000 	sbcseq	r0, lr, r0
     454:	00020000 	andeq	r0, r2, r0
     458:	00de187d 	sbcseq	r1, lr, sp, ror r8
     45c:	010e0000 	mrseq	r0, (UNDEF: 14)
     460:	00020000 	andeq	r0, r2, r0
     464:	010e1877 	tsteq	lr, r7, ror r8
     468:	01100000 	tsteq	r0, r0
     46c:	00020000 	andeq	r0, r2, r0
     470:	01100877 	tsteq	r0, r7, ror r8
     474:	01120000 	tsteq	r2, r0
     478:	00020000 	andeq	r0, r2, r0
     47c:	0000087d 	andeq	r0, r0, sp, ror r8
     480:	00000000 	andeq	r0, r0, r0
     484:	01140000 	tsteq	r4, r0
     488:	01160000 	tsteq	r6, r0
     48c:	00020000 	andeq	r0, r2, r0
     490:	0116007d 	tsteq	r6, sp, ror r0
     494:	01180000 	tsteq	r8, r0
     498:	00020000 	andeq	r0, r2, r0
     49c:	0118087d 	tsteq	r8, sp, ror r8
     4a0:	011a0000 	tsteq	sl, r0
     4a4:	00020000 	andeq	r0, r2, r0
     4a8:	011a107d 	tsteq	sl, sp, ror r0
     4ac:	01420000 	mrseq	r0, (UNDEF: 66)
     4b0:	00020000 	andeq	r0, r2, r0
     4b4:	01421077 	hvceq	8455	; 0x2107
     4b8:	01440000 	mrseq	r0, (UNDEF: 68)
     4bc:	00020000 	andeq	r0, r2, r0
     4c0:	01440877 	hvceq	16519	; 0x4087
     4c4:	01460000 	mrseq	r0, (UNDEF: 70)
     4c8:	00020000 	andeq	r0, r2, r0
     4cc:	0000087d 	andeq	r0, r0, sp, ror r8
     4d0:	00000000 	andeq	r0, r0, r0
     4d4:	01480000 	mrseq	r0, (UNDEF: 72)
     4d8:	014a0000 	mrseq	r0, (UNDEF: 74)
     4dc:	00020000 	andeq	r0, r2, r0
     4e0:	014a007d 	hvceq	40973	; 0xa00d
     4e4:	014c0000 	mrseq	r0, (UNDEF: 76)
     4e8:	00020000 	andeq	r0, r2, r0
     4ec:	014c087d 	hvceq	49293	; 0xc08d
     4f0:	014e0000 	mrseq	r0, (UNDEF: 78)
     4f4:	00020000 	andeq	r0, r2, r0
     4f8:	014e187d 	hvceq	57741	; 0xe18d
     4fc:	01b20000 			; <UNDEFINED> instruction: 0x01b20000
     500:	00020000 	andeq	r0, r2, r0
     504:	01b21877 			; <UNDEFINED> instruction: 0x01b21877
     508:	01b40000 			; <UNDEFINED> instruction: 0x01b40000
     50c:	00020000 	andeq	r0, r2, r0
     510:	01b40877 			; <UNDEFINED> instruction: 0x01b40877
     514:	01bc0000 			; <UNDEFINED> instruction: 0x01bc0000
     518:	00020000 	andeq	r0, r2, r0
     51c:	0000087d 	andeq	r0, r0, sp, ror r8
     520:	00000000 	andeq	r0, r0, r0
     524:	01bc0000 			; <UNDEFINED> instruction: 0x01bc0000
     528:	01be0000 			; <UNDEFINED> instruction: 0x01be0000
     52c:	00020000 	andeq	r0, r2, r0
     530:	01be007d 			; <UNDEFINED> instruction: 0x01be007d
     534:	01c00000 	biceq	r0, r0, r0
     538:	00020000 	andeq	r0, r2, r0
     53c:	01c0087d 	biceq	r0, r0, sp, ror r8
     540:	01c20000 	biceq	r0, r2, r0
     544:	00020000 	andeq	r0, r2, r0
     548:	01c2187d 	biceq	r1, r2, sp, ror r8
     54c:	02260000 	eoreq	r0, r6, #0
     550:	00020000 	andeq	r0, r2, r0
     554:	02261877 	eoreq	r1, r6, #7798784	; 0x770000
     558:	02280000 	eoreq	r0, r8, #0
     55c:	00020000 	andeq	r0, r2, r0
     560:	02280877 	eoreq	r0, r8, #7798784	; 0x770000
     564:	02300000 	eorseq	r0, r0, #0
     568:	00020000 	andeq	r0, r2, r0
     56c:	0000087d 	andeq	r0, r0, sp, ror r8
     570:	00000000 	andeq	r0, r0, r0
     574:	02300000 	eorseq	r0, r0, #0
     578:	02320000 	eorseq	r0, r2, #0
     57c:	00020000 	andeq	r0, r2, r0
     580:	0232007d 	eorseq	r0, r2, #125	; 0x7d
     584:	02340000 	eorseq	r0, r4, #0
     588:	00020000 	andeq	r0, r2, r0
     58c:	0234087d 	eorseq	r0, r4, #8192000	; 0x7d0000
     590:	02360000 	eorseq	r0, r6, #0
     594:	00020000 	andeq	r0, r2, r0
     598:	0236207d 	eorseq	r2, r6, #125	; 0x7d
     59c:	04960000 	ldreq	r0, [r6], #0
     5a0:	00020000 	andeq	r0, r2, r0
     5a4:	04962077 	ldreq	r2, [r6], #119	; 0x77
     5a8:	04980000 	ldreq	r0, [r8], #0
     5ac:	00020000 	andeq	r0, r2, r0
     5b0:	04980877 	ldreq	r0, [r8], #2167	; 0x877
     5b4:	04a40000 	strteq	r0, [r4], #0
     5b8:	00020000 	andeq	r0, r2, r0
     5bc:	0000087d 	andeq	r0, r0, sp, ror r8
     5c0:	00000000 	andeq	r0, r0, r0
     5c4:	04a40000 	strteq	r0, [r4], #0
     5c8:	04a60000 	strteq	r0, [r6], #0
     5cc:	00020000 	andeq	r0, r2, r0
     5d0:	04a6007d 	strteq	r0, [r6], #125	; 0x7d
     5d4:	04a80000 	strteq	r0, [r8], #0
     5d8:	00020000 	andeq	r0, r2, r0
     5dc:	04a8107d 	strteq	r1, [r8], #125	; 0x7d
     5e0:	04aa0000 	strteq	r0, [sl], #0
     5e4:	00020000 	andeq	r0, r2, r0
     5e8:	04aa147d 	strteq	r1, [sl], #1149	; 0x47d
     5ec:	04ac0000 	strteq	r0, [ip], #0
     5f0:	00020000 	andeq	r0, r2, r0
     5f4:	04ac1477 	strteq	r1, [ip], #1143	; 0x477
     5f8:	04b00000 	ldrteq	r0, [r0], #0
     5fc:	00020000 	andeq	r0, r2, r0
     600:	04b0147d 	ldrteq	r1, [r0], #1149	; 0x47d
     604:	04b20000 	ldrteq	r0, [r2], #0
     608:	00020000 	andeq	r0, r2, r0
     60c:	04b2107d 	ldrteq	r1, [r2], #125	; 0x7d
     610:	04b40000 	ldrteq	r0, [r4], #0
     614:	00020000 	andeq	r0, r2, r0
     618:	0000007d 	andeq	r0, r0, sp, ror r0
     61c:	00000000 	andeq	r0, r0, r0
     620:	04b40000 	ldrteq	r0, [r4], #0
     624:	04b60000 	ldrteq	r0, [r6], #0
     628:	00020000 	andeq	r0, r2, r0
     62c:	04b6007d 	ldrteq	r0, [r6], #125	; 0x7d
     630:	04b80000 	ldrteq	r0, [r8], #0
     634:	00020000 	andeq	r0, r2, r0
     638:	04b8107d 	ldrteq	r1, [r8], #125	; 0x7d
     63c:	04ba0000 	ldrteq	r0, [sl], #0
     640:	00020000 	andeq	r0, r2, r0
     644:	04ba187d 	ldrteq	r1, [sl], #2173	; 0x87d
     648:	04bc0000 	ldrteq	r0, [ip], #0
     64c:	00020000 	andeq	r0, r2, r0
     650:	04bc287d 	ldrteq	r2, [ip], #2173	; 0x87d
     654:	062e0000 	strteq	r0, [lr], -r0
     658:	00020000 	andeq	r0, r2, r0
     65c:	062e2877 			; <UNDEFINED> instruction: 0x062e2877
     660:	06300000 	ldrteq	r0, [r0], -r0
     664:	00020000 	andeq	r0, r2, r0
     668:	06301877 			; <UNDEFINED> instruction: 0x06301877
     66c:	06340000 	ldrteq	r0, [r4], -r0
     670:	00020000 	andeq	r0, r2, r0
     674:	0634187d 			; <UNDEFINED> instruction: 0x0634187d
     678:	06360000 	ldrteq	r0, [r6], -r0
     67c:	00020000 	andeq	r0, r2, r0
     680:	0636107d 			; <UNDEFINED> instruction: 0x0636107d
     684:	06380000 	ldrteq	r0, [r8], -r0
     688:	00020000 	andeq	r0, r2, r0
     68c:	0000007d 	andeq	r0, r0, sp, ror r0
     690:	00000000 	andeq	r0, r0, r0
     694:	06380000 	ldrteq	r0, [r8], -r0
     698:	063a0000 	ldrteq	r0, [sl], -r0
     69c:	00020000 	andeq	r0, r2, r0
     6a0:	063a007d 			; <UNDEFINED> instruction: 0x063a007d
     6a4:	063c0000 	ldrteq	r0, [ip], -r0
     6a8:	00020000 	andeq	r0, r2, r0
     6ac:	063c047d 			; <UNDEFINED> instruction: 0x063c047d
     6b0:	063e0000 	ldrteq	r0, [lr], -r0
     6b4:	00020000 	andeq	r0, r2, r0
     6b8:	063e207d 			; <UNDEFINED> instruction: 0x063e207d
     6bc:	06720000 	ldrbteq	r0, [r2], -r0
     6c0:	00020000 	andeq	r0, r2, r0
     6c4:	06722077 			; <UNDEFINED> instruction: 0x06722077
     6c8:	06740000 	ldrbteq	r0, [r4], -r0
     6cc:	00020000 	andeq	r0, r2, r0
     6d0:	06740477 			; <UNDEFINED> instruction: 0x06740477
     6d4:	06780000 	ldrbteq	r0, [r8], -r0
     6d8:	00020000 	andeq	r0, r2, r0
     6dc:	0678047d 			; <UNDEFINED> instruction: 0x0678047d
     6e0:	067a0000 	ldrbteq	r0, [sl], -r0
     6e4:	00020000 	andeq	r0, r2, r0
     6e8:	0000007d 	andeq	r0, r0, sp, ror r0
     6ec:	00000000 	andeq	r0, r0, r0
     6f0:	067c0000 	ldrbteq	r0, [ip], -r0
     6f4:	067e0000 	ldrbteq	r0, [lr], -r0
     6f8:	00020000 	andeq	r0, r2, r0
     6fc:	067e007d 			; <UNDEFINED> instruction: 0x067e007d
     700:	06800000 	streq	r0, [r0], r0
     704:	00020000 	andeq	r0, r2, r0
     708:	0680047d 	sxtab16eq	r0, r0, sp, ror #8
     70c:	06820000 	streq	r0, [r2], r0
     710:	00020000 	andeq	r0, r2, r0
     714:	0682287d 	sxtab16eq	r2, r2, sp, ror #16
     718:	06be0000 	ldrteq	r0, [lr], r0
     71c:	00020000 	andeq	r0, r2, r0
     720:	06be2877 	sxtaheq	r2, lr, r7, ror #16
     724:	06c00000 	strbeq	r0, [r0], r0
     728:	00020000 	andeq	r0, r2, r0
     72c:	06c00477 	uxtab16eq	r0, r0, r7, ror #8
     730:	06c40000 	strbeq	r0, [r4], r0
     734:	00020000 	andeq	r0, r2, r0
     738:	06c4047d 	uxtab16eq	r0, r4, sp, ror #8
     73c:	06c60000 	strbeq	r0, [r6], r0
     740:	00020000 	andeq	r0, r2, r0
     744:	0000007d 	andeq	r0, r0, sp, ror r0
     748:	00000000 	andeq	r0, r0, r0
     74c:	06c80000 	strbeq	r0, [r8], r0
     750:	06ca0000 	strbeq	r0, [sl], r0
     754:	00020000 	andeq	r0, r2, r0
     758:	06ca007d 	uxtab16eq	r0, sl, sp
     75c:	06cc0000 	strbeq	r0, [ip], r0
     760:	00020000 	andeq	r0, r2, r0
     764:	06cc047d 	uxtab16eq	r0, ip, sp, ror #8
     768:	06ce0000 	strbeq	r0, [lr], r0
     76c:	00020000 	andeq	r0, r2, r0
     770:	06ce287d 	uxtab16eq	r2, lr, sp, ror #16
     774:	07200000 	streq	r0, [r0, -r0]!
     778:	00020000 	andeq	r0, r2, r0
     77c:	07202877 			; <UNDEFINED> instruction: 0x07202877
     780:	07220000 	streq	r0, [r2, -r0]!
     784:	00020000 	andeq	r0, r2, r0
     788:	07220477 			; <UNDEFINED> instruction: 0x07220477
     78c:	07260000 	streq	r0, [r6, -r0]!
     790:	00020000 	andeq	r0, r2, r0
     794:	0726047d 			; <UNDEFINED> instruction: 0x0726047d
     798:	07280000 	streq	r0, [r8, -r0]!
     79c:	00020000 	andeq	r0, r2, r0
     7a0:	0000007d 	andeq	r0, r0, sp, ror r0
     7a4:	00000000 	andeq	r0, r0, r0
     7a8:	07280000 	streq	r0, [r8, -r0]!
     7ac:	072a0000 	streq	r0, [sl, -r0]!
     7b0:	00020000 	andeq	r0, r2, r0
     7b4:	072a007d 			; <UNDEFINED> instruction: 0x072a007d
     7b8:	072c0000 	streq	r0, [ip, -r0]!
     7bc:	00020000 	andeq	r0, r2, r0
     7c0:	072c047d 			; <UNDEFINED> instruction: 0x072c047d
     7c4:	072e0000 	streq	r0, [lr, -r0]!
     7c8:	00020000 	andeq	r0, r2, r0
     7cc:	072e187d 			; <UNDEFINED> instruction: 0x072e187d
     7d0:	07740000 	ldrbeq	r0, [r4, -r0]!
     7d4:	00020000 	andeq	r0, r2, r0
     7d8:	07741877 			; <UNDEFINED> instruction: 0x07741877
     7dc:	07760000 	ldrbeq	r0, [r6, -r0]!
     7e0:	00020000 	andeq	r0, r2, r0
     7e4:	07760477 			; <UNDEFINED> instruction: 0x07760477
     7e8:	077a0000 	ldrbeq	r0, [sl, -r0]!
     7ec:	00020000 	andeq	r0, r2, r0
     7f0:	077a047d 			; <UNDEFINED> instruction: 0x077a047d
     7f4:	077c0000 	ldrbeq	r0, [ip, -r0]!
     7f8:	00020000 	andeq	r0, r2, r0
     7fc:	0000007d 	andeq	r0, r0, sp, ror r0
     800:	00000000 	andeq	r0, r0, r0
     804:	077c0000 	ldrbeq	r0, [ip, -r0]!
     808:	077e0000 	ldrbeq	r0, [lr, -r0]!
     80c:	00020000 	andeq	r0, r2, r0
     810:	077e007d 			; <UNDEFINED> instruction: 0x077e007d
     814:	07800000 	streq	r0, [r0, r0]
     818:	00020000 	andeq	r0, r2, r0
     81c:	0780047d 			; <UNDEFINED> instruction: 0x0780047d
     820:	07820000 	streq	r0, [r2, r0]
     824:	00020000 	andeq	r0, r2, r0
     828:	0782287d 			; <UNDEFINED> instruction: 0x0782287d
     82c:	07d80000 	ldrbeq	r0, [r8, r0]
     830:	00020000 	andeq	r0, r2, r0
     834:	07d82877 			; <UNDEFINED> instruction: 0x07d82877
     838:	07da0000 	ldrbeq	r0, [sl, r0]
     83c:	00020000 	andeq	r0, r2, r0
     840:	07da0477 			; <UNDEFINED> instruction: 0x07da0477
     844:	07de0000 	ldrbeq	r0, [lr, r0]
     848:	00020000 	andeq	r0, r2, r0
     84c:	07de047d 			; <UNDEFINED> instruction: 0x07de047d
     850:	07e00000 	strbeq	r0, [r0, r0]!
     854:	00020000 	andeq	r0, r2, r0
     858:	0000007d 	andeq	r0, r0, sp, ror r0
     85c:	00000000 	andeq	r0, r0, r0
     860:	07e00000 	strbeq	r0, [r0, r0]!
     864:	07e20000 	strbeq	r0, [r2, r0]!
     868:	00020000 	andeq	r0, r2, r0
     86c:	07e2007d 			; <UNDEFINED> instruction: 0x07e2007d
     870:	07e40000 	strbeq	r0, [r4, r0]!
     874:	00020000 	andeq	r0, r2, r0
     878:	07e4087d 			; <UNDEFINED> instruction: 0x07e4087d
     87c:	07e60000 	strbeq	r0, [r6, r0]!
     880:	00020000 	andeq	r0, r2, r0
     884:	07e6207d 			; <UNDEFINED> instruction: 0x07e6207d
     888:	08c40000 	stmiaeq	r4, {}^	; <UNPREDICTABLE>
     88c:	00020000 	andeq	r0, r2, r0
     890:	08c42077 	stmiaeq	r4, {r0, r1, r2, r4, r5, r6, sp}^
     894:	08c60000 	stmiaeq	r6, {}^	; <UNPREDICTABLE>
     898:	00020000 	andeq	r0, r2, r0
     89c:	08c60877 	stmiaeq	r6, {r0, r1, r2, r4, r5, r6, fp}^
     8a0:	08c80000 	stmiaeq	r8, {}^	; <UNPREDICTABLE>
     8a4:	00020000 	andeq	r0, r2, r0
     8a8:	0000087d 	andeq	r0, r0, sp, ror r8
     8ac:	00000000 	andeq	r0, r0, r0
     8b0:	08c80000 	stmiaeq	r8, {}^	; <UNPREDICTABLE>
     8b4:	08ca0000 	stmiaeq	sl, {}^	; <UNPREDICTABLE>
     8b8:	00020000 	andeq	r0, r2, r0
     8bc:	08ca007d 	stmiaeq	sl, {r0, r2, r3, r4, r5, r6}^
     8c0:	08cc0000 	stmiaeq	ip, {}^	; <UNPREDICTABLE>
     8c4:	00020000 	andeq	r0, r2, r0
     8c8:	08cc087d 	stmiaeq	ip, {r0, r2, r3, r4, r5, r6, fp}^
     8cc:	08ce0000 	stmiaeq	lr, {}^	; <UNPREDICTABLE>
     8d0:	00020000 	andeq	r0, r2, r0
     8d4:	08ce187d 	stmiaeq	lr, {r0, r2, r3, r4, r5, r6, fp, ip}^
     8d8:	090a0000 	stmdbeq	sl, {}	; <UNPREDICTABLE>
     8dc:	00020000 	andeq	r0, r2, r0
     8e0:	090a1877 	stmdbeq	sl, {r0, r1, r2, r4, r5, r6, fp, ip}
     8e4:	090c0000 	stmdbeq	ip, {}	; <UNPREDICTABLE>
     8e8:	00020000 	andeq	r0, r2, r0
     8ec:	090c0877 	stmdbeq	ip, {r0, r1, r2, r4, r5, r6, fp}
     8f0:	090e0000 	stmdbeq	lr, {}	; <UNPREDICTABLE>
     8f4:	00020000 	andeq	r0, r2, r0
     8f8:	0000087d 	andeq	r0, r0, sp, ror r8
     8fc:	00000000 	andeq	r0, r0, r0
     900:	09100000 	ldmdbeq	r0, {}	; <UNPREDICTABLE>
     904:	09120000 	ldmdbeq	r2, {}	; <UNPREDICTABLE>
     908:	00020000 	andeq	r0, r2, r0
     90c:	0912007d 	ldmdbeq	r2, {r0, r2, r3, r4, r5, r6}
     910:	09140000 	ldmdbeq	r4, {}	; <UNPREDICTABLE>
     914:	00020000 	andeq	r0, r2, r0
     918:	0914047d 	ldmdbeq	r4, {r0, r2, r3, r4, r5, r6, sl}
     91c:	09160000 	ldmdbeq	r6, {}	; <UNPREDICTABLE>
     920:	00020000 	andeq	r0, r2, r0
     924:	0916187d 	ldmdbeq	r6, {r0, r2, r3, r4, r5, r6, fp, ip}
     928:	09340000 	ldmdbeq	r4!, {}	; <UNPREDICTABLE>
     92c:	00020000 	andeq	r0, r2, r0
     930:	09341877 	ldmdbeq	r4!, {r0, r1, r2, r4, r5, r6, fp, ip}
     934:	09360000 	ldmdbeq	r6!, {}	; <UNPREDICTABLE>
     938:	00020000 	andeq	r0, r2, r0
     93c:	09360477 	ldmdbeq	r6!, {r0, r1, r2, r4, r5, r6, sl}
     940:	093a0000 	ldmdbeq	sl!, {}	; <UNPREDICTABLE>
     944:	00020000 	andeq	r0, r2, r0
     948:	093a047d 	ldmdbeq	sl!, {r0, r2, r3, r4, r5, r6, sl}
     94c:	093c0000 	ldmdbeq	ip!, {}	; <UNPREDICTABLE>
     950:	00020000 	andeq	r0, r2, r0
     954:	0000007d 	andeq	r0, r0, sp, ror r0
     958:	00000000 	andeq	r0, r0, r0
     95c:	093c0000 	ldmdbeq	ip!, {}	; <UNPREDICTABLE>
     960:	093e0000 	ldmdbeq	lr!, {}	; <UNPREDICTABLE>
     964:	00020000 	andeq	r0, r2, r0
     968:	093e007d 	ldmdbeq	lr!, {r0, r2, r3, r4, r5, r6}
     96c:	09400000 	stmdbeq	r0, {}^	; <UNPREDICTABLE>
     970:	00020000 	andeq	r0, r2, r0
     974:	0940047d 	stmdbeq	r0, {r0, r2, r3, r4, r5, r6, sl}^
     978:	09420000 	stmdbeq	r2, {}^	; <UNPREDICTABLE>
     97c:	00020000 	andeq	r0, r2, r0
     980:	0942187d 	stmdbeq	r2, {r0, r2, r3, r4, r5, r6, fp, ip}^
     984:	09780000 	ldmdbeq	r8!, {}^	; <UNPREDICTABLE>
     988:	00020000 	andeq	r0, r2, r0
     98c:	09781877 	ldmdbeq	r8!, {r0, r1, r2, r4, r5, r6, fp, ip}^
     990:	097a0000 	ldmdbeq	sl!, {}^	; <UNPREDICTABLE>
     994:	00020000 	andeq	r0, r2, r0
     998:	097a0477 	ldmdbeq	sl!, {r0, r1, r2, r4, r5, r6, sl}^
     99c:	097e0000 	ldmdbeq	lr!, {}^	; <UNPREDICTABLE>
     9a0:	00020000 	andeq	r0, r2, r0
     9a4:	097e047d 	ldmdbeq	lr!, {r0, r2, r3, r4, r5, r6, sl}^
     9a8:	09800000 	stmibeq	r0, {}	; <UNPREDICTABLE>
     9ac:	00020000 	andeq	r0, r2, r0
     9b0:	0000007d 	andeq	r0, r0, sp, ror r0
	...
     9bc:	00020000 	andeq	r0, r2, r0
     9c0:	00020000 	andeq	r0, r2, r0
     9c4:	0002007d 	andeq	r0, r2, sp, ror r0
     9c8:	00040000 	andeq	r0, r4, r0
     9cc:	00020000 	andeq	r0, r2, r0
     9d0:	0004047d 	andeq	r0, r4, sp, ror r4
     9d4:	00060000 	andeq	r0, r6, r0
     9d8:	00020000 	andeq	r0, r2, r0
     9dc:	0006107d 	andeq	r1, r6, sp, ror r0
     9e0:	000a0000 	andeq	r0, sl, r0
     9e4:	00020000 	andeq	r0, r2, r0
     9e8:	00001077 	andeq	r1, r0, r7, ror r0
     9ec:	00000000 	andeq	r0, r0, r0
     9f0:	000c0000 	andeq	r0, ip, r0
     9f4:	000e0000 	andeq	r0, lr, r0
     9f8:	00020000 	andeq	r0, r2, r0
     9fc:	000e007d 	andeq	r0, lr, sp, ror r0
     a00:	00100000 	andseq	r0, r0, r0
     a04:	00020000 	andeq	r0, r2, r0
     a08:	0010087d 	andseq	r0, r0, sp, ror r8
     a0c:	00120000 	andseq	r0, r2, r0
     a10:	00020000 	andeq	r0, r2, r0
     a14:	0012187d 	andseq	r1, r2, sp, ror r8
     a18:	01660000 	cmneq	r6, r0
     a1c:	00020000 	andeq	r0, r2, r0
     a20:	01661877 	smceq	24967	; 0x6187
     a24:	01680000 	cmneq	r8, r0
     a28:	00020000 	andeq	r0, r2, r0
     a2c:	01680877 	smceq	32903	; 0x8087
     a30:	017c0000 	cmneq	ip, r0
     a34:	00020000 	andeq	r0, r2, r0
     a38:	0000087d 	andeq	r0, r0, sp, ror r8
     a3c:	00000000 	andeq	r0, r0, r0
     a40:	017c0000 	cmneq	ip, r0
     a44:	017e0000 	cmneq	lr, r0
     a48:	00020000 	andeq	r0, r2, r0
     a4c:	017e007d 	cmneq	lr, sp, ror r0
     a50:	01800000 	orreq	r0, r0, r0
     a54:	00020000 	andeq	r0, r2, r0
     a58:	0180087d 	orreq	r0, r0, sp, ror r8
     a5c:	01820000 	orreq	r0, r2, r0
     a60:	00020000 	andeq	r0, r2, r0
     a64:	0182107d 	orreq	r1, r2, sp, ror r0
     a68:	01b60000 			; <UNDEFINED> instruction: 0x01b60000
     a6c:	00020000 	andeq	r0, r2, r0
     a70:	01b61077 			; <UNDEFINED> instruction: 0x01b61077
     a74:	01b80000 			; <UNDEFINED> instruction: 0x01b80000
     a78:	00020000 	andeq	r0, r2, r0
     a7c:	01b80877 			; <UNDEFINED> instruction: 0x01b80877
     a80:	01c80000 	biceq	r0, r8, r0
     a84:	00020000 	andeq	r0, r2, r0
     a88:	0000087d 	andeq	r0, r0, sp, ror r8
     a8c:	00000000 	andeq	r0, r0, r0
     a90:	01c80000 	biceq	r0, r8, r0
     a94:	01ca0000 	biceq	r0, sl, r0
     a98:	00020000 	andeq	r0, r2, r0
     a9c:	01ca007d 	biceq	r0, sl, sp, ror r0
     aa0:	01cc0000 	biceq	r0, ip, r0
     aa4:	00020000 	andeq	r0, r2, r0
     aa8:	01cc047d 	biceq	r0, ip, sp, ror r4
     aac:	01d60000 	bicseq	r0, r6, r0
     ab0:	00020000 	andeq	r0, r2, r0
     ab4:	01d60477 	bicseq	r0, r6, r7, ror r4
     ab8:	01da0000 	bicseq	r0, sl, r0
     abc:	00020000 	andeq	r0, r2, r0
     ac0:	01da047d 	bicseq	r0, sl, sp, ror r4
     ac4:	01e00000 	mvneq	r0, r0
     ac8:	00020000 	andeq	r0, r2, r0
     acc:	0000007d 	andeq	r0, r0, sp, ror r0
     ad0:	00000000 	andeq	r0, r0, r0
     ad4:	01e00000 	mvneq	r0, r0
     ad8:	01e20000 	mvneq	r0, r0
     adc:	00020000 	andeq	r0, r2, r0
     ae0:	01e2007d 	mvneq	r0, sp, ror r0
     ae4:	01e40000 	mvneq	r0, r0
     ae8:	00020000 	andeq	r0, r2, r0
     aec:	01e4087d 	mvneq	r0, sp, ror r8
     af0:	02140000 	andseq	r0, r4, #0
     af4:	00020000 	andeq	r0, r2, r0
     af8:	00000877 	andeq	r0, r0, r7, ror r8
     afc:	00000000 	andeq	r0, r0, r0
     b00:	02140000 	andseq	r0, r4, #0
     b04:	02160000 	andseq	r0, r6, #0
     b08:	00020000 	andeq	r0, r2, r0
     b0c:	0216007d 	andseq	r0, r6, #125	; 0x7d
     b10:	02180000 	andseq	r0, r8, #0
     b14:	00020000 	andeq	r0, r2, r0
     b18:	0218087d 	andseq	r0, r8, #8192000	; 0x7d0000
     b1c:	021a0000 	andseq	r0, sl, #0
     b20:	00020000 	andeq	r0, r2, r0
     b24:	021a187d 	andseq	r1, sl, #8192000	; 0x7d0000
     b28:	02440000 	subeq	r0, r4, #0
     b2c:	00020000 	andeq	r0, r2, r0
     b30:	02441877 	subeq	r1, r4, #7798784	; 0x770000
     b34:	02460000 	subeq	r0, r6, #0
     b38:	00020000 	andeq	r0, r2, r0
     b3c:	02460877 	subeq	r0, r6, #7798784	; 0x770000
     b40:	024c0000 	subeq	r0, ip, #0
     b44:	00020000 	andeq	r0, r2, r0
     b48:	0000087d 	andeq	r0, r0, sp, ror r8
     b4c:	00000000 	andeq	r0, r0, r0
     b50:	024c0000 	subeq	r0, ip, #0
     b54:	024e0000 	subeq	r0, lr, #0
     b58:	00020000 	andeq	r0, r2, r0
     b5c:	024e007d 	subeq	r0, lr, #125	; 0x7d
     b60:	02500000 	subseq	r0, r0, #0
     b64:	00020000 	andeq	r0, r2, r0
     b68:	0250087d 	subseq	r0, r0, #8192000	; 0x7d0000
     b6c:	02520000 	subseq	r0, r2, #0
     b70:	00020000 	andeq	r0, r2, r0
     b74:	0252107d 	subseq	r1, r2, #125	; 0x7d
     b78:	02640000 	rsbeq	r0, r4, #0
     b7c:	00020000 	andeq	r0, r2, r0
     b80:	02641077 	rsbeq	r1, r4, #119	; 0x77
     b84:	02660000 	rsbeq	r0, r6, #0
     b88:	00020000 	andeq	r0, r2, r0
     b8c:	02660877 	rsbeq	r0, r6, #7798784	; 0x770000
     b90:	02680000 	rsbeq	r0, r8, #0
     b94:	00020000 	andeq	r0, r2, r0
     b98:	0000087d 	andeq	r0, r0, sp, ror r8
     b9c:	00000000 	andeq	r0, r0, r0
     ba0:	02680000 	rsbeq	r0, r8, #0
     ba4:	026a0000 	rsbeq	r0, sl, #0
     ba8:	00020000 	andeq	r0, r2, r0
     bac:	026a007d 	rsbeq	r0, sl, #125	; 0x7d
     bb0:	026c0000 	rsbeq	r0, ip, #0
     bb4:	00020000 	andeq	r0, r2, r0
     bb8:	026c087d 	rsbeq	r0, ip, #8192000	; 0x7d0000
     bbc:	026e0000 	rsbeq	r0, lr, #0
     bc0:	00020000 	andeq	r0, r2, r0
     bc4:	026e187d 	rsbeq	r1, lr, #8192000	; 0x7d0000
     bc8:	034a0000 	movteq	r0, #40960	; 0xa000
     bcc:	00020000 	andeq	r0, r2, r0
     bd0:	034a1877 	movteq	r1, #43127	; 0xa877
     bd4:	034c0000 	movteq	r0, #49152	; 0xc000
     bd8:	00020000 	andeq	r0, r2, r0
     bdc:	034c0877 	movteq	r0, #51319	; 0xc877
     be0:	035c0000 	cmpeq	ip, #0
     be4:	00020000 	andeq	r0, r2, r0
     be8:	0000087d 	andeq	r0, r0, sp, ror r8
     bec:	00000000 	andeq	r0, r0, r0
     bf0:	035c0000 	cmpeq	ip, #0
     bf4:	035e0000 	cmpeq	lr, #0
     bf8:	00020000 	andeq	r0, r2, r0
     bfc:	035e007d 	cmpeq	lr, #125	; 0x7d
     c00:	03600000 	cmneq	r0, #0
     c04:	00020000 	andeq	r0, r2, r0
     c08:	0360087d 	cmneq	r0, #8192000	; 0x7d0000
     c0c:	03620000 	cmneq	r2, #0
     c10:	00020000 	andeq	r0, r2, r0
     c14:	0362187d 	cmneq	r2, #8192000	; 0x7d0000
     c18:	03b60000 			; <UNDEFINED> instruction: 0x03b60000
     c1c:	00020000 	andeq	r0, r2, r0
     c20:	03b61077 			; <UNDEFINED> instruction: 0x03b61077
     c24:	03b80000 			; <UNDEFINED> instruction: 0x03b80000
     c28:	00020000 	andeq	r0, r2, r0
     c2c:	03b80877 			; <UNDEFINED> instruction: 0x03b80877
     c30:	03dc0000 	bicseq	r0, ip, #0
     c34:	00020000 	andeq	r0, r2, r0
     c38:	0000087d 	andeq	r0, r0, sp, ror r8
     c3c:	00000000 	andeq	r0, r0, r0
     c40:	03dc0000 	bicseq	r0, ip, #0
     c44:	03de0000 	bicseq	r0, lr, #0
     c48:	00020000 	andeq	r0, r2, r0
     c4c:	03de007d 	bicseq	r0, lr, #125	; 0x7d
     c50:	03e00000 	mvneq	r0, #0
     c54:	00020000 	andeq	r0, r2, r0
     c58:	03e0087d 	mvneq	r0, #8192000	; 0x7d0000
     c5c:	03e20000 	mvneq	r0, #0
     c60:	00020000 	andeq	r0, r2, r0
     c64:	03e2107d 	mvneq	r1, #125	; 0x7d
     c68:	03f20000 	mvnseq	r0, #0
     c6c:	00020000 	andeq	r0, r2, r0
     c70:	03f21077 	mvnseq	r1, #119	; 0x77
     c74:	03f40000 	mvnseq	r0, #0
     c78:	00020000 	andeq	r0, r2, r0
     c7c:	03f40877 	mvnseq	r0, #7798784	; 0x770000
     c80:	03f60000 	mvnseq	r0, #0
     c84:	00020000 	andeq	r0, r2, r0
     c88:	0000087d 	andeq	r0, r0, sp, ror r8
     c8c:	00000000 	andeq	r0, r0, r0
     c90:	03f80000 	mvnseq	r0, #0
     c94:	03fa0000 	mvnseq	r0, #0
     c98:	00020000 	andeq	r0, r2, r0
     c9c:	03fa007d 	mvnseq	r0, #125	; 0x7d
     ca0:	03fc0000 	mvnseq	r0, #0
     ca4:	00020000 	andeq	r0, r2, r0
     ca8:	03fc087d 	mvnseq	r0, #8192000	; 0x7d0000
     cac:	03fe0000 	mvnseq	r0, #0
     cb0:	00020000 	andeq	r0, r2, r0
     cb4:	03fe107d 	mvnseq	r1, #125	; 0x7d
     cb8:	040c0000 	streq	r0, [ip], #-0
     cbc:	00020000 	andeq	r0, r2, r0
     cc0:	040c1077 	streq	r1, [ip], #-119	; 0xffffff89
     cc4:	040e0000 	streq	r0, [lr], #-0
     cc8:	00020000 	andeq	r0, r2, r0
     ccc:	040e0877 	streq	r0, [lr], #-2167	; 0xfffff789
     cd0:	04100000 	ldreq	r0, [r0], #-0
     cd4:	00020000 	andeq	r0, r2, r0
     cd8:	0000087d 	andeq	r0, r0, sp, ror r8
     cdc:	00000000 	andeq	r0, r0, r0
     ce0:	04100000 	ldreq	r0, [r0], #-0
     ce4:	04120000 	ldreq	r0, [r2], #-0
     ce8:	00020000 	andeq	r0, r2, r0
     cec:	0412007d 	ldreq	r0, [r2], #-125	; 0xffffff83
     cf0:	04140000 	ldreq	r0, [r4], #-0
     cf4:	00020000 	andeq	r0, r2, r0
     cf8:	0414087d 	ldreq	r0, [r4], #-2173	; 0xfffff783
     cfc:	04160000 	ldreq	r0, [r6], #-0
     d00:	00020000 	andeq	r0, r2, r0
     d04:	0416107d 	ldreq	r1, [r6], #-125	; 0xffffff83
     d08:	04380000 	ldrteq	r0, [r8], #-0
     d0c:	00020000 	andeq	r0, r2, r0
     d10:	04381077 	ldrteq	r1, [r8], #-119	; 0xffffff89
     d14:	043a0000 	ldrteq	r0, [sl], #-0
     d18:	00020000 	andeq	r0, r2, r0
     d1c:	043a0877 	ldrteq	r0, [sl], #-2167	; 0xfffff789
     d20:	04400000 	strbeq	r0, [r0], #-0
     d24:	00020000 	andeq	r0, r2, r0
     d28:	0000087d 	andeq	r0, r0, sp, ror r8
     d2c:	00000000 	andeq	r0, r0, r0
     d30:	04400000 	strbeq	r0, [r0], #-0
     d34:	04420000 	strbeq	r0, [r2], #-0
     d38:	00020000 	andeq	r0, r2, r0
     d3c:	0442007d 	strbeq	r0, [r2], #-125	; 0xffffff83
     d40:	04440000 	strbeq	r0, [r4], #-0
     d44:	00020000 	andeq	r0, r2, r0
     d48:	0444087d 	strbeq	r0, [r4], #-2173	; 0xfffff783
     d4c:	04460000 	strbeq	r0, [r6], #-0
     d50:	00020000 	andeq	r0, r2, r0
     d54:	0446107d 	strbeq	r1, [r6], #-125	; 0xffffff83
     d58:	04740000 	ldrbteq	r0, [r4], #-0
     d5c:	00020000 	andeq	r0, r2, r0
     d60:	04741077 	ldrbteq	r1, [r4], #-119	; 0xffffff89
     d64:	04760000 	ldrbteq	r0, [r6], #-0
     d68:	00020000 	andeq	r0, r2, r0
     d6c:	04760877 	ldrbteq	r0, [r6], #-2167	; 0xfffff789
     d70:	047c0000 	ldrbteq	r0, [ip], #-0
     d74:	00020000 	andeq	r0, r2, r0
     d78:	0000087d 	andeq	r0, r0, sp, ror r8
     d7c:	00000000 	andeq	r0, r0, r0
     d80:	047c0000 	ldrbteq	r0, [ip], #-0
     d84:	047e0000 	ldrbteq	r0, [lr], #-0
     d88:	00020000 	andeq	r0, r2, r0
     d8c:	047e007d 	ldrbteq	r0, [lr], #-125	; 0xffffff83
     d90:	04800000 	streq	r0, [r0], #0
     d94:	00020000 	andeq	r0, r2, r0
     d98:	0480087d 	streq	r0, [r0], #2173	; 0x87d
     d9c:	04820000 	streq	r0, [r2], #0
     da0:	00020000 	andeq	r0, r2, r0
     da4:	0482107d 	streq	r1, [r2], #125	; 0x7d
     da8:	04a80000 	strteq	r0, [r8], #0
     dac:	00020000 	andeq	r0, r2, r0
     db0:	04a81077 	strteq	r1, [r8], #119	; 0x77
     db4:	04aa0000 	strteq	r0, [sl], #0
     db8:	00020000 	andeq	r0, r2, r0
     dbc:	04aa0877 	strteq	r0, [sl], #2167	; 0x877
     dc0:	04b40000 	ldrteq	r0, [r4], #0
     dc4:	00020000 	andeq	r0, r2, r0
     dc8:	0000087d 	andeq	r0, r0, sp, ror r8
     dcc:	00000000 	andeq	r0, r0, r0
     dd0:	04b40000 	ldrteq	r0, [r4], #0
     dd4:	04b60000 	ldrteq	r0, [r6], #0
     dd8:	00020000 	andeq	r0, r2, r0
     ddc:	04b6007d 	ldrteq	r0, [r6], #125	; 0x7d
     de0:	04b80000 	ldrteq	r0, [r8], #0
     de4:	00020000 	andeq	r0, r2, r0
     de8:	04b8087d 	ldrteq	r0, [r8], #2173	; 0x87d
     dec:	04ba0000 	ldrteq	r0, [sl], #0
     df0:	00020000 	andeq	r0, r2, r0
     df4:	04ba107d 	ldrteq	r1, [sl], #125	; 0x7d
     df8:	04e60000 	strbteq	r0, [r6], #0
     dfc:	00020000 	andeq	r0, r2, r0
     e00:	04e61077 	strbteq	r1, [r6], #119	; 0x77
     e04:	04e80000 	strbteq	r0, [r8], #0
     e08:	00020000 	andeq	r0, r2, r0
     e0c:	04e80877 	strbteq	r0, [r8], #2167	; 0x877
     e10:	04f40000 	ldrbteq	r0, [r4], #0
     e14:	00020000 	andeq	r0, r2, r0
     e18:	0000087d 	andeq	r0, r0, sp, ror r8
     e1c:	00000000 	andeq	r0, r0, r0
     e20:	04f40000 	ldrbteq	r0, [r4], #0
     e24:	04f60000 	ldrbteq	r0, [r6], #0
     e28:	00020000 	andeq	r0, r2, r0
     e2c:	04f6007d 	ldrbteq	r0, [r6], #125	; 0x7d
     e30:	04f80000 	ldrbteq	r0, [r8], #0
     e34:	00020000 	andeq	r0, r2, r0
     e38:	04f8087d 	ldrbteq	r0, [r8], #2173	; 0x87d
     e3c:	04fa0000 	ldrbteq	r0, [sl], #0
     e40:	00020000 	andeq	r0, r2, r0
     e44:	04fa107d 	ldrbteq	r1, [sl], #125	; 0x7d
     e48:	05420000 	strbeq	r0, [r2, #-0]
     e4c:	00020000 	andeq	r0, r2, r0
     e50:	05421077 	strbeq	r1, [r2, #-119]	; 0xffffff89
     e54:	05440000 	strbeq	r0, [r4, #-0]
     e58:	00020000 	andeq	r0, r2, r0
     e5c:	05440877 	strbeq	r0, [r4, #-2167]	; 0xfffff789
     e60:	05500000 	ldrbeq	r0, [r0, #-0]
     e64:	00020000 	andeq	r0, r2, r0
     e68:	0000087d 	andeq	r0, r0, sp, ror r8
     e6c:	00000000 	andeq	r0, r0, r0
     e70:	05500000 	ldrbeq	r0, [r0, #-0]
     e74:	05520000 	ldrbeq	r0, [r2, #-0]
     e78:	00020000 	andeq	r0, r2, r0
     e7c:	0552007d 	ldrbeq	r0, [r2, #-125]	; 0xffffff83
     e80:	05540000 	ldrbeq	r0, [r4, #-0]
     e84:	00020000 	andeq	r0, r2, r0
     e88:	0554087d 	ldrbeq	r0, [r4, #-2173]	; 0xfffff783
     e8c:	05560000 	ldrbeq	r0, [r6, #-0]
     e90:	00020000 	andeq	r0, r2, r0
     e94:	0556107d 	ldrbeq	r1, [r6, #-125]	; 0xffffff83
     e98:	057a0000 	ldrbeq	r0, [sl, #-0]!
     e9c:	00020000 	andeq	r0, r2, r0
     ea0:	057a1077 	ldrbeq	r1, [sl, #-119]!	; 0xffffff89
     ea4:	057c0000 	ldrbeq	r0, [ip, #-0]!
     ea8:	00020000 	andeq	r0, r2, r0
     eac:	057c0877 	ldrbeq	r0, [ip, #-2167]!	; 0xfffff789
     eb0:	05840000 	streq	r0, [r4]
     eb4:	00020000 	andeq	r0, r2, r0
     eb8:	0000087d 	andeq	r0, r0, sp, ror r8
     ebc:	00000000 	andeq	r0, r0, r0
     ec0:	05840000 	streq	r0, [r4]
     ec4:	05860000 	streq	r0, [r6]
     ec8:	00020000 	andeq	r0, r2, r0
     ecc:	0586007d 	streq	r0, [r6, #125]	; 0x7d
     ed0:	05880000 	streq	r0, [r8]
     ed4:	00020000 	andeq	r0, r2, r0
     ed8:	0588087d 	streq	r0, [r8, #2173]	; 0x87d
     edc:	058a0000 	streq	r0, [sl]
     ee0:	00020000 	andeq	r0, r2, r0
     ee4:	058a107d 	streq	r1, [sl, #125]	; 0x7d
     ee8:	05a60000 	streq	r0, [r6, #0]!
     eec:	00020000 	andeq	r0, r2, r0
     ef0:	05a61077 	streq	r1, [r6, #119]!	; 0x77
     ef4:	05a80000 	streq	r0, [r8, #0]!
     ef8:	00020000 	andeq	r0, r2, r0
     efc:	05a80877 	streq	r0, [r8, #2167]!	; 0x877
     f00:	05b00000 	ldreq	r0, [r0, #0]!
     f04:	00020000 	andeq	r0, r2, r0
     f08:	0000087d 	andeq	r0, r0, sp, ror r8
     f0c:	00000000 	andeq	r0, r0, r0
     f10:	05b00000 	ldreq	r0, [r0, #0]!
     f14:	05b20000 	ldreq	r0, [r2, #0]!
     f18:	00020000 	andeq	r0, r2, r0
     f1c:	05b2007d 	ldreq	r0, [r2, #125]!	; 0x7d
     f20:	05b40000 	ldreq	r0, [r4, #0]!
     f24:	00020000 	andeq	r0, r2, r0
     f28:	05b4087d 	ldreq	r0, [r4, #2173]!	; 0x87d
     f2c:	05b60000 	ldreq	r0, [r6, #0]!
     f30:	00020000 	andeq	r0, r2, r0
     f34:	05b6187d 	ldreq	r1, [r6, #2173]!	; 0x87d
     f38:	06000000 	streq	r0, [r0], -r0
     f3c:	00020000 	andeq	r0, r2, r0
     f40:	06001877 			; <UNDEFINED> instruction: 0x06001877
     f44:	06020000 	streq	r0, [r2], -r0
     f48:	00020000 	andeq	r0, r2, r0
     f4c:	06020877 			; <UNDEFINED> instruction: 0x06020877
     f50:	06080000 	streq	r0, [r8], -r0
     f54:	00020000 	andeq	r0, r2, r0
     f58:	0000087d 	andeq	r0, r0, sp, ror r8
     f5c:	00000000 	andeq	r0, r0, r0
     f60:	06080000 	streq	r0, [r8], -r0
     f64:	060a0000 	streq	r0, [sl], -r0
     f68:	00020000 	andeq	r0, r2, r0
     f6c:	060a007d 			; <UNDEFINED> instruction: 0x060a007d
     f70:	060c0000 	streq	r0, [ip], -r0
     f74:	00020000 	andeq	r0, r2, r0
     f78:	060c087d 			; <UNDEFINED> instruction: 0x060c087d
     f7c:	060e0000 	streq	r0, [lr], -r0
     f80:	00020000 	andeq	r0, r2, r0
     f84:	060e187d 			; <UNDEFINED> instruction: 0x060e187d
     f88:	06520000 	ldrbeq	r0, [r2], -r0
     f8c:	00020000 	andeq	r0, r2, r0
     f90:	06521877 			; <UNDEFINED> instruction: 0x06521877
     f94:	06540000 	ldrbeq	r0, [r4], -r0
     f98:	00020000 	andeq	r0, r2, r0
     f9c:	06540877 			; <UNDEFINED> instruction: 0x06540877
     fa0:	06560000 	ldrbeq	r0, [r6], -r0
     fa4:	00020000 	andeq	r0, r2, r0
     fa8:	0000087d 	andeq	r0, r0, sp, ror r8
     fac:	00000000 	andeq	r0, r0, r0
     fb0:	06580000 	ldrbeq	r0, [r8], -r0
     fb4:	065a0000 	ldrbeq	r0, [sl], -r0
     fb8:	00020000 	andeq	r0, r2, r0
     fbc:	065a007d 			; <UNDEFINED> instruction: 0x065a007d
     fc0:	065c0000 	ldrbeq	r0, [ip], -r0
     fc4:	00020000 	andeq	r0, r2, r0
     fc8:	065c087d 			; <UNDEFINED> instruction: 0x065c087d
     fcc:	065e0000 	ldrbeq	r0, [lr], -r0
     fd0:	00020000 	andeq	r0, r2, r0
     fd4:	065e107d 			; <UNDEFINED> instruction: 0x065e107d
     fd8:	06a60000 	strteq	r0, [r6], r0
     fdc:	00020000 	andeq	r0, r2, r0
     fe0:	06a61077 	sxtabeq	r1, r6, r7
     fe4:	06a80000 	strteq	r0, [r8], r0
     fe8:	00020000 	andeq	r0, r2, r0
     fec:	06a80877 	sxtabeq	r0, r8, r7, ror #16
     ff0:	06b40000 	ldrteq	r0, [r4], r0
     ff4:	00020000 	andeq	r0, r2, r0
     ff8:	0000087d 	andeq	r0, r0, sp, ror r8
     ffc:	00000000 	andeq	r0, r0, r0
    1000:	06b40000 	ldrteq	r0, [r4], r0
    1004:	06b60000 	ldrteq	r0, [r6], r0
    1008:	00020000 	andeq	r0, r2, r0
    100c:	06b6007d 	sxtaheq	r0, r6, sp
    1010:	06b80000 	ldrteq	r0, [r8], r0
    1014:	00020000 	andeq	r0, r2, r0
    1018:	06b8087d 	sxtaheq	r0, r8, sp, ror #16
    101c:	06ba0000 	ldrteq	r0, [sl], r0
    1020:	00020000 	andeq	r0, r2, r0
    1024:	06ba107d 	sxtaheq	r1, sl, sp
    1028:	06ca0000 	strbeq	r0, [sl], r0
    102c:	00020000 	andeq	r0, r2, r0
    1030:	06ca1077 	uxtab16eq	r1, sl, r7
    1034:	06cc0000 	strbeq	r0, [ip], r0
    1038:	00020000 	andeq	r0, r2, r0
    103c:	06cc0877 	uxtab16eq	r0, ip, r7, ror #16
    1040:	06d40000 	ldrbeq	r0, [r4], r0
    1044:	00020000 	andeq	r0, r2, r0
    1048:	0000087d 	andeq	r0, r0, sp, ror r8
    104c:	00000000 	andeq	r0, r0, r0
    1050:	06d40000 	ldrbeq	r0, [r4], r0
    1054:	06d60000 	ldrbeq	r0, [r6], r0
    1058:	00020000 	andeq	r0, r2, r0
    105c:	06d6007d 			; <UNDEFINED> instruction: 0x06d6007d
    1060:	06d80000 	ldrbeq	r0, [r8], r0
    1064:	00020000 	andeq	r0, r2, r0
    1068:	06d8047d 			; <UNDEFINED> instruction: 0x06d8047d
    106c:	06da0000 	ldrbeq	r0, [sl], r0
    1070:	00020000 	andeq	r0, r2, r0
    1074:	06da187d 			; <UNDEFINED> instruction: 0x06da187d
    1078:	06ee0000 	strbteq	r0, [lr], r0
    107c:	00020000 	andeq	r0, r2, r0
    1080:	06ee1877 	uxtabeq	r1, lr, r7, ror #16
    1084:	06f00000 	ldrbteq	r0, [r0], r0
    1088:	00020000 	andeq	r0, r2, r0
    108c:	06f00477 	uxtaheq	r0, r0, r7, ror #8
    1090:	06f40000 	ldrbteq	r0, [r4], r0
    1094:	00020000 	andeq	r0, r2, r0
    1098:	06f4047d 	uxtaheq	r0, r4, sp, ror #8
    109c:	06f60000 	ldrbteq	r0, [r6], r0
    10a0:	00020000 	andeq	r0, r2, r0
    10a4:	0000007d 	andeq	r0, r0, sp, ror r0
    10a8:	00000000 	andeq	r0, r0, r0
    10ac:	06f80000 	ldrbteq	r0, [r8], r0
    10b0:	06fa0000 	ldrbteq	r0, [sl], r0
    10b4:	00020000 	andeq	r0, r2, r0
    10b8:	06fa007d 	uxtaheq	r0, sl, sp
    10bc:	06fc0000 	ldrbteq	r0, [ip], r0
    10c0:	00020000 	andeq	r0, r2, r0
    10c4:	06fc087d 	uxtaheq	r0, ip, sp, ror #16
    10c8:	06fe0000 	ldrbteq	r0, [lr], r0
    10cc:	00020000 	andeq	r0, r2, r0
    10d0:	06fe187d 	uxtaheq	r1, lr, sp, ror #16
    10d4:	07560000 	ldrbeq	r0, [r6, -r0]
    10d8:	00020000 	andeq	r0, r2, r0
    10dc:	07561877 			; <UNDEFINED> instruction: 0x07561877
    10e0:	07580000 	ldrbeq	r0, [r8, -r0]
    10e4:	00020000 	andeq	r0, r2, r0
    10e8:	07580877 			; <UNDEFINED> instruction: 0x07580877
    10ec:	07600000 	strbeq	r0, [r0, -r0]!
    10f0:	00020000 	andeq	r0, r2, r0
    10f4:	0000087d 	andeq	r0, r0, sp, ror r8
    10f8:	00000000 	andeq	r0, r0, r0
    10fc:	07600000 	strbeq	r0, [r0, -r0]!
    1100:	07620000 	strbeq	r0, [r2, -r0]!
    1104:	00020000 	andeq	r0, r2, r0
    1108:	0762007d 			; <UNDEFINED> instruction: 0x0762007d
    110c:	07640000 	strbeq	r0, [r4, -r0]!
    1110:	00020000 	andeq	r0, r2, r0
    1114:	0764087d 			; <UNDEFINED> instruction: 0x0764087d
    1118:	07660000 	strbeq	r0, [r6, -r0]!
    111c:	00020000 	andeq	r0, r2, r0
    1120:	0766187d 			; <UNDEFINED> instruction: 0x0766187d
    1124:	077e0000 	ldrbeq	r0, [lr, -r0]!
    1128:	00020000 	andeq	r0, r2, r0
    112c:	077e1877 			; <UNDEFINED> instruction: 0x077e1877
    1130:	07800000 	streq	r0, [r0, r0]
    1134:	00020000 	andeq	r0, r2, r0
    1138:	07800877 			; <UNDEFINED> instruction: 0x07800877
    113c:	07820000 	streq	r0, [r2, r0]
    1140:	00020000 	andeq	r0, r2, r0
    1144:	0000087d 	andeq	r0, r0, sp, ror r8
    1148:	00000000 	andeq	r0, r0, r0
    114c:	07840000 	streq	r0, [r4, r0]
    1150:	07860000 	streq	r0, [r6, r0]
    1154:	00020000 	andeq	r0, r2, r0
    1158:	0786007d 			; <UNDEFINED> instruction: 0x0786007d
    115c:	07880000 	streq	r0, [r8, r0]
    1160:	00020000 	andeq	r0, r2, r0
    1164:	0788087d 			; <UNDEFINED> instruction: 0x0788087d
    1168:	078a0000 	streq	r0, [sl, r0]
    116c:	00020000 	andeq	r0, r2, r0
    1170:	078a107d 			; <UNDEFINED> instruction: 0x078a107d
    1174:	07a60000 	streq	r0, [r6, r0]!
    1178:	00020000 	andeq	r0, r2, r0
    117c:	07a61077 			; <UNDEFINED> instruction: 0x07a61077
    1180:	07a80000 	streq	r0, [r8, r0]!
    1184:	00020000 	andeq	r0, r2, r0
    1188:	07a80877 			; <UNDEFINED> instruction: 0x07a80877
    118c:	07b00000 	ldreq	r0, [r0, r0]!
    1190:	00020000 	andeq	r0, r2, r0
    1194:	0000087d 	andeq	r0, r0, sp, ror r8
    1198:	00000000 	andeq	r0, r0, r0
    119c:	07b00000 	ldreq	r0, [r0, r0]!
    11a0:	07b20000 	ldreq	r0, [r2, r0]!
    11a4:	00020000 	andeq	r0, r2, r0
    11a8:	07b2007d 			; <UNDEFINED> instruction: 0x07b2007d
    11ac:	07b40000 	ldreq	r0, [r4, r0]!
    11b0:	00020000 	andeq	r0, r2, r0
    11b4:	07b4087d 			; <UNDEFINED> instruction: 0x07b4087d
    11b8:	07b60000 	ldreq	r0, [r6, r0]!
    11bc:	00020000 	andeq	r0, r2, r0
    11c0:	07b6107d 			; <UNDEFINED> instruction: 0x07b6107d
    11c4:	07f00000 	ldrbeq	r0, [r0, r0]!
    11c8:	00020000 	andeq	r0, r2, r0
    11cc:	07f01077 			; <UNDEFINED> instruction: 0x07f01077
    11d0:	07f20000 	ldrbeq	r0, [r2, r0]!
    11d4:	00020000 	andeq	r0, r2, r0
    11d8:	07f20877 			; <UNDEFINED> instruction: 0x07f20877
    11dc:	07f80000 	ldrbeq	r0, [r8, r0]!
    11e0:	00020000 	andeq	r0, r2, r0
    11e4:	0000087d 	andeq	r0, r0, sp, ror r8
    11e8:	00000000 	andeq	r0, r0, r0
    11ec:	07f80000 	ldrbeq	r0, [r8, r0]!
    11f0:	07fa0000 	ldrbeq	r0, [sl, r0]!
    11f4:	00020000 	andeq	r0, r2, r0
    11f8:	07fa007d 			; <UNDEFINED> instruction: 0x07fa007d
    11fc:	07fc0000 	ldrbeq	r0, [ip, r0]!
    1200:	00020000 	andeq	r0, r2, r0
    1204:	07fc087d 			; <UNDEFINED> instruction: 0x07fc087d
    1208:	07fe0000 	ldrbeq	r0, [lr, r0]!
    120c:	00020000 	andeq	r0, r2, r0
    1210:	07fe187d 			; <UNDEFINED> instruction: 0x07fe187d
    1214:	08380000 	ldmdaeq	r8!, {}	; <UNPREDICTABLE>
    1218:	00020000 	andeq	r0, r2, r0
    121c:	08381877 	ldmdaeq	r8!, {r0, r1, r2, r4, r5, r6, fp, ip}
    1220:	083a0000 	ldmdaeq	sl!, {}	; <UNPREDICTABLE>
    1224:	00020000 	andeq	r0, r2, r0
    1228:	083a0877 	ldmdaeq	sl!, {r0, r1, r2, r4, r5, r6, fp}
    122c:	083c0000 	ldmdaeq	ip!, {}	; <UNPREDICTABLE>
    1230:	00020000 	andeq	r0, r2, r0
    1234:	0000087d 	andeq	r0, r0, sp, ror r8
    1238:	00000000 	andeq	r0, r0, r0
    123c:	083c0000 	ldmdaeq	ip!, {}	; <UNPREDICTABLE>
    1240:	083e0000 	ldmdaeq	lr!, {}	; <UNPREDICTABLE>
    1244:	00020000 	andeq	r0, r2, r0
    1248:	083e007d 	ldmdaeq	lr!, {r0, r2, r3, r4, r5, r6}
    124c:	08400000 	stmdaeq	r0, {}^	; <UNPREDICTABLE>
    1250:	00020000 	andeq	r0, r2, r0
    1254:	0840087d 	stmdaeq	r0, {r0, r2, r3, r4, r5, r6, fp}^
    1258:	08420000 	stmdaeq	r2, {}^	; <UNPREDICTABLE>
    125c:	00020000 	andeq	r0, r2, r0
    1260:	0842107d 	stmdaeq	r2, {r0, r2, r3, r4, r5, r6, ip}^
    1264:	087c0000 	ldmdaeq	ip!, {}^	; <UNPREDICTABLE>
    1268:	00020000 	andeq	r0, r2, r0
    126c:	087c1077 	ldmdaeq	ip!, {r0, r1, r2, r4, r5, r6, ip}^
    1270:	087e0000 	ldmdaeq	lr!, {}^	; <UNPREDICTABLE>
    1274:	00020000 	andeq	r0, r2, r0
    1278:	087e0877 	ldmdaeq	lr!, {r0, r1, r2, r4, r5, r6, fp}^
    127c:	08940000 	ldmeq	r4, {}	; <UNPREDICTABLE>
    1280:	00020000 	andeq	r0, r2, r0
    1284:	0000087d 	andeq	r0, r0, sp, ror r8
	...
    1290:	00020000 	andeq	r0, r2, r0
    1294:	00020000 	andeq	r0, r2, r0
    1298:	0002007d 	andeq	r0, r2, sp, ror r0
    129c:	00040000 	andeq	r0, r4, r0
    12a0:	00020000 	andeq	r0, r2, r0
    12a4:	0004047d 	andeq	r0, r4, sp, ror r4
    12a8:	00060000 	andeq	r0, r6, r0
    12ac:	00020000 	andeq	r0, r2, r0
    12b0:	0006107d 	andeq	r1, r6, sp, ror r0
    12b4:	00100000 	andseq	r0, r0, r0
    12b8:	00020000 	andeq	r0, r2, r0
    12bc:	00101077 	andseq	r1, r0, r7, ror r0
    12c0:	00120000 	andseq	r0, r2, r0
    12c4:	00020000 	andeq	r0, r2, r0
    12c8:	00120477 	andseq	r0, r2, r7, ror r4
    12cc:	00160000 	andseq	r0, r6, r0
    12d0:	00020000 	andeq	r0, r2, r0
    12d4:	0016047d 	andseq	r0, r6, sp, ror r4
    12d8:	00180000 	andseq	r0, r8, r0
    12dc:	00020000 	andeq	r0, r2, r0
    12e0:	0000007d 	andeq	r0, r0, sp, ror r0
    12e4:	00000000 	andeq	r0, r0, r0
    12e8:	00180000 	andseq	r0, r8, r0
    12ec:	001a0000 	andseq	r0, sl, r0
    12f0:	00020000 	andeq	r0, r2, r0
    12f4:	001a007d 	andseq	r0, sl, sp, ror r0
    12f8:	001c0000 	andseq	r0, ip, r0
    12fc:	00020000 	andeq	r0, r2, r0
    1300:	001c047d 	andseq	r0, ip, sp, ror r4
    1304:	00220000 	eoreq	r0, r2, r0
    1308:	00020000 	andeq	r0, r2, r0
    130c:	00220477 	eoreq	r0, r2, r7, ror r4
    1310:	00260000 	eoreq	r0, r6, r0
    1314:	00020000 	andeq	r0, r2, r0
    1318:	0026047d 	eoreq	r0, r6, sp, ror r4
    131c:	00280000 	eoreq	r0, r8, r0
    1320:	00020000 	andeq	r0, r2, r0
    1324:	0000007d 	andeq	r0, r0, sp, ror r0
    1328:	00000000 	andeq	r0, r0, r0
    132c:	00280000 	eoreq	r0, r8, r0
    1330:	002a0000 	eoreq	r0, sl, r0
    1334:	00020000 	andeq	r0, r2, r0
    1338:	002a007d 	eoreq	r0, sl, sp, ror r0
    133c:	002c0000 	eoreq	r0, ip, r0
    1340:	00020000 	andeq	r0, r2, r0
    1344:	002c047d 	eoreq	r0, ip, sp, ror r4
    1348:	002e0000 	eoreq	r0, lr, r0
    134c:	00020000 	andeq	r0, r2, r0
    1350:	002e107d 	eoreq	r1, lr, sp, ror r0
    1354:	00460000 	subeq	r0, r6, r0
    1358:	00020000 	andeq	r0, r2, r0
    135c:	00461077 	subeq	r1, r6, r7, ror r0
    1360:	00480000 	subeq	r0, r8, r0
    1364:	00020000 	andeq	r0, r2, r0
    1368:	00480477 	subeq	r0, r8, r7, ror r4
    136c:	004c0000 	subeq	r0, ip, r0
    1370:	00020000 	andeq	r0, r2, r0
    1374:	004c047d 	subeq	r0, ip, sp, ror r4
    1378:	004e0000 	subeq	r0, lr, r0
    137c:	00020000 	andeq	r0, r2, r0
    1380:	0000007d 	andeq	r0, r0, sp, ror r0
    1384:	00000000 	andeq	r0, r0, r0
    1388:	00500000 	subseq	r0, r0, r0
    138c:	00520000 	subseq	r0, r2, r0
    1390:	00020000 	andeq	r0, r2, r0
    1394:	0052007d 	subseq	r0, r2, sp, ror r0
    1398:	00540000 	subseq	r0, r4, r0
    139c:	00020000 	andeq	r0, r2, r0
    13a0:	0054047d 	subseq	r0, r4, sp, ror r4
    13a4:	00560000 	subseq	r0, r6, r0
    13a8:	00020000 	andeq	r0, r2, r0
    13ac:	0056107d 	subseq	r1, r6, sp, ror r0
    13b0:	00700000 	rsbseq	r0, r0, r0
    13b4:	00020000 	andeq	r0, r2, r0
    13b8:	00701077 	rsbseq	r1, r0, r7, ror r0
    13bc:	00720000 	rsbseq	r0, r2, r0
    13c0:	00020000 	andeq	r0, r2, r0
    13c4:	00720477 	rsbseq	r0, r2, r7, ror r4
    13c8:	00760000 	rsbseq	r0, r6, r0
    13cc:	00020000 	andeq	r0, r2, r0
    13d0:	0076047d 	rsbseq	r0, r6, sp, ror r4
    13d4:	00780000 	rsbseq	r0, r8, r0
    13d8:	00020000 	andeq	r0, r2, r0
    13dc:	0000007d 	andeq	r0, r0, sp, ror r0
    13e0:	00000000 	andeq	r0, r0, r0
    13e4:	00780000 	rsbseq	r0, r8, r0
    13e8:	007a0000 	rsbseq	r0, sl, r0
    13ec:	00020000 	andeq	r0, r2, r0
    13f0:	007a007d 	rsbseq	r0, sl, sp, ror r0
    13f4:	007c0000 	rsbseq	r0, ip, r0
    13f8:	00020000 	andeq	r0, r2, r0
    13fc:	007c087d 	rsbseq	r0, ip, sp, ror r8
    1400:	007e0000 	rsbseq	r0, lr, r0
    1404:	00020000 	andeq	r0, r2, r0
    1408:	007e187d 	rsbseq	r1, lr, sp, ror r8
    140c:	01000000 	mrseq	r0, (UNDEF: 0)
    1410:	00020000 	andeq	r0, r2, r0
    1414:	01001877 	tsteq	r0, r7, ror r8
    1418:	01020000 	mrseq	r0, (UNDEF: 2)
    141c:	00020000 	andeq	r0, r2, r0
    1420:	01020877 	tsteq	r2, r7, ror r8
    1424:	01080000 	mrseq	r0, (UNDEF: 8)
    1428:	00020000 	andeq	r0, r2, r0
    142c:	0000087d 	andeq	r0, r0, sp, ror r8
    1430:	00000000 	andeq	r0, r0, r0
    1434:	01080000 	mrseq	r0, (UNDEF: 8)
    1438:	010a0000 	mrseq	r0, (UNDEF: 10)
    143c:	00020000 	andeq	r0, r2, r0
    1440:	010a007d 	tsteq	sl, sp, ror r0
    1444:	010c0000 	mrseq	r0, (UNDEF: 12)
    1448:	00020000 	andeq	r0, r2, r0
    144c:	010c047d 	tsteq	ip, sp, ror r4
    1450:	010e0000 	mrseq	r0, (UNDEF: 14)
    1454:	00020000 	andeq	r0, r2, r0
    1458:	010e107d 	tsteq	lr, sp, ror r0
    145c:	01240000 			; <UNDEFINED> instruction: 0x01240000
    1460:	00020000 	andeq	r0, r2, r0
    1464:	01241077 			; <UNDEFINED> instruction: 0x01241077
    1468:	01260000 			; <UNDEFINED> instruction: 0x01260000
    146c:	00020000 	andeq	r0, r2, r0
    1470:	01260477 			; <UNDEFINED> instruction: 0x01260477
    1474:	012a0000 			; <UNDEFINED> instruction: 0x012a0000
    1478:	00020000 	andeq	r0, r2, r0
    147c:	012a047d 			; <UNDEFINED> instruction: 0x012a047d
    1480:	012c0000 			; <UNDEFINED> instruction: 0x012c0000
    1484:	00020000 	andeq	r0, r2, r0
    1488:	0000007d 	andeq	r0, r0, sp, ror r0
    148c:	00000000 	andeq	r0, r0, r0
    1490:	012c0000 			; <UNDEFINED> instruction: 0x012c0000
    1494:	012e0000 			; <UNDEFINED> instruction: 0x012e0000
    1498:	00020000 	andeq	r0, r2, r0
    149c:	012e007d 			; <UNDEFINED> instruction: 0x012e007d
    14a0:	01300000 	teqeq	r0, r0
    14a4:	00020000 	andeq	r0, r2, r0
    14a8:	0130087d 	teqeq	r0, sp, ror r8
    14ac:	01320000 	teqeq	r2, r0
    14b0:	00020000 	andeq	r0, r2, r0
    14b4:	0132107d 	teqeq	r2, sp, ror r0
    14b8:	014a0000 	mrseq	r0, (UNDEF: 74)
    14bc:	00020000 	andeq	r0, r2, r0
    14c0:	014a1077 	hvceq	41223	; 0xa107
    14c4:	014c0000 	mrseq	r0, (UNDEF: 76)
    14c8:	00020000 	andeq	r0, r2, r0
    14cc:	014c0877 	hvceq	49287	; 0xc087
    14d0:	014e0000 	mrseq	r0, (UNDEF: 78)
    14d4:	00020000 	andeq	r0, r2, r0
    14d8:	0000087d 	andeq	r0, r0, sp, ror r8
    14dc:	00000000 	andeq	r0, r0, r0
    14e0:	01500000 	cmpeq	r0, r0
    14e4:	01520000 	cmpeq	r2, r0
    14e8:	00020000 	andeq	r0, r2, r0
    14ec:	0152007d 	cmpeq	r2, sp, ror r0
    14f0:	01540000 	cmpeq	r4, r0
    14f4:	00020000 	andeq	r0, r2, r0
    14f8:	0154047d 	cmpeq	r4, sp, ror r4
    14fc:	01560000 	cmpeq	r6, r0
    1500:	00020000 	andeq	r0, r2, r0
    1504:	0156187d 	cmpeq	r6, sp, ror r8
    1508:	016e0000 	cmneq	lr, r0
    150c:	00020000 	andeq	r0, r2, r0
    1510:	016e1877 	smceq	57735	; 0xe187
    1514:	01700000 	cmneq	r0, r0
    1518:	00020000 	andeq	r0, r2, r0
    151c:	01700477 	cmneq	r0, r7, ror r4
    1520:	01740000 	cmneq	r4, r0
    1524:	00020000 	andeq	r0, r2, r0
    1528:	0174047d 	cmneq	r4, sp, ror r4
    152c:	01760000 	cmneq	r6, r0
    1530:	00020000 	andeq	r0, r2, r0
    1534:	0000007d 	andeq	r0, r0, sp, ror r0
    1538:	00000000 	andeq	r0, r0, r0
    153c:	01780000 	cmneq	r8, r0
    1540:	017a0000 	cmneq	sl, r0
    1544:	00020000 	andeq	r0, r2, r0
    1548:	017a007d 	cmneq	sl, sp, ror r0
    154c:	017c0000 	cmneq	ip, r0
    1550:	00020000 	andeq	r0, r2, r0
    1554:	017c047d 	cmneq	ip, sp, ror r4
    1558:	017e0000 	cmneq	lr, r0
    155c:	00020000 	andeq	r0, r2, r0
    1560:	017e187d 	cmneq	lr, sp, ror r8
    1564:	019c0000 	orrseq	r0, ip, r0
    1568:	00020000 	andeq	r0, r2, r0
    156c:	019c1877 	orrseq	r1, ip, r7, ror r8
    1570:	019e0000 	orrseq	r0, lr, r0
    1574:	00020000 	andeq	r0, r2, r0
    1578:	019e0477 	orrseq	r0, lr, r7, ror r4
    157c:	01a20000 			; <UNDEFINED> instruction: 0x01a20000
    1580:	00020000 	andeq	r0, r2, r0
    1584:	01a2047d 			; <UNDEFINED> instruction: 0x01a2047d
    1588:	01a40000 			; <UNDEFINED> instruction: 0x01a40000
    158c:	00020000 	andeq	r0, r2, r0
    1590:	0000007d 	andeq	r0, r0, sp, ror r0
    1594:	00000000 	andeq	r0, r0, r0
    1598:	01a40000 			; <UNDEFINED> instruction: 0x01a40000
    159c:	01a60000 			; <UNDEFINED> instruction: 0x01a60000
    15a0:	00020000 	andeq	r0, r2, r0
    15a4:	01a6007d 			; <UNDEFINED> instruction: 0x01a6007d
    15a8:	01a80000 			; <UNDEFINED> instruction: 0x01a80000
    15ac:	00020000 	andeq	r0, r2, r0
    15b0:	01a8047d 			; <UNDEFINED> instruction: 0x01a8047d
    15b4:	01aa0000 			; <UNDEFINED> instruction: 0x01aa0000
    15b8:	00020000 	andeq	r0, r2, r0
    15bc:	01aa187d 			; <UNDEFINED> instruction: 0x01aa187d
    15c0:	01c80000 	biceq	r0, r8, r0
    15c4:	00020000 	andeq	r0, r2, r0
    15c8:	01c81877 	biceq	r1, r8, r7, ror r8
    15cc:	01ca0000 	biceq	r0, sl, r0
    15d0:	00020000 	andeq	r0, r2, r0
    15d4:	01ca0477 	biceq	r0, sl, r7, ror r4
    15d8:	01ce0000 	biceq	r0, lr, r0
    15dc:	00020000 	andeq	r0, r2, r0
    15e0:	01ce047d 	biceq	r0, lr, sp, ror r4
    15e4:	01d00000 	bicseq	r0, r0, r0
    15e8:	00020000 	andeq	r0, r2, r0
    15ec:	0000007d 	andeq	r0, r0, sp, ror r0
    15f0:	00000000 	andeq	r0, r0, r0
    15f4:	01d00000 	bicseq	r0, r0, r0
    15f8:	01d20000 	bicseq	r0, r2, r0
    15fc:	00020000 	andeq	r0, r2, r0
    1600:	01d2007d 	bicseq	r0, r2, sp, ror r0
    1604:	01d40000 	bicseq	r0, r4, r0
    1608:	00020000 	andeq	r0, r2, r0
    160c:	01d4047d 	bicseq	r0, r4, sp, ror r4
    1610:	01d60000 	bicseq	r0, r6, r0
    1614:	00020000 	andeq	r0, r2, r0
    1618:	01d6187d 	bicseq	r1, r6, sp, ror r8
    161c:	01ee0000 	mvneq	r0, r0
    1620:	00020000 	andeq	r0, r2, r0
    1624:	01ee1877 	mvneq	r1, r7, ror r8
    1628:	01f00000 	mvnseq	r0, r0
    162c:	00020000 	andeq	r0, r2, r0
    1630:	01f00477 	mvnseq	r0, r7, ror r4
    1634:	01f40000 	mvnseq	r0, r0
    1638:	00020000 	andeq	r0, r2, r0
    163c:	01f4047d 	mvnseq	r0, sp, ror r4
    1640:	01f60000 	mvnseq	r0, r0
    1644:	00020000 	andeq	r0, r2, r0
    1648:	0000007d 	andeq	r0, r0, sp, ror r0
    164c:	00000000 	andeq	r0, r0, r0
    1650:	01f80000 	mvnseq	r0, r0
    1654:	01fa0000 	mvnseq	r0, r0
    1658:	00020000 	andeq	r0, r2, r0
    165c:	01fa007d 	mvnseq	r0, sp, ror r0
    1660:	01fc0000 	mvnseq	r0, r0
    1664:	00020000 	andeq	r0, r2, r0
    1668:	01fc047d 	mvnseq	r0, sp, ror r4
    166c:	01fe0000 	mvnseq	r0, r0
    1670:	00020000 	andeq	r0, r2, r0
    1674:	01fe187d 	mvnseq	r1, sp, ror r8
    1678:	02160000 	andseq	r0, r6, #0
    167c:	00020000 	andeq	r0, r2, r0
    1680:	02161877 	andseq	r1, r6, #7798784	; 0x770000
    1684:	02180000 	andseq	r0, r8, #0
    1688:	00020000 	andeq	r0, r2, r0
    168c:	02180477 	andseq	r0, r8, #1996488704	; 0x77000000
    1690:	021c0000 	andseq	r0, ip, #0
    1694:	00020000 	andeq	r0, r2, r0
    1698:	021c047d 	andseq	r0, ip, #2097152000	; 0x7d000000
    169c:	021e0000 	andseq	r0, lr, #0
    16a0:	00020000 	andeq	r0, r2, r0
    16a4:	0000007d 	andeq	r0, r0, sp, ror r0
    16a8:	00000000 	andeq	r0, r0, r0
    16ac:	02200000 	eoreq	r0, r0, #0
    16b0:	02220000 	eoreq	r0, r2, #0
    16b4:	00020000 	andeq	r0, r2, r0
    16b8:	0222007d 	eoreq	r0, r2, #125	; 0x7d
    16bc:	02240000 	eoreq	r0, r4, #0
    16c0:	00020000 	andeq	r0, r2, r0
    16c4:	0224047d 	eoreq	r0, r4, #2097152000	; 0x7d000000
    16c8:	02260000 	eoreq	r0, r6, #0
    16cc:	00020000 	andeq	r0, r2, r0
    16d0:	0226207d 	eoreq	r2, r6, #125	; 0x7d
    16d4:	02860000 	addeq	r0, r6, #0
    16d8:	00020000 	andeq	r0, r2, r0
    16dc:	02862077 	addeq	r2, r6, #119	; 0x77
    16e0:	02880000 	addeq	r0, r8, #0
    16e4:	00020000 	andeq	r0, r2, r0
    16e8:	02880477 	addeq	r0, r8, #1996488704	; 0x77000000
    16ec:	028c0000 	addeq	r0, ip, #0
    16f0:	00020000 	andeq	r0, r2, r0
    16f4:	028c047d 	addeq	r0, ip, #2097152000	; 0x7d000000
    16f8:	028e0000 	addeq	r0, lr, #0
    16fc:	00020000 	andeq	r0, r2, r0
    1700:	0000007d 	andeq	r0, r0, sp, ror r0
    1704:	00000000 	andeq	r0, r0, r0
    1708:	02900000 	addseq	r0, r0, #0
    170c:	02920000 	addseq	r0, r2, #0
    1710:	00020000 	andeq	r0, r2, r0
    1714:	0292007d 	addseq	r0, r2, #125	; 0x7d
    1718:	02940000 	addseq	r0, r4, #0
    171c:	00020000 	andeq	r0, r2, r0
    1720:	0294047d 	addseq	r0, r4, #2097152000	; 0x7d000000
    1724:	02960000 	addseq	r0, r6, #0
    1728:	00020000 	andeq	r0, r2, r0
    172c:	0296187d 	addseq	r1, r6, #8192000	; 0x7d0000
    1730:	02da0000 	sbcseq	r0, sl, #0
    1734:	00020000 	andeq	r0, r2, r0
    1738:	02da1877 	sbcseq	r1, sl, #7798784	; 0x770000
    173c:	02dc0000 	sbcseq	r0, ip, #0
    1740:	00020000 	andeq	r0, r2, r0
    1744:	02dc0477 	sbcseq	r0, ip, #1996488704	; 0x77000000
    1748:	02e00000 	rsceq	r0, r0, #0
    174c:	00020000 	andeq	r0, r2, r0
    1750:	02e0047d 	rsceq	r0, r0, #2097152000	; 0x7d000000
    1754:	02e20000 	rsceq	r0, r2, #0
    1758:	00020000 	andeq	r0, r2, r0
    175c:	0000007d 	andeq	r0, r0, sp, ror r0
    1760:	00000000 	andeq	r0, r0, r0
    1764:	02e40000 	rsceq	r0, r4, #0
    1768:	02e60000 	rsceq	r0, r6, #0
    176c:	00020000 	andeq	r0, r2, r0
    1770:	02e6007d 	rsceq	r0, r6, #125	; 0x7d
    1774:	02e80000 	rsceq	r0, r8, #0
    1778:	00020000 	andeq	r0, r2, r0
    177c:	02e8047d 	rsceq	r0, r8, #2097152000	; 0x7d000000
    1780:	02ea0000 	rsceq	r0, sl, #0
    1784:	00020000 	andeq	r0, r2, r0
    1788:	02ea187d 	rsceq	r1, sl, #8192000	; 0x7d0000
    178c:	032e0000 			; <UNDEFINED> instruction: 0x032e0000
    1790:	00020000 	andeq	r0, r2, r0
    1794:	032e1877 			; <UNDEFINED> instruction: 0x032e1877
    1798:	03300000 	teqeq	r0, #0
    179c:	00020000 	andeq	r0, r2, r0
    17a0:	03300477 	teqeq	r0, #1996488704	; 0x77000000
    17a4:	03340000 	teqeq	r4, #0
    17a8:	00020000 	andeq	r0, r2, r0
    17ac:	0334047d 	teqeq	r4, #2097152000	; 0x7d000000
    17b0:	03360000 	teqeq	r6, #0
    17b4:	00020000 	andeq	r0, r2, r0
    17b8:	0000007d 	andeq	r0, r0, sp, ror r0
    17bc:	00000000 	andeq	r0, r0, r0
    17c0:	03380000 	teqeq	r8, #0
    17c4:	033a0000 	teqeq	sl, #0
    17c8:	00020000 	andeq	r0, r2, r0
    17cc:	033a007d 	teqeq	sl, #125	; 0x7d
    17d0:	033c0000 	teqeq	ip, #0
    17d4:	00020000 	andeq	r0, r2, r0
    17d8:	033c047d 	teqeq	ip, #2097152000	; 0x7d000000
    17dc:	033e0000 	teqeq	lr, #0
    17e0:	00020000 	andeq	r0, r2, r0
    17e4:	033e207d 	teqeq	lr, #125	; 0x7d
    17e8:	039a0000 	orrseq	r0, sl, #0
    17ec:	00020000 	andeq	r0, r2, r0
    17f0:	039a2077 	orrseq	r2, sl, #119	; 0x77
    17f4:	039c0000 	orrseq	r0, ip, #0
    17f8:	00020000 	andeq	r0, r2, r0
    17fc:	039c0477 	orrseq	r0, ip, #1996488704	; 0x77000000
    1800:	03a00000 	moveq	r0, #0
    1804:	00020000 	andeq	r0, r2, r0
    1808:	03a0047d 	moveq	r0, #2097152000	; 0x7d000000
    180c:	03a20000 			; <UNDEFINED> instruction: 0x03a20000
    1810:	00020000 	andeq	r0, r2, r0
    1814:	0000007d 	andeq	r0, r0, sp, ror r0
    1818:	00000000 	andeq	r0, r0, r0
    181c:	03a40000 			; <UNDEFINED> instruction: 0x03a40000
    1820:	03a60000 			; <UNDEFINED> instruction: 0x03a60000
    1824:	00020000 	andeq	r0, r2, r0
    1828:	03a6007d 			; <UNDEFINED> instruction: 0x03a6007d
    182c:	03a80000 			; <UNDEFINED> instruction: 0x03a80000
    1830:	00020000 	andeq	r0, r2, r0
    1834:	03a8087d 			; <UNDEFINED> instruction: 0x03a8087d
    1838:	03aa0000 			; <UNDEFINED> instruction: 0x03aa0000
    183c:	00020000 	andeq	r0, r2, r0
    1840:	03aa187d 			; <UNDEFINED> instruction: 0x03aa187d
    1844:	03fa0000 	mvnseq	r0, #0
    1848:	00020000 	andeq	r0, r2, r0
    184c:	03fa1877 	mvnseq	r1, #7798784	; 0x770000
    1850:	03fc0000 	mvnseq	r0, #0
    1854:	00020000 	andeq	r0, r2, r0
    1858:	03fc0877 	mvnseq	r0, #7798784	; 0x770000
    185c:	03fe0000 	mvnseq	r0, #0
    1860:	00020000 	andeq	r0, r2, r0
    1864:	0000087d 	andeq	r0, r0, sp, ror r8
	...
    1870:	00020000 	andeq	r0, r2, r0
    1874:	00020000 	andeq	r0, r2, r0
    1878:	0002007d 	andeq	r0, r2, sp, ror r0
    187c:	00040000 	andeq	r0, r4, r0
    1880:	00020000 	andeq	r0, r2, r0
    1884:	0004087d 	andeq	r0, r4, sp, ror r8
    1888:	00060000 	andeq	r0, r6, r0
    188c:	00020000 	andeq	r0, r2, r0
    1890:	0006107d 	andeq	r1, r6, sp, ror r0
    1894:	001e0000 	andseq	r0, lr, r0
    1898:	00020000 	andeq	r0, r2, r0
    189c:	001e1077 	andseq	r1, lr, r7, ror r0
    18a0:	00200000 	eoreq	r0, r0, r0
    18a4:	00020000 	andeq	r0, r2, r0
    18a8:	00200877 	eoreq	r0, r0, r7, ror r8
    18ac:	00220000 	eoreq	r0, r2, r0
    18b0:	00020000 	andeq	r0, r2, r0
    18b4:	0000087d 	andeq	r0, r0, sp, ror r8
    18b8:	00000000 	andeq	r0, r0, r0
    18bc:	00240000 	eoreq	r0, r4, r0
    18c0:	00260000 	eoreq	r0, r6, r0
    18c4:	00020000 	andeq	r0, r2, r0
    18c8:	0026007d 	eoreq	r0, r6, sp, ror r0
    18cc:	00280000 	eoreq	r0, r8, r0
    18d0:	00020000 	andeq	r0, r2, r0
    18d4:	0028087d 	eoreq	r0, r8, sp, ror r8
    18d8:	002a0000 	eoreq	r0, sl, r0
    18dc:	00020000 	andeq	r0, r2, r0
    18e0:	002a207d 	eoreq	r2, sl, sp, ror r0
    18e4:	007c0000 	rsbseq	r0, ip, r0
    18e8:	00020000 	andeq	r0, r2, r0
    18ec:	007c2077 	rsbseq	r2, ip, r7, ror r0
    18f0:	007e0000 	rsbseq	r0, lr, r0
    18f4:	00020000 	andeq	r0, r2, r0
    18f8:	007e0877 	rsbseq	r0, lr, r7, ror r8
    18fc:	00800000 	addeq	r0, r0, r0
    1900:	00020000 	andeq	r0, r2, r0
    1904:	0000087d 	andeq	r0, r0, sp, ror r8
    1908:	00000000 	andeq	r0, r0, r0
    190c:	00800000 	addeq	r0, r0, r0
    1910:	00820000 	addeq	r0, r2, r0
    1914:	00020000 	andeq	r0, r2, r0
    1918:	0082007d 	addeq	r0, r2, sp, ror r0
    191c:	00840000 	addeq	r0, r4, r0
    1920:	00020000 	andeq	r0, r2, r0
    1924:	0084087d 	addeq	r0, r4, sp, ror r8
    1928:	00860000 	addeq	r0, r6, r0
    192c:	00020000 	andeq	r0, r2, r0
    1930:	0086287d 	addeq	r2, r6, sp, ror r8
    1934:	00ea0000 	rsceq	r0, sl, r0
    1938:	00020000 	andeq	r0, r2, r0
    193c:	00ea2877 	rsceq	r2, sl, r7, ror r8
    1940:	00ec0000 	rsceq	r0, ip, r0
    1944:	00020000 	andeq	r0, r2, r0
    1948:	00ec0877 	rsceq	r0, ip, r7, ror r8
    194c:	00ee0000 	rsceq	r0, lr, r0
    1950:	00020000 	andeq	r0, r2, r0
    1954:	0000087d 	andeq	r0, r0, sp, ror r8
    1958:	00000000 	andeq	r0, r0, r0
    195c:	00f00000 	rscseq	r0, r0, r0
    1960:	00f20000 	rscseq	r0, r2, r0
    1964:	00020000 	andeq	r0, r2, r0
    1968:	00f2007d 	rscseq	r0, r2, sp, ror r0
    196c:	00f40000 	rscseq	r0, r4, r0
    1970:	00020000 	andeq	r0, r2, r0
    1974:	00f4087d 	rscseq	r0, r4, sp, ror r8
    1978:	00f60000 	rscseq	r0, r6, r0
    197c:	00020000 	andeq	r0, r2, r0
    1980:	00f6207d 	rscseq	r2, r6, sp, ror r0
    1984:	013a0000 	teqeq	sl, r0
    1988:	00020000 	andeq	r0, r2, r0
    198c:	013a2077 	teqeq	sl, r7, ror r0
    1990:	013c0000 	teqeq	ip, r0
    1994:	00020000 	andeq	r0, r2, r0
    1998:	013c0877 	teqeq	ip, r7, ror r8
    199c:	013e0000 	teqeq	lr, r0
    19a0:	00020000 	andeq	r0, r2, r0
    19a4:	0000087d 	andeq	r0, r0, sp, ror r8
    19a8:	00000000 	andeq	r0, r0, r0
    19ac:	01400000 	mrseq	r0, (UNDEF: 64)
    19b0:	01420000 	mrseq	r0, (UNDEF: 66)
    19b4:	00020000 	andeq	r0, r2, r0
    19b8:	0142007d 	hvceq	8205	; 0x200d
    19bc:	01440000 	mrseq	r0, (UNDEF: 68)
    19c0:	00020000 	andeq	r0, r2, r0
    19c4:	0144087d 	hvceq	16525	; 0x408d
    19c8:	01460000 	mrseq	r0, (UNDEF: 70)
    19cc:	00020000 	andeq	r0, r2, r0
    19d0:	0146287d 	hvceq	25229	; 0x628d
    19d4:	01cc0000 	biceq	r0, ip, r0
    19d8:	00020000 	andeq	r0, r2, r0
    19dc:	01cc2877 	biceq	r2, ip, r7, ror r8
    19e0:	01ce0000 	biceq	r0, lr, r0
    19e4:	00020000 	andeq	r0, r2, r0
    19e8:	01ce0877 	biceq	r0, lr, r7, ror r8
    19ec:	01dc0000 	bicseq	r0, ip, r0
    19f0:	00020000 	andeq	r0, r2, r0
    19f4:	0000087d 	andeq	r0, r0, sp, ror r8
    19f8:	00000000 	andeq	r0, r0, r0
    19fc:	01dc0000 	bicseq	r0, ip, r0
    1a00:	01de0000 	bicseq	r0, lr, r0
    1a04:	00020000 	andeq	r0, r2, r0
    1a08:	01de007d 	bicseq	r0, lr, sp, ror r0
    1a0c:	01e00000 	mvneq	r0, r0
    1a10:	00020000 	andeq	r0, r2, r0
    1a14:	01e0087d 	mvneq	r0, sp, ror r8
    1a18:	01e20000 	mvneq	r0, r0
    1a1c:	00020000 	andeq	r0, r2, r0
    1a20:	01e2187d 	mvneq	r1, sp, ror r8
    1a24:	02060000 	andeq	r0, r6, #0
    1a28:	00020000 	andeq	r0, r2, r0
    1a2c:	02061877 	andeq	r1, r6, #7798784	; 0x770000
    1a30:	02080000 	andeq	r0, r8, #0
    1a34:	00020000 	andeq	r0, r2, r0
    1a38:	02080877 	andeq	r0, r8, #7798784	; 0x770000
    1a3c:	020a0000 	andeq	r0, sl, #0
    1a40:	00020000 	andeq	r0, r2, r0
    1a44:	0000087d 	andeq	r0, r0, sp, ror r8
	...
    1a50:	00020000 	andeq	r0, r2, r0
    1a54:	00020000 	andeq	r0, r2, r0
    1a58:	0002007d 	andeq	r0, r2, sp, ror r0
    1a5c:	00040000 	andeq	r0, r4, r0
    1a60:	00020000 	andeq	r0, r2, r0
    1a64:	0004087d 	andeq	r0, r4, sp, ror r8
    1a68:	00060000 	andeq	r0, r6, r0
    1a6c:	00020000 	andeq	r0, r2, r0
    1a70:	0006187d 	andeq	r1, r6, sp, ror r8
    1a74:	00340000 	eorseq	r0, r4, r0
    1a78:	00020000 	andeq	r0, r2, r0
    1a7c:	00341877 	eorseq	r1, r4, r7, ror r8
    1a80:	00360000 	eorseq	r0, r6, r0
    1a84:	00020000 	andeq	r0, r2, r0
    1a88:	00360877 	eorseq	r0, r6, r7, ror r8
    1a8c:	00380000 	eorseq	r0, r8, r0
    1a90:	00020000 	andeq	r0, r2, r0
    1a94:	0000087d 	andeq	r0, r0, sp, ror r8
    1a98:	00000000 	andeq	r0, r0, r0
    1a9c:	00380000 	eorseq	r0, r8, r0
    1aa0:	003a0000 	eorseq	r0, sl, r0
    1aa4:	00020000 	andeq	r0, r2, r0
    1aa8:	003a007d 	eorseq	r0, sl, sp, ror r0
    1aac:	003c0000 	eorseq	r0, ip, r0
    1ab0:	00020000 	andeq	r0, r2, r0
    1ab4:	003c087d 	eorseq	r0, ip, sp, ror r8
    1ab8:	003e0000 	eorseq	r0, lr, r0
    1abc:	00020000 	andeq	r0, r2, r0
    1ac0:	003e207d 	eorseq	r2, lr, sp, ror r0
    1ac4:	008e0000 	addeq	r0, lr, r0
    1ac8:	00020000 	andeq	r0, r2, r0
    1acc:	008e1877 	addeq	r1, lr, r7, ror r8
    1ad0:	00900000 	addseq	r0, r0, r0
    1ad4:	00020000 	andeq	r0, r2, r0
    1ad8:	00900877 	addseq	r0, r0, r7, ror r8
    1adc:	00980000 	addseq	r0, r8, r0
    1ae0:	00020000 	andeq	r0, r2, r0
    1ae4:	0000087d 	andeq	r0, r0, sp, ror r8
    1ae8:	00000000 	andeq	r0, r0, r0
    1aec:	00980000 	addseq	r0, r8, r0
    1af0:	009a0000 	addseq	r0, sl, r0
    1af4:	00020000 	andeq	r0, r2, r0
    1af8:	009a007d 	addseq	r0, sl, sp, ror r0
    1afc:	009c0000 	addseq	r0, ip, r0
    1b00:	00020000 	andeq	r0, r2, r0
    1b04:	009c087d 	addseq	r0, ip, sp, ror r8
    1b08:	009e0000 	addseq	r0, lr, r0
    1b0c:	00020000 	andeq	r0, r2, r0
    1b10:	009e187d 	addseq	r1, lr, sp, ror r8
    1b14:	00d20000 	sbcseq	r0, r2, r0
    1b18:	00020000 	andeq	r0, r2, r0
    1b1c:	00d21877 	sbcseq	r1, r2, r7, ror r8
    1b20:	00d40000 	sbcseq	r0, r4, r0
    1b24:	00020000 	andeq	r0, r2, r0
    1b28:	00d40877 	sbcseq	r0, r4, r7, ror r8
    1b2c:	00dc0000 	sbcseq	r0, ip, r0
    1b30:	00020000 	andeq	r0, r2, r0
    1b34:	0000087d 	andeq	r0, r0, sp, ror r8
    1b38:	00000000 	andeq	r0, r0, r0
    1b3c:	00dc0000 	sbcseq	r0, ip, r0
    1b40:	00de0000 	sbcseq	r0, lr, r0
    1b44:	00020000 	andeq	r0, r2, r0
    1b48:	00de007d 	sbcseq	r0, lr, sp, ror r0
    1b4c:	00e00000 	rsceq	r0, r0, r0
    1b50:	00020000 	andeq	r0, r2, r0
    1b54:	00e0087d 	rsceq	r0, r0, sp, ror r8
    1b58:	00e20000 	rsceq	r0, r2, r0
    1b5c:	00020000 	andeq	r0, r2, r0
    1b60:	00e2187d 	rsceq	r1, r2, sp, ror r8
    1b64:	014a0000 	mrseq	r0, (UNDEF: 74)
    1b68:	00020000 	andeq	r0, r2, r0
    1b6c:	014a1877 	hvceq	41351	; 0xa187
    1b70:	014c0000 	mrseq	r0, (UNDEF: 76)
    1b74:	00020000 	andeq	r0, r2, r0
    1b78:	014c0877 	hvceq	49287	; 0xc087
    1b7c:	01540000 	cmpeq	r4, r0
    1b80:	00020000 	andeq	r0, r2, r0
    1b84:	0000087d 	andeq	r0, r0, sp, ror r8
    1b88:	00000000 	andeq	r0, r0, r0
    1b8c:	01540000 	cmpeq	r4, r0
    1b90:	01560000 	cmpeq	r6, r0
    1b94:	00020000 	andeq	r0, r2, r0
    1b98:	0156007d 	cmpeq	r6, sp, ror r0
    1b9c:	01580000 	cmpeq	r8, r0
    1ba0:	00020000 	andeq	r0, r2, r0
    1ba4:	0158087d 	cmpeq	r8, sp, ror r8
    1ba8:	015a0000 	cmpeq	sl, r0
    1bac:	00020000 	andeq	r0, r2, r0
    1bb0:	015a187d 	cmpeq	sl, sp, ror r8
    1bb4:	018a0000 	orreq	r0, sl, r0
    1bb8:	00020000 	andeq	r0, r2, r0
    1bbc:	018a1877 	orreq	r1, sl, r7, ror r8
    1bc0:	018c0000 	orreq	r0, ip, r0
    1bc4:	00020000 	andeq	r0, r2, r0
    1bc8:	018c0877 	orreq	r0, ip, r7, ror r8
    1bcc:	018e0000 	orreq	r0, lr, r0
    1bd0:	00020000 	andeq	r0, r2, r0
    1bd4:	0000087d 	andeq	r0, r0, sp, ror r8
    1bd8:	00000000 	andeq	r0, r0, r0
    1bdc:	01900000 	orrseq	r0, r0, r0
    1be0:	01920000 	orrseq	r0, r2, r0
    1be4:	00020000 	andeq	r0, r2, r0
    1be8:	0192007d 	orrseq	r0, r2, sp, ror r0
    1bec:	01940000 	orrseq	r0, r4, r0
    1bf0:	00020000 	andeq	r0, r2, r0
    1bf4:	0194087d 	orrseq	r0, r4, sp, ror r8
    1bf8:	01960000 	orrseq	r0, r6, r0
    1bfc:	00020000 	andeq	r0, r2, r0
    1c00:	0196187d 	orrseq	r1, r6, sp, ror r8
    1c04:	01c80000 	biceq	r0, r8, r0
    1c08:	00020000 	andeq	r0, r2, r0
    1c0c:	01c81877 	biceq	r1, r8, r7, ror r8
    1c10:	01ca0000 	biceq	r0, sl, r0
    1c14:	00020000 	andeq	r0, r2, r0
    1c18:	01ca0877 	biceq	r0, sl, r7, ror r8
    1c1c:	01cc0000 	biceq	r0, ip, r0
    1c20:	00020000 	andeq	r0, r2, r0
    1c24:	0000087d 	andeq	r0, r0, sp, ror r8
	...
    1c30:	00020000 	andeq	r0, r2, r0
    1c34:	00020000 	andeq	r0, r2, r0
    1c38:	0002007d 	andeq	r0, r2, sp, ror r0
    1c3c:	00040000 	andeq	r0, r4, r0
    1c40:	00020000 	andeq	r0, r2, r0
    1c44:	0004087d 	andeq	r0, r4, sp, ror r8
    1c48:	00060000 	andeq	r0, r6, r0
    1c4c:	00020000 	andeq	r0, r2, r0
    1c50:	0006187d 	andeq	r1, r6, sp, ror r8
    1c54:	00360000 	eorseq	r0, r6, r0
    1c58:	00020000 	andeq	r0, r2, r0
    1c5c:	00361877 	eorseq	r1, r6, r7, ror r8
    1c60:	00380000 	eorseq	r0, r8, r0
    1c64:	00020000 	andeq	r0, r2, r0
    1c68:	00380877 	eorseq	r0, r8, r7, ror r8
    1c6c:	003a0000 	eorseq	r0, sl, r0
    1c70:	00020000 	andeq	r0, r2, r0
    1c74:	0000087d 	andeq	r0, r0, sp, ror r8
    1c78:	00000000 	andeq	r0, r0, r0
    1c7c:	003c0000 	eorseq	r0, ip, r0
    1c80:	003e0000 	eorseq	r0, lr, r0
    1c84:	00020000 	andeq	r0, r2, r0
    1c88:	003e007d 	eorseq	r0, lr, sp, ror r0
    1c8c:	00400000 	subeq	r0, r0, r0
    1c90:	00020000 	andeq	r0, r2, r0
    1c94:	0040087d 	subeq	r0, r0, sp, ror r8
    1c98:	00420000 	subeq	r0, r2, r0
    1c9c:	00020000 	andeq	r0, r2, r0
    1ca0:	0042287d 	subeq	r2, r2, sp, ror r8
    1ca4:	00c80000 	sbceq	r0, r8, r0
    1ca8:	00020000 	andeq	r0, r2, r0
    1cac:	00c82077 	sbceq	r2, r8, r7, ror r0
    1cb0:	00ca0000 	sbceq	r0, sl, r0
    1cb4:	00020000 	andeq	r0, r2, r0
    1cb8:	00ca0877 	sbceq	r0, sl, r7, ror r8
    1cbc:	00d00000 	sbcseq	r0, r0, r0
    1cc0:	00020000 	andeq	r0, r2, r0
    1cc4:	0000087d 	andeq	r0, r0, sp, ror r8
    1cc8:	00000000 	andeq	r0, r0, r0
    1ccc:	00d00000 	sbcseq	r0, r0, r0
    1cd0:	00d20000 	sbcseq	r0, r2, r0
    1cd4:	00020000 	andeq	r0, r2, r0
    1cd8:	00d2007d 	sbcseq	r0, r2, sp, ror r0
    1cdc:	00d40000 	sbcseq	r0, r4, r0
    1ce0:	00020000 	andeq	r0, r2, r0
    1ce4:	00d4087d 	sbcseq	r0, r4, sp, ror r8
    1ce8:	00d60000 	sbcseq	r0, r6, r0
    1cec:	00020000 	andeq	r0, r2, r0
    1cf0:	00d6187d 	sbcseq	r1, r6, sp, ror r8
    1cf4:	01360000 	teqeq	r6, r0
    1cf8:	00020000 	andeq	r0, r2, r0
    1cfc:	01361877 	teqeq	r6, r7, ror r8
    1d00:	01380000 	teqeq	r8, r0
    1d04:	00020000 	andeq	r0, r2, r0
    1d08:	01380877 	teqeq	r8, r7, ror r8
    1d0c:	01400000 	mrseq	r0, (UNDEF: 64)
    1d10:	00020000 	andeq	r0, r2, r0
    1d14:	0000087d 	andeq	r0, r0, sp, ror r8
    1d18:	00000000 	andeq	r0, r0, r0
    1d1c:	01400000 	mrseq	r0, (UNDEF: 64)
    1d20:	01420000 	mrseq	r0, (UNDEF: 66)
    1d24:	00020000 	andeq	r0, r2, r0
    1d28:	0142007d 	hvceq	8205	; 0x200d
    1d2c:	01440000 	mrseq	r0, (UNDEF: 68)
    1d30:	00020000 	andeq	r0, r2, r0
    1d34:	0144087d 	hvceq	16525	; 0x408d
    1d38:	01460000 	mrseq	r0, (UNDEF: 70)
    1d3c:	00020000 	andeq	r0, r2, r0
    1d40:	0146207d 	hvceq	25101	; 0x620d
    1d44:	02140000 	andseq	r0, r4, #0
    1d48:	00020000 	andeq	r0, r2, r0
    1d4c:	02142077 	andseq	r2, r4, #119	; 0x77
    1d50:	02160000 	andseq	r0, r6, #0
    1d54:	00020000 	andeq	r0, r2, r0
    1d58:	02160877 	andseq	r0, r6, #7798784	; 0x770000
    1d5c:	02200000 	eoreq	r0, r0, #0
    1d60:	00020000 	andeq	r0, r2, r0
    1d64:	0000087d 	andeq	r0, r0, sp, ror r8
    1d68:	00000000 	andeq	r0, r0, r0
    1d6c:	02200000 	eoreq	r0, r0, #0
    1d70:	02220000 	eoreq	r0, r2, #0
    1d74:	00020000 	andeq	r0, r2, r0
    1d78:	0222007d 	eoreq	r0, r2, #125	; 0x7d
    1d7c:	02240000 	eoreq	r0, r4, #0
    1d80:	00020000 	andeq	r0, r2, r0
    1d84:	0224087d 	eoreq	r0, r4, #8192000	; 0x7d0000
    1d88:	02260000 	eoreq	r0, r6, #0
    1d8c:	00020000 	andeq	r0, r2, r0
    1d90:	0226187d 	eoreq	r1, r6, #8192000	; 0x7d0000
    1d94:	02560000 	subseq	r0, r6, #0
    1d98:	00020000 	andeq	r0, r2, r0
    1d9c:	02561877 	subseq	r1, r6, #7798784	; 0x770000
    1da0:	02580000 	subseq	r0, r8, #0
    1da4:	00020000 	andeq	r0, r2, r0
    1da8:	02580877 	subseq	r0, r8, #7798784	; 0x770000
    1dac:	025a0000 	subseq	r0, sl, #0
    1db0:	00020000 	andeq	r0, r2, r0
    1db4:	0000087d 	andeq	r0, r0, sp, ror r8
    1db8:	00000000 	andeq	r0, r0, r0
    1dbc:	025c0000 	subseq	r0, ip, #0
    1dc0:	025e0000 	subseq	r0, lr, #0
    1dc4:	00020000 	andeq	r0, r2, r0
    1dc8:	025e007d 	subseq	r0, lr, #125	; 0x7d
    1dcc:	02600000 	rsbeq	r0, r0, #0
    1dd0:	00020000 	andeq	r0, r2, r0
    1dd4:	0260087d 	rsbeq	r0, r0, #8192000	; 0x7d0000
    1dd8:	02620000 	rsbeq	r0, r2, #0
    1ddc:	00020000 	andeq	r0, r2, r0
    1de0:	0262187d 	rsbeq	r1, r2, #8192000	; 0x7d0000
    1de4:	028e0000 	addeq	r0, lr, #0
    1de8:	00020000 	andeq	r0, r2, r0
    1dec:	028e1877 	addeq	r1, lr, #7798784	; 0x770000
    1df0:	02900000 	addseq	r0, r0, #0
    1df4:	00020000 	andeq	r0, r2, r0
    1df8:	02900877 	addseq	r0, r0, #7798784	; 0x770000
    1dfc:	02920000 	addseq	r0, r2, #0
    1e00:	00020000 	andeq	r0, r2, r0
    1e04:	0000087d 	andeq	r0, r0, sp, ror r8
    1e08:	00000000 	andeq	r0, r0, r0
    1e0c:	02940000 	addseq	r0, r4, #0
    1e10:	02960000 	addseq	r0, r6, #0
    1e14:	00020000 	andeq	r0, r2, r0
    1e18:	0296007d 	addseq	r0, r6, #125	; 0x7d
    1e1c:	02980000 	addseq	r0, r8, #0
    1e20:	00020000 	andeq	r0, r2, r0
    1e24:	0298087d 	addseq	r0, r8, #8192000	; 0x7d0000
    1e28:	029a0000 	addseq	r0, sl, #0
    1e2c:	00020000 	andeq	r0, r2, r0
    1e30:	029a187d 	addseq	r1, sl, #8192000	; 0x7d0000
    1e34:	02ca0000 	sbceq	r0, sl, #0
    1e38:	00020000 	andeq	r0, r2, r0
    1e3c:	02ca1877 	sbceq	r1, sl, #7798784	; 0x770000
    1e40:	02cc0000 	sbceq	r0, ip, #0
    1e44:	00020000 	andeq	r0, r2, r0
    1e48:	02cc0877 	sbceq	r0, ip, #7798784	; 0x770000
    1e4c:	02ce0000 	sbceq	r0, lr, #0
    1e50:	00020000 	andeq	r0, r2, r0
    1e54:	0000087d 	andeq	r0, r0, sp, ror r8
	...
    1e60:	00020000 	andeq	r0, r2, r0
    1e64:	00020000 	andeq	r0, r2, r0
    1e68:	0002007d 	andeq	r0, r2, sp, ror r0
    1e6c:	00040000 	andeq	r0, r4, r0
    1e70:	00020000 	andeq	r0, r2, r0
    1e74:	0004087d 	andeq	r0, r4, sp, ror r8
    1e78:	00060000 	andeq	r0, r6, r0
    1e7c:	00020000 	andeq	r0, r2, r0
    1e80:	0006207d 	andeq	r2, r6, sp, ror r0
    1e84:	00760000 	rsbseq	r0, r6, r0
    1e88:	00020000 	andeq	r0, r2, r0
    1e8c:	00762077 	rsbseq	r2, r6, r7, ror r0
    1e90:	00780000 	rsbseq	r0, r8, r0
    1e94:	00020000 	andeq	r0, r2, r0
    1e98:	00780877 	rsbseq	r0, r8, r7, ror r8
    1e9c:	007a0000 	rsbseq	r0, sl, r0
    1ea0:	00020000 	andeq	r0, r2, r0
    1ea4:	0000087d 	andeq	r0, r0, sp, ror r8
    1ea8:	00000000 	andeq	r0, r0, r0
    1eac:	007c0000 	rsbseq	r0, ip, r0
    1eb0:	007e0000 	rsbseq	r0, lr, r0
    1eb4:	00020000 	andeq	r0, r2, r0
    1eb8:	007e007d 	rsbseq	r0, lr, sp, ror r0
    1ebc:	00800000 	addeq	r0, r0, r0
    1ec0:	00020000 	andeq	r0, r2, r0
    1ec4:	0080087d 	addeq	r0, r0, sp, ror r8
    1ec8:	00820000 	addeq	r0, r2, r0
    1ecc:	00020000 	andeq	r0, r2, r0
    1ed0:	0082287d 	addeq	r2, r2, sp, ror r8
    1ed4:	00ec0000 	rsceq	r0, ip, r0
    1ed8:	00020000 	andeq	r0, r2, r0
    1edc:	00ec2077 	rsceq	r2, ip, r7, ror r0
    1ee0:	00ee0000 	rsceq	r0, lr, r0
    1ee4:	00020000 	andeq	r0, r2, r0
    1ee8:	00ee0877 	rsceq	r0, lr, r7, ror r8
    1eec:	00f40000 	rscseq	r0, r4, r0
    1ef0:	00020000 	andeq	r0, r2, r0
    1ef4:	0000087d 	andeq	r0, r0, sp, ror r8
    1ef8:	00000000 	andeq	r0, r0, r0
    1efc:	00f40000 	rscseq	r0, r4, r0
    1f00:	00f60000 	rscseq	r0, r6, r0
    1f04:	00020000 	andeq	r0, r2, r0
    1f08:	00f6007d 	rscseq	r0, r6, sp, ror r0
    1f0c:	00f80000 	rscseq	r0, r8, r0
    1f10:	00020000 	andeq	r0, r2, r0
    1f14:	00f8087d 	rscseq	r0, r8, sp, ror r8
    1f18:	00fa0000 	rscseq	r0, sl, r0
    1f1c:	00020000 	andeq	r0, r2, r0
    1f20:	00fa187d 	rscseq	r1, sl, sp, ror r8
    1f24:	013a0000 	teqeq	sl, r0
    1f28:	00020000 	andeq	r0, r2, r0
    1f2c:	013a1877 	teqeq	sl, r7, ror r8
    1f30:	013c0000 	teqeq	ip, r0
    1f34:	00020000 	andeq	r0, r2, r0
    1f38:	013c0877 	teqeq	ip, r7, ror r8
    1f3c:	013e0000 	teqeq	lr, r0
    1f40:	00020000 	andeq	r0, r2, r0
    1f44:	0000087d 	andeq	r0, r0, sp, ror r8
    1f48:	00000000 	andeq	r0, r0, r0
    1f4c:	01400000 	mrseq	r0, (UNDEF: 64)
    1f50:	01420000 	mrseq	r0, (UNDEF: 66)
    1f54:	00020000 	andeq	r0, r2, r0
    1f58:	0142007d 	hvceq	8205	; 0x200d
    1f5c:	01440000 	mrseq	r0, (UNDEF: 68)
    1f60:	00020000 	andeq	r0, r2, r0
    1f64:	0144087d 	hvceq	16525	; 0x408d
    1f68:	01460000 	mrseq	r0, (UNDEF: 70)
    1f6c:	00020000 	andeq	r0, r2, r0
    1f70:	0146187d 	hvceq	24973	; 0x618d
    1f74:	01960000 	orrseq	r0, r6, r0
    1f78:	00020000 	andeq	r0, r2, r0
    1f7c:	01961877 	orrseq	r1, r6, r7, ror r8
    1f80:	01980000 	orrseq	r0, r8, r0
    1f84:	00020000 	andeq	r0, r2, r0
    1f88:	01980877 	orrseq	r0, r8, r7, ror r8
    1f8c:	01a00000 	moveq	r0, r0
    1f90:	00020000 	andeq	r0, r2, r0
    1f94:	0000087d 	andeq	r0, r0, sp, ror r8
    1f98:	00000000 	andeq	r0, r0, r0
    1f9c:	01a00000 	moveq	r0, r0
    1fa0:	01a20000 			; <UNDEFINED> instruction: 0x01a20000
    1fa4:	00020000 	andeq	r0, r2, r0
    1fa8:	01a2007d 			; <UNDEFINED> instruction: 0x01a2007d
    1fac:	01a40000 			; <UNDEFINED> instruction: 0x01a40000
    1fb0:	00020000 	andeq	r0, r2, r0
    1fb4:	01a4087d 			; <UNDEFINED> instruction: 0x01a4087d
    1fb8:	01a60000 			; <UNDEFINED> instruction: 0x01a60000
    1fbc:	00020000 	andeq	r0, r2, r0
    1fc0:	01a6187d 			; <UNDEFINED> instruction: 0x01a6187d
    1fc4:	01e60000 	mvneq	r0, r0
    1fc8:	00020000 	andeq	r0, r2, r0
    1fcc:	01e61877 	mvneq	r1, r7, ror r8
    1fd0:	01e80000 	mvneq	r0, r0
    1fd4:	00020000 	andeq	r0, r2, r0
    1fd8:	01e80877 	mvneq	r0, r7, ror r8
    1fdc:	01ea0000 	mvneq	r0, r0
    1fe0:	00020000 	andeq	r0, r2, r0
    1fe4:	0000087d 	andeq	r0, r0, sp, ror r8
    1fe8:	00000000 	andeq	r0, r0, r0
    1fec:	01ec0000 	mvneq	r0, r0
    1ff0:	01ee0000 	mvneq	r0, r0
    1ff4:	00020000 	andeq	r0, r2, r0
    1ff8:	01ee007d 	mvneq	r0, sp, ror r0
    1ffc:	01f00000 	mvnseq	r0, r0
    2000:	00020000 	andeq	r0, r2, r0
    2004:	01f0087d 	mvnseq	r0, sp, ror r8
    2008:	01f20000 	mvnseq	r0, r0
    200c:	00020000 	andeq	r0, r2, r0
    2010:	01f2187d 	mvnseq	r1, sp, ror r8
    2014:	021e0000 	andseq	r0, lr, #0
    2018:	00020000 	andeq	r0, r2, r0
    201c:	021e1877 	andseq	r1, lr, #7798784	; 0x770000
    2020:	02200000 	eoreq	r0, r0, #0
    2024:	00020000 	andeq	r0, r2, r0
    2028:	02200877 	eoreq	r0, r0, #7798784	; 0x770000
    202c:	02220000 	eoreq	r0, r2, #0
    2030:	00020000 	andeq	r0, r2, r0
    2034:	0000087d 	andeq	r0, r0, sp, ror r8
    2038:	00000000 	andeq	r0, r0, r0
	...

Disassembly of section .debug_aranges:

00000000 <.debug_aranges>:
   0:	0000001c 	andeq	r0, r0, ip, lsl r0
   4:	00000002 	andeq	r0, r0, r2
   8:	00040000 	andeq	r0, r4, r0
   c:	00000000 	andeq	r0, r0, r0
  10:	0000026c 	andeq	r0, r0, ip, ror #4
  14:	00000020 	andeq	r0, r0, r0, lsr #32
	...
  20:	0000001c 	andeq	r0, r0, ip, lsl r0
  24:	00d90002 	sbcseq	r0, r9, r2
  28:	00040000 	andeq	r0, r4, r0
  2c:	00000000 	andeq	r0, r0, r0
  30:	0000028c 	andeq	r0, r0, ip, lsl #5
  34:	00000228 	andeq	r0, r0, r8, lsr #4
	...
  40:	0000001c 	andeq	r0, r0, ip, lsl r0
  44:	066c0002 	strbteq	r0, [ip], -r2
  48:	00040000 	andeq	r0, r4, r0
  4c:	00000000 	andeq	r0, r0, r0
  50:	000004b4 			; <UNDEFINED> instruction: 0x000004b4
  54:	00000074 	andeq	r0, r0, r4, ror r0
	...
  60:	0000001c 	andeq	r0, r0, ip, lsl r0
  64:	07d20002 	ldrbeq	r0, [r2, r2]
  68:	00040000 	andeq	r0, r4, r0
  6c:	00000000 	andeq	r0, r0, r0
  70:	00000528 	andeq	r0, r0, r8, lsr #10
  74:	00000980 	andeq	r0, r0, r0, lsl #19
	...
  80:	0000001c 	andeq	r0, r0, ip, lsl r0
  84:	0fa20002 	svceq	0x00a20002
  88:	00040000 	andeq	r0, r4, r0
  8c:	00000000 	andeq	r0, r0, r0
  90:	00000ea8 	andeq	r0, r0, r8, lsr #29
  94:	00000084 	andeq	r0, r0, r4, lsl #1
	...
  a0:	0000001c 	andeq	r0, r0, ip, lsl r0
  a4:	0ff30002 	svceq	0x00f30002
  a8:	00040000 	andeq	r0, r4, r0
  ac:	00000000 	andeq	r0, r0, r0
  b0:	00000f2c 	andeq	r0, r0, ip, lsr #30
  b4:	00000894 	muleq	r0, r4, r8
	...
  c0:	0000001c 	andeq	r0, r0, ip, lsl r0
  c4:	19ea0002 	stmibne	sl!, {r1}^
  c8:	00040000 	andeq	r0, r4, r0
  cc:	00000000 	andeq	r0, r0, r0
  d0:	000017c0 	andeq	r1, r0, r0, asr #15
  d4:	000003fe 	strdeq	r0, [r0], -lr
	...
  e0:	0000001c 	andeq	r0, r0, ip, lsl r0
  e4:	1fa90002 	svcne	0x00a90002
  e8:	00040000 	andeq	r0, r4, r0
  ec:	00000000 	andeq	r0, r0, r0
  f0:	00001bc0 	andeq	r1, r0, r0, asr #23
  f4:	0000020a 	andeq	r0, r0, sl, lsl #4
	...
 100:	0000001c 	andeq	r0, r0, ip, lsl r0
 104:	24ba0002 	ldrtcs	r0, [sl], #2
 108:	00040000 	andeq	r0, r4, r0
 10c:	00000000 	andeq	r0, r0, r0
 110:	00001dcc 	andeq	r1, r0, ip, asr #27
 114:	000001cc 	andeq	r0, r0, ip, asr #3
	...
 120:	0000001c 	andeq	r0, r0, ip, lsl r0
 124:	29930002 	ldmibcs	r3, {r1}
 128:	00040000 	andeq	r0, r4, r0
 12c:	00000000 	andeq	r0, r0, r0
 130:	00001f98 	muleq	r0, r8, pc	; <UNPREDICTABLE>
 134:	000002ce 	andeq	r0, r0, lr, asr #5
	...
 140:	0000001c 	andeq	r0, r0, ip, lsl r0
 144:	2f040002 	svccs	0x00040002
 148:	00040000 	andeq	r0, r4, r0
 14c:	00000000 	andeq	r0, r0, r0
 150:	00002268 	andeq	r2, r0, r8, ror #4
 154:	00000222 	andeq	r0, r0, r2, lsr #4
	...
 160:	00000014 	andeq	r0, r0, r4, lsl r0
 164:	34720002 	ldrbtcc	r0, [r2], #-2
 168:	00040000 	andeq	r0, r4, r0
	...

Disassembly of section .debug_line:

00000000 <.debug_line>:
   0:	0000003f 	andeq	r0, r0, pc, lsr r0
   4:	00230002 	eoreq	r0, r3, r2
   8:	01020000 	mrseq	r0, (UNDEF: 2)
   c:	000d0efb 	strdeq	r0, [sp], -fp
  10:	01010101 	tsteq	r1, r1, lsl #2
  14:	01000000 	mrseq	r0, (UNDEF: 0)
  18:	00010000 	andeq	r0, r1, r0
  1c:	5f746e69 	svcpl	0x00746e69
  20:	74636576 	strbtvc	r6, [r3], #-1398	; 0xfffffa8a
  24:	632e726f 			; <UNDEFINED> instruction: 0x632e726f
  28:	00000000 	andeq	r0, r0, r0
  2c:	02050000 	andeq	r0, r5, #0
  30:	0000026c 	andeq	r0, r0, ip, ror #4
  34:	0101ae03 	tsteq	r1, r3, lsl #28
  38:	312f312f 			; <UNDEFINED> instruction: 0x312f312f
  3c:	03023d2f 	movweq	r3, #11567	; 0x2d2f
  40:	f1010100 	setend	le
  44:	02000000 	andeq	r0, r0, #0
  48:	0000a600 	andeq	sl, r0, r0, lsl #12
  4c:	fb010200 	blx	40856 <_etext+0x3e15d>
  50:	01000d0e 	tsteq	r0, lr, lsl #26
  54:	00010101 	andeq	r0, r1, r1, lsl #2
  58:	00010000 	andeq	r0, r1, r0
  5c:	752f0100 	strvc	r0, [pc, #-256]!	; ffffff64 <_stack_top+0xdfff3f64>
  60:	692f7273 	stmdbvs	pc!, {r0, r1, r4, r5, r6, r9, ip, sp, lr}	; <UNPREDICTABLE>
  64:	756c636e 	strbvc	r6, [ip, #-878]!	; 0xfffffc92
  68:	6e2f6564 	cfsh64vs	mvdx6, mvdx15, #52
  6c:	696c7765 	stmdbvs	ip!, {r0, r2, r5, r6, r8, r9, sl, ip, sp, lr}^
  70:	616d2f62 	cmnvs	sp, r2, ror #30
  74:	6e696863 	cdpvs	8, 6, cr6, cr9, cr3, {3}
  78:	752f0065 	strvc	r0, [pc, #-101]!	; 1b <_text+0x1b>
  7c:	692f7273 	stmdbvs	pc!, {r0, r1, r4, r5, r6, r9, ip, sp, lr}	; <UNPREDICTABLE>
  80:	756c636e 	strbvc	r6, [ip, #-878]!	; 0xfffffc92
  84:	6e2f6564 	cfsh64vs	mvdx6, mvdx15, #52
  88:	696c7765 	stmdbvs	ip!, {r0, r2, r5, r6, r8, r9, sl, ip, sp, lr}^
  8c:	79732f62 	ldmdbvc	r3!, {r1, r5, r6, r8, r9, sl, fp, sp}^
  90:	6e690073 	mcrvs	0, 3, r0, cr9, cr3, {3}
  94:	64756c63 	ldrbtvs	r6, [r5], #-3171	; 0xfffff39d
  98:	6d000065 	stcvs	0, cr0, [r0, #-404]	; 0xfffffe6c
  9c:	2e6e6961 	cdpcs	9, 6, cr6, cr14, cr1, {3}
  a0:	00000063 	andeq	r0, r0, r3, rrx
  a4:	65645f00 	strbvs	r5, [r4, #-3840]!	; 0xfffff100
  a8:	6c756166 	ldfvse	f6, [r5], #-408	; 0xfffffe68
  ac:	79745f74 	ldmdbvc	r4!, {r2, r4, r5, r6, r8, r9, sl, fp, ip, lr}^
  b0:	2e736570 	mrccs	5, 3, r6, cr3, cr0, {3}
  b4:	00010068 	andeq	r0, r1, r8, rrx
  b8:	74735f00 	ldrbtvc	r5, [r3], #-3840	; 0xfffff100
  bc:	746e6964 	strbtvc	r6, [lr], #-2404	; 0xfffff69c
  c0:	0200682e 	andeq	r6, r0, #3014656	; 0x2e0000
  c4:	696c0000 	stmdbvs	ip!, {}^	; <UNPREDICTABLE>
  c8:	00682e62 	rsbeq	r2, r8, r2, ror #28
  cc:	74000003 	strvc	r0, [r0], #-3
  d0:	2e6b7361 	cdpcs	3, 6, cr7, cr11, cr1, {3}
  d4:	00030068 	andeq	r0, r3, r8, rrx
  d8:	65766500 	ldrbvs	r6, [r6, #-1280]!	; 0xfffffb00
  dc:	682e746e 	stmdavs	lr!, {r1, r2, r3, r5, r6, sl, ip, sp, lr}
  e0:	00000300 	andeq	r0, r0, r0, lsl #6
  e4:	626d656d 	rsbvs	r6, sp, #457179136	; 0x1b400000
  e8:	6b636f6c 	blvs	18dbea0 <_etext+0x18d97a7>
  ec:	0300682e 	movweq	r6, #2094	; 0x82e
  f0:	00000000 	andeq	r0, r0, r0
  f4:	028c0205 	addeq	r0, ip, #1342177280	; 0x50000000
  f8:	0b030000 	bleq	c0100 <_etext+0xbda07>
  fc:	213d3d01 	teqcs	sp, r1, lsl #26
 100:	035c3a3d 	cmpeq	ip, #249856	; 0x3d000
 104:	3e4d9e11 	mcrcc	14, 2, r9, cr13, cr1, {0}
 108:	ab4b4b68 	blge	12d2eb0 <_etext+0x12d07b7>
 10c:	4d065806 	stcmi	8, cr5, [r6, #-24]	; 0xffffffe8
 110:	9d4b4b3e 	vstrls	d20, [fp, #-248]	; 0xffffff08
 114:	4e065806 	cdpmi	8, 0, cr5, cr6, cr6, {0}
 118:	4dda3d4b 	ldclmi	13, cr3, [sl, #300]	; 0x12c
 11c:	4c786775 	ldclmi	7, cr6, [r8], #-468	; 0xfffffe2c
 120:	4c5d3d4b 	mrrcmi	13, 4, r3, sp, cr11
 124:	3e5c3d4b 	cdpcc	13, 5, cr3, cr12, cr11, {2}
 128:	76753e30 			; <UNDEFINED> instruction: 0x76753e30
 12c:	91919130 	orrsls	r9, r1, r0, lsr r1
 130:	02305991 	eorseq	r5, r0, #2375680	; 0x244000
 134:	01010021 	tsteq	r1, r1, lsr #32
 138:	000000a3 	andeq	r0, r0, r3, lsr #1
 13c:	00820002 	addeq	r0, r2, r2
 140:	01020000 	mrseq	r0, (UNDEF: 2)
 144:	000d0efb 	strdeq	r0, [sp], -fp
 148:	01010101 	tsteq	r1, r1, lsl #2
 14c:	01000000 	mrseq	r0, (UNDEF: 0)
 150:	2f010000 	svccs	0x00010000
 154:	2f727375 	svccs	0x00727375
 158:	6c636e69 	stclvs	14, cr6, [r3], #-420	; 0xfffffe5c
 15c:	2f656475 	svccs	0x00656475
 160:	6c77656e 	cfldr64vs	mvdx6, [r7], #-440	; 0xfffffe48
 164:	6d2f6269 	sfmvs	f6, 4, [pc, #-420]!	; ffffffc8 <_stack_top+0xdfff3fc8>
 168:	69686361 	stmdbvs	r8!, {r0, r5, r6, r8, r9, sp, lr}^
 16c:	2f00656e 	svccs	0x0000656e
 170:	2f727375 	svccs	0x00727375
 174:	6c636e69 	stclvs	14, cr6, [r3], #-420	; 0xfffffe5c
 178:	2f656475 	svccs	0x00656475
 17c:	6c77656e 	cfldr64vs	mvdx6, [r7], #-440	; 0xfffffe48
 180:	732f6269 			; <UNDEFINED> instruction: 0x732f6269
 184:	69007379 	stmdbvs	r0, {r0, r3, r4, r5, r6, r8, r9, ip, sp, lr}
 188:	756c636e 	strbvc	r6, [ip, #-878]!	; 0xfffffc92
 18c:	00006564 	andeq	r6, r0, r4, ror #10
 190:	2e336d63 	cdpcs	13, 3, cr6, cr3, cr3, {3}
 194:	00000063 	andeq	r0, r0, r3, rrx
 198:	65645f00 	strbvs	r5, [r4, #-3840]!	; 0xfffff100
 19c:	6c756166 	ldfvse	f6, [r5], #-408	; 0xfffffe68
 1a0:	79745f74 	ldmdbvc	r4!, {r2, r4, r5, r6, r8, r9, sl, fp, ip, lr}^
 1a4:	2e736570 	mrccs	5, 3, r6, cr3, cr0, {3}
 1a8:	00010068 	andeq	r0, r1, r8, rrx
 1ac:	74735f00 	ldrbtvc	r5, [r3], #-3840	; 0xfffff100
 1b0:	746e6964 	strbtvc	r6, [lr], #-2404	; 0xfffff69c
 1b4:	0200682e 	andeq	r6, r0, #3014656	; 0x2e0000
 1b8:	6d630000 	stclvs	0, cr0, [r3, #-0]
 1bc:	00682e33 	rsbeq	r2, r8, r3, lsr lr
 1c0:	00000003 	andeq	r0, r0, r3
 1c4:	b4020500 	strlt	r0, [r2], #-1280	; 0xfffffb00
 1c8:	17000004 	strne	r0, [r0, -r4]
 1cc:	3d2f2f4b 	stccc	15, cr2, [pc, #-300]!	; a8 <_text+0xa8>
 1d0:	933d3d83 	teqls	sp, #8384	; 0x20c0
 1d4:	2f312f30 	svccs	0x00312f30
 1d8:	09024b3d 	stmdbeq	r2, {r0, r2, r3, r4, r5, r8, r9, fp, lr}
 1dc:	0d010100 	stfeqs	f0, [r1, #-0]
 1e0:	02000002 	andeq	r0, r0, #2
 1e4:	0000b900 	andeq	fp, r0, r0, lsl #18
 1e8:	fb010200 	blx	409f2 <_etext+0x3e2f9>
 1ec:	01000d0e 	tsteq	r0, lr, lsl #26
 1f0:	00010101 	andeq	r0, r1, r1, lsl #2
 1f4:	00010000 	andeq	r0, r1, r0
 1f8:	752f0100 	strvc	r0, [pc, #-256]!	; 100 <_text+0x100>
 1fc:	6c2f7273 	sfmvs	f7, 4, [pc], #-460	; 38 <_text+0x38>
 200:	672f6269 	strvs	r6, [pc, -r9, ror #4]!
 204:	612f6363 			; <UNDEFINED> instruction: 0x612f6363
 208:	6e2d6d72 	mcrvs	13, 1, r6, cr13, cr2, {3}
 20c:	2d656e6f 	stclcs	14, cr6, [r5, #-444]!	; 0xfffffe44
 210:	69626165 	stmdbvs	r2!, {r0, r2, r5, r6, r8, sp, lr}^
 214:	392e342f 	stmdbcc	lr!, {r0, r1, r2, r3, r5, sl, ip, sp}
 218:	692f332e 	stmdbvs	pc!, {r1, r2, r3, r5, r8, r9, ip, sp}	; <UNPREDICTABLE>
 21c:	756c636e 	strbvc	r6, [ip, #-878]!	; 0xfffffc92
 220:	2f006564 	svccs	0x00006564
 224:	2f727375 	svccs	0x00727375
 228:	6c636e69 	stclvs	14, cr6, [r3], #-420	; 0xfffffe5c
 22c:	2f656475 	svccs	0x00656475
 230:	6c77656e 	cfldr64vs	mvdx6, [r7], #-440	; 0xfffffe48
 234:	6d2f6269 	sfmvs	f6, 4, [pc, #-420]!	; 98 <_text+0x98>
 238:	69686361 	stmdbvs	r8!, {r0, r5, r6, r8, r9, sp, lr}^
 23c:	2f00656e 	svccs	0x0000656e
 240:	2f727375 	svccs	0x00727375
 244:	6c636e69 	stclvs	14, cr6, [r3], #-420	; 0xfffffe5c
 248:	2f656475 	svccs	0x00656475
 24c:	6c77656e 	cfldr64vs	mvdx6, [r7], #-440	; 0xfffffe48
 250:	732f6269 			; <UNDEFINED> instruction: 0x732f6269
 254:	00007379 	andeq	r7, r0, r9, ror r3
 258:	735f736f 	cmpvc	pc, #-1140850687	; 0xbc000001
 25c:	6f696474 	svcvs	0x00696474
 260:	0000632e 	andeq	r6, r0, lr, lsr #6
 264:	74730000 	ldrbtvc	r0, [r3], #-0
 268:	67726164 	ldrbvs	r6, [r2, -r4, ror #2]!
 26c:	0100682e 	tsteq	r0, lr, lsr #16
 270:	645f0000 	ldrbvs	r0, [pc], #-0	; 278 <FaultISR+0x4>
 274:	75616665 	strbvc	r6, [r1, #-1637]!	; 0xfffff99b
 278:	745f746c 	ldrbvc	r7, [pc], #-1132	; 280 <IntDefaultHandler+0x4>
 27c:	73657079 	cmnvc	r5, #121	; 0x79
 280:	0200682e 	andeq	r6, r0, #3014656	; 0x2e0000
 284:	735f0000 	cmpvc	pc, #0
 288:	6e696474 	mcrvs	4, 3, r6, cr9, cr4, {3}
 28c:	00682e74 	rsbeq	r2, r8, r4, ror lr
 290:	3c000003 	stccc	0, cr0, [r0], {3}
 294:	6c697562 	cfstr64vs	mvdx7, [r9], #-392	; 0xfffffe78
 298:	6e692d74 	mcrvs	13, 3, r2, cr9, cr4, {3}
 29c:	0000003e 	andeq	r0, r0, lr, lsr r0
 2a0:	05000000 	streq	r0, [r0, #-0]
 2a4:	00052802 	andeq	r2, r5, r2, lsl #16
 2a8:	4b4b1800 	blmi	12c62b0 <_etext+0x12c3bb7>
 2ac:	3d5a8a2f 	vldrcc	s17, [sl, #-188]	; 0xffffff44
 2b0:	3c062c75 	stccc	12, cr2, [r6], {117}	; 0x75
 2b4:	85214106 	strhi	r4, [r1, #-262]!	; 0xfffffefa
 2b8:	3c3c0659 	ldccc	6, cr0, [ip], #-356	; 0xfffffe9c
 2bc:	062e3c3c 			; <UNDEFINED> instruction: 0x062e3c3c
 2c0:	06596921 	ldrbeq	r6, [r9], -r1, lsr #18
 2c4:	3c3c3c3c 	ldccc	12, cr3, [ip], #-240	; 0xffffff10
 2c8:	062e3c3c 			; <UNDEFINED> instruction: 0x062e3c3c
 2cc:	2f596921 	svccs	0x00596921
 2d0:	3d5a3030 	ldclcc	0, cr3, [sl, #-192]	; 0xffffff40
 2d4:	4b5b215b 	blmi	16c8848 <_etext+0x16c614f>
 2d8:	063a5921 	ldrteq	r5, [sl], -r1, lsr #18
 2dc:	214f063c 	cmpcs	pc, ip, lsr r6	; <UNPREDICTABLE>
 2e0:	4c2f595b 	stcmi	9, cr5, [pc], #-364	; 17c <_text+0x17c>
 2e4:	3d063c06 	stccc	12, cr3, [r6, #-24]	; 0xffffffe8
 2e8:	4bc94b30 	blmi	ff252fb0 <_stack_top+0xdf246fb0>
 2ec:	063c0647 	ldrteq	r0, [ip], -r7, asr #12
 2f0:	59772142 	ldmdbpl	r7!, {r1, r6, r8, sp}^
 2f4:	3c064c2f 	stccc	12, cr4, [r6], {47}	; 0x2f
 2f8:	4b303d06 	blmi	c0f718 <_etext+0xc0d01f>
 2fc:	06474bc9 	strbeq	r4, [r7], -r9, asr #23
 300:	2142063c 	cmpcs	r2, ip, lsr r6
 304:	4b741d03 	blmi	1d07718 <_etext+0x1d0501f>
 308:	67324b2f 	ldrvs	r4, [r2, -pc, lsr #22]!
 30c:	48244b3d 	stmdami	r4!, {r0, r2, r3, r4, r5, r8, r9, fp, lr}
 310:	e5213f23 	str	r3, [r1, #-3875]!	; 0xfffff0dd
 314:	2f91d72f 	svccs	0x0091d72f
 318:	1f57c984 	svcne	0x0057c984
 31c:	56c9303f 			; <UNDEFINED> instruction: 0x56c9303f
 320:	2f3ec740 	svccs	0x003ec740
 324:	d72fe5e5 	strle	lr, [pc, -r5, ror #11]!
 328:	e5832f91 	str	r2, [r3, #3985]	; 0xf91
 32c:	2f91d72f 	svccs	0x0091d72f
 330:	762f8383 	strtvc	r8, [pc], -r3, lsl #7
 334:	4b59312f 	blmi	164c7f8 <_etext+0x164a0ff>
 338:	4a56033e 	bmi	1581038 <_etext+0x157e93f>
 33c:	214a2d03 	cmpcs	sl, r3, lsl #26
 340:	4c5b3e94 	mrrcmi	14, 9, r3, fp, cr4
 344:	3d3d3e31 	ldccc	14, cr3, [sp, #-196]!	; 0xffffff3c
 348:	3c06675b 	stccc	7, cr6, [r6], {91}	; 0x5b
 34c:	063c3c3c 			; <UNDEFINED> instruction: 0x063c3c3c
 350:	063c063d 			; <UNDEFINED> instruction: 0x063c063d
 354:	5a3e593d 	bpl	f96850 <_etext+0xf94157>
 358:	49022230 	stmdbmi	r2, {r4, r5, r9, sp}
 35c:	83227514 			; <UNDEFINED> instruction: 0x83227514
 360:	75228322 	strvc	r8, [r2, #-802]!	; 0xfffffcde
 364:	23228322 			; <UNDEFINED> instruction: 0x23228322
 368:	75695b3e 	strbvc	r5, [r9, #-2878]!	; 0xfffff4c2
 36c:	3c06302f 	stccc	0, cr3, [r6], {47}	; 0x2f
 370:	214c0682 	smlalbbcs	r0, ip, r2, r6
 374:	2f2f6777 	svccs	0x002f6777
 378:	ac3c0630 	ldcge	6, cr0, [ip], #-192	; 0xffffff40
 37c:	77214c06 	strvc	r4, [r1, -r6, lsl #24]!
 380:	302f2f67 	eorcc	r2, pc, r7, ror #30
 384:	061e673d 			; <UNDEFINED> instruction: 0x061e673d
 388:	4b500690 	blmi	1401dd0 <_etext+0x13ff6d7>
 38c:	59692230 	stmdbpl	r9!, {r4, r5, r9, sp}^
 390:	3a3d214c 	bcc	f488c8 <_etext+0xf461cf>
 394:	064a4a06 	strbeq	r4, [sl], -r6, lsl #20
 398:	6769676b 	strbvs	r6, [r9, -fp, ror #14]!
 39c:	6721304b 	strvs	r3, [r1, -fp, asr #32]!
 3a0:	06376730 			; <UNDEFINED> instruction: 0x06376730
 3a4:	09030690 	stmdbeq	r3, {r4, r7, r9, sl}
 3a8:	5969214a 	stmdbpl	r9!, {r1, r3, r6, r8, sp}^
 3ac:	064c2f2f 	strbeq	r2, [ip], -pc, lsr #30
 3b0:	5906584a 	stmdbpl	r6, {r1, r3, r6, fp, ip, lr}
 3b4:	3d21313d 	stfccs	f3, [r1, #-244]!	; 0xffffff0c
 3b8:	4a063e83 	bmi	18fdcc <_etext+0x18d6d3>
 3bc:	06594b06 	ldrbeq	r4, [r9], -r6, lsl #22
 3c0:	5a4b064a 	bpl	12c1cf0 <_etext+0x12bf5f7>
 3c4:	4d3f8369 	ldcmi	3, cr8, [pc, #-420]!	; 228 <_text+0x228>
 3c8:	3c6a0376 	stclcc	3, cr0, [sl], #-472	; 0xfffffe28
 3cc:	3e4a1903 	cdpcc	9, 4, cr1, cr10, cr3, {0}
 3d0:	31594d21 	cmpcc	r9, r1, lsr #26
 3d4:	3059834b 	subscc	r8, r9, fp, asr #6
 3d8:	304b5b5a 	subcc	r5, fp, sl, asr fp
 3dc:	68062006 	stmdavs	r6, {r1, r2, sp}
 3e0:	4c59693d 	mrrcmi	9, 3, r6, r9, cr13
 3e4:	393d4b21 	ldmdbcc	sp!, {r0, r5, r8, r9, fp, lr}
 3e8:	02213e4f 	eoreq	r3, r1, #1264	; 0x4f0
 3ec:	01010006 	tsteq	r1, r6
 3f0:	00000064 	andeq	r0, r0, r4, rrx
 3f4:	001e0002 	andseq	r0, lr, r2
 3f8:	01020000 	mrseq	r0, (UNDEF: 2)
 3fc:	000d0efb 	strdeq	r0, [sp], -fp
 400:	01010101 	tsteq	r1, r1, lsl #2
 404:	01000000 	mrseq	r0, (UNDEF: 0)
 408:	00010000 	andeq	r0, r1, r0
 40c:	5f336d63 	svcpl	0x00336d63
 410:	00732e73 	rsbseq	r2, r3, r3, ror lr
 414:	00000000 	andeq	r0, r0, r0
 418:	a8020500 	stmdage	r2, {r8, sl}
 41c:	0300000e 	movweq	r0, #14
 420:	2f2f0119 	svccs	0x002f0119
 424:	21302f2f 	teqcs	r0, pc, lsr #30
 428:	23212122 			; <UNDEFINED> instruction: 0x23212122
 42c:	232f232f 			; <UNDEFINED> instruction: 0x232f232f
 430:	242f232f 	strtcs	r2, [pc], #-815	; 438 <main+0x4c>
 434:	212f272f 			; <UNDEFINED> instruction: 0x212f272f
 438:	21212521 			; <UNDEFINED> instruction: 0x21212521
 43c:	30212321 	eorcc	r2, r1, r1, lsr #6
 440:	2f232f2f 	svccs	0x00232f2f
 444:	21232f23 			; <UNDEFINED> instruction: 0x21232f23
 448:	bc032123 	stflts	f2, [r3], {35}	; 0x23
 44c:	03312e7f 	teqeq	r1, #2032	; 0x7f0
 450:	02362e1f 	eorseq	r2, r6, #496	; 0x1f0
 454:	01010002 	tsteq	r1, r2
 458:	0000019b 	muleq	r0, fp, r1
 45c:	00a00002 	adceq	r0, r0, r2
 460:	01020000 	mrseq	r0, (UNDEF: 2)
 464:	000d0efb 	strdeq	r0, [sp], -fp
 468:	01010101 	tsteq	r1, r1, lsl #2
 46c:	01000000 	mrseq	r0, (UNDEF: 0)
 470:	2f010000 	svccs	0x00010000
 474:	2f727375 	svccs	0x00727375
 478:	6c636e69 	stclvs	14, cr6, [r3], #-420	; 0xfffffe5c
 47c:	2f656475 	svccs	0x00656475
 480:	6c77656e 	cfldr64vs	mvdx6, [r7], #-440	; 0xfffffe48
 484:	6d2f6269 	sfmvs	f6, 4, [pc, #-420]!	; 2e8 <task1_entry+0x24>
 488:	69686361 	stmdbvs	r8!, {r0, r5, r6, r8, r9, sp, lr}^
 48c:	2f00656e 	svccs	0x0000656e
 490:	2f727375 	svccs	0x00727375
 494:	6c636e69 	stclvs	14, cr6, [r3], #-420	; 0xfffffe5c
 498:	2f656475 	svccs	0x00656475
 49c:	6c77656e 	cfldr64vs	mvdx6, [r7], #-440	; 0xfffffe48
 4a0:	732f6269 			; <UNDEFINED> instruction: 0x732f6269
 4a4:	69007379 	stmdbvs	r0, {r0, r3, r4, r5, r6, r8, r9, ip, sp, lr}
 4a8:	756c636e 	strbvc	r6, [ip, #-878]!	; 0xfffffc92
 4ac:	00006564 	andeq	r6, r0, r4, ror #10
 4b0:	6b736174 	blvs	1cd8a88 <_etext+0x1cd638f>
 4b4:	0000632e 	andeq	r6, r0, lr, lsr #6
 4b8:	645f0000 	ldrbvs	r0, [pc], #-0	; 4c0 <init_systick+0xc>
 4bc:	75616665 	strbvc	r6, [r1, #-1637]!	; 0xfffff99b
 4c0:	745f746c 	ldrbvc	r7, [pc], #-1132	; 4c8 <init_systick+0x14>
 4c4:	73657079 	cmnvc	r5, #121	; 0x79
 4c8:	0100682e 	tsteq	r0, lr, lsr #16
 4cc:	735f0000 	cmpvc	pc, #0
 4d0:	6e696474 	mcrvs	4, 3, r6, cr9, cr4, {3}
 4d4:	00682e74 	rsbeq	r2, r8, r4, ror lr
 4d8:	6c000002 	stcvs	0, cr0, [r0], {2}
 4dc:	682e6269 	stmdavs	lr!, {r0, r3, r5, r6, r9, sp, lr}
 4e0:	00000300 	andeq	r0, r0, r0, lsl #6
 4e4:	6b736174 	blvs	1cd8abc <_etext+0x1cd63c3>
 4e8:	0300682e 	movweq	r6, #2094	; 0x82e
 4ec:	76650000 	strbtvc	r0, [r5], -r0
 4f0:	2e746e65 	cdpcs	14, 7, cr6, cr4, cr5, {3}
 4f4:	00030068 	andeq	r0, r3, r8, rrx
 4f8:	2e736f00 	cdpcs	15, 7, cr6, cr3, cr0, {0}
 4fc:	00030068 	andeq	r0, r3, r8, rrx
 500:	05000000 	streq	r0, [r0, #-0]
 504:	000f2c02 	andeq	r2, pc, r2, lsl #24
 508:	01130300 	tsteq	r3, r0, lsl #6
 50c:	4b75324b 	blmi	1d4ce40 <_etext+0x1d4a747>
 510:	67676775 			; <UNDEFINED> instruction: 0x67676775
 514:	67676767 	strbvs	r6, [r7, -r7, ror #14]!
 518:	67676767 	strbvs	r6, [r7, -r7, ror #14]!
 51c:	68676767 	stmdavs	r7!, {r0, r1, r2, r5, r6, r8, r9, sl, sp, lr}^
 520:	5a3d3d3e 	bpl	f4fa20 <_etext+0xf4d327>
 524:	c9593d3d 	ldmdbgt	r9, {r0, r2, r3, r4, r5, r8, sl, fp, ip, sp}^
 528:	3d3d3e4d 	ldccc	14, cr3, [sp, #-308]!	; 0xfffffecc
 52c:	3e3d3d4d 	cdpcc	13, 3, cr3, cr13, cr13, {2}
 530:	4b3f3dbd 	blmi	fcfc2c <_etext+0xfcd533>
 534:	3d593d23 	ldclcc	13, cr3, [r9, #-140]	; 0xffffff74
 538:	a1213d32 			; <UNDEFINED> instruction: 0xa1213d32
 53c:	2f694b2f 	svccs	0x00694b2f
 540:	4b3d3d4b 	blmi	f4fa74 <_etext+0xf4d37b>
 544:	67424ba1 	strbvs	r4, [r2, -r1, lsr #23]
 548:	5b2f3d5a 	blpl	bcfab8 <_etext+0xbcd3bf>
 54c:	3d3f754b 	cfldr32cc	mvfx7, [pc, #-300]!	; 428 <main+0x3c>
 550:	333d2f3d 	teqcc	sp, #61, 30	; 0xf4
 554:	923d3d21 	eorsls	r3, sp, #2112	; 0x840
 558:	033d604b 	teqeq	sp, #75	; 0x4b
 55c:	17033c71 	smlsdxne	r3, r1, ip, r3
 560:	f3e5834a 			; <UNDEFINED> instruction: 0xf3e5834a
 564:	2f3d4ef3 	svccs	0x003d4ef3
 568:	2f3d3da1 	svccs	0x003d3da1
 56c:	9d3d3d3d 	ldcls	13, cr3, [sp, #-244]!	; 0xffffff0c
 570:	40063c06 	andmi	r3, r6, r6, lsl #24
 574:	3f083d83 	svccc	0x00083d83
 578:	212f3d3d 			; <UNDEFINED> instruction: 0x212f3d3d
 57c:	2f3d4b5b 	svccs	0x003d4b5b
 580:	4b3e3d3f 	blmi	f8fa84 <_etext+0xf8d38b>
 584:	3d5b3d68 	ldclcc	13, cr3, [fp, #-416]	; 0xfffffe60
 588:	319f4b3d 	orrscc	r4, pc, sp, lsr fp	; <UNPREDICTABLE>
 58c:	4b445b3d 	blmi	1117288 <_etext+0x1114b8f>
 590:	4b852fad 	blmi	fe14c44c <_stack_top+0xde14044c>
 594:	4b8567d7 	blmi	fe15a4f8 <_stack_top+0xde14e4f8>
 598:	8568d7d7 	strbhi	sp, [r8, #-2007]!	; 0xfffff829
 59c:	67673d59 			; <UNDEFINED> instruction: 0x67673d59
 5a0:	67674b69 	strbvs	r4, [r7, -r9, ror #22]!
 5a4:	683f4b69 	ldmdavs	pc!, {r0, r3, r5, r6, r8, r9, fp, lr}	; <UNPREDICTABLE>
 5a8:	593d6875 	ldmdbpl	sp!, {r0, r2, r4, r5, r6, fp, sp, lr}
 5ac:	4b5b3d34 	blmi	16cfa84 <_etext+0x16cd38b>
 5b0:	6791673e 			; <UNDEFINED> instruction: 0x6791673e
 5b4:	4d3d313d 	ldfmis	f3, [sp, #-244]!	; 0xffffff0c
 5b8:	68d7d74b 	ldmvs	r7, {r0, r1, r3, r6, r8, r9, sl, ip, lr, pc}^
 5bc:	69674b85 	stmdbvs	r7!, {r0, r2, r7, r8, r9, fp, lr}^
 5c0:	693d3d67 	ldmdbvs	sp!, {r0, r1, r2, r5, r6, r8, sl, fp, ip, sp}
 5c4:	4b673e4b 	blmi	19cfef8 <_etext+0x19cd7ff>
 5c8:	694b3f67 	stmdbvs	fp, {r0, r1, r2, r5, r6, r8, r9, sl, fp, ip, sp}^
 5cc:	693d3159 	ldmdbvs	sp!, {r0, r3, r4, r6, r8, ip, sp}
 5d0:	3d4c3e4b 	stclcc	14, cr3, [ip, #-300]	; 0xfffffed4
 5d4:	593d3f4d 	ldmdbpl	sp!, {r0, r2, r3, r6, r8, r9, sl, fp, ip, sp}
 5d8:	3d77213e 	ldfcce	f2, [r7, #-248]!	; 0xffffff08
 5dc:	85595a4c 	ldrbhi	r5, [r9, #-2636]	; 0xfffff5b4
 5e0:	595b4b30 	ldmdbpl	fp, {r4, r5, r8, r9, fp, lr}^
 5e4:	4b4b4b3e 	blmi	12d32e4 <_etext+0x12d0beb>
 5e8:	3f3d4c4b 	svccc	0x003d4c4b
 5ec:	67673d4b 	strbvs	r3, [r7, -fp, asr #26]!
 5f0:	0d026767 	stceq	7, cr6, [r2, #-412]	; 0xfffffe64
 5f4:	31010100 	mrscc	r0, (UNDEF: 17)
 5f8:	02000001 	andeq	r0, r0, #1
 5fc:	00008200 	andeq	r8, r0, r0, lsl #4
 600:	fb010200 	blx	40e0a <_etext+0x3e711>
 604:	01000d0e 	tsteq	r0, lr, lsl #26
 608:	00010101 	andeq	r0, r1, r1, lsl #2
 60c:	00010000 	andeq	r0, r1, r0
 610:	752f0100 	strvc	r0, [pc, #-256]!	; 518 <trigger_pend_sv+0x14>
 614:	692f7273 	stmdbvs	pc!, {r0, r1, r4, r5, r6, r9, ip, sp, lr}	; <UNPREDICTABLE>
 618:	756c636e 	strbvc	r6, [ip, #-878]!	; 0xfffffc92
 61c:	6e2f6564 	cfsh64vs	mvdx6, mvdx15, #52
 620:	696c7765 	stmdbvs	ip!, {r0, r2, r5, r6, r8, r9, sl, ip, sp, lr}^
 624:	616d2f62 	cmnvs	sp, r2, ror #30
 628:	6e696863 	cdpvs	8, 6, cr6, cr9, cr3, {3}
 62c:	752f0065 	strvc	r0, [pc, #-101]!	; 5cf <is_hex_asc+0xf>
 630:	692f7273 	stmdbvs	pc!, {r0, r1, r4, r5, r6, r9, ip, sp, lr}	; <UNPREDICTABLE>
 634:	756c636e 	strbvc	r6, [ip, #-878]!	; 0xfffffc92
 638:	6e2f6564 	cfsh64vs	mvdx6, mvdx15, #52
 63c:	696c7765 	stmdbvs	ip!, {r0, r2, r5, r6, r8, r9, sl, ip, sp, lr}^
 640:	79732f62 	ldmdbvc	r3!, {r1, r5, r6, r8, r9, sl, fp, sp}^
 644:	6e690073 	mcrvs	0, 3, r0, cr9, cr3, {3}
 648:	64756c63 	ldrbtvs	r6, [r5], #-3171	; 0xfffff39d
 64c:	6c000065 	stcvs	0, cr0, [r0], {101}	; 0x65
 650:	632e6269 			; <UNDEFINED> instruction: 0x632e6269
 654:	00000000 	andeq	r0, r0, r0
 658:	6665645f 			; <UNDEFINED> instruction: 0x6665645f
 65c:	746c7561 	strbtvc	r7, [ip], #-1377	; 0xfffffa9f
 660:	7079745f 	rsbsvc	r7, r9, pc, asr r4
 664:	682e7365 	stmdavs	lr!, {r0, r2, r5, r6, r8, r9, ip, sp, lr}
 668:	00000100 	andeq	r0, r0, r0, lsl #2
 66c:	6474735f 	ldrbtvs	r7, [r4], #-863	; 0xfffffca1
 670:	2e746e69 	cdpcs	14, 7, cr6, cr4, cr9, {3}
 674:	00020068 	andeq	r0, r2, r8, rrx
 678:	62696c00 	rsbvs	r6, r9, #0, 24
 67c:	0300682e 	movweq	r6, #2094	; 0x82e
 680:	00000000 	andeq	r0, r0, r0
 684:	17c00205 	strbne	r0, [r0, r5, lsl #4]
 688:	4b150000 	blmi	540690 <_etext+0x53df97>
 68c:	212f5b3d 			; <UNDEFINED> instruction: 0x212f5b3d
 690:	6991595b 	ldmibvs	r1, {r0, r1, r3, r4, r6, r8, fp, ip, lr}
 694:	4b5b9f59 	blmi	16e8400 <_etext+0x16e5d07>
 698:	592e1503 	stmdbpl	lr!, {r0, r1, r8, sl, ip}
 69c:	67916775 			; <UNDEFINED> instruction: 0x67916775
 6a0:	3f846791 	svccc	0x00846791
 6a4:	3d4b6921 	stclcc	9, cr6, [fp, #-132]	; 0xffffff7c
 6a8:	4c5b3e3d 	mrrcmi	14, 3, r3, fp, cr13
 6ac:	4d4c3d3d 	stclmi	13, cr3, [ip, #-244]	; 0xffffff0c
 6b0:	3e3d2f4b 	cdpcc	15, 3, cr2, cr13, cr11, {2}
 6b4:	2f4b7721 	svccs	0x004b7721
 6b8:	213e4b2f 	teqcs	lr, pc, lsr #22
 6bc:	2f2f4b69 	svccs	0x002f4b69
 6c0:	69213e4b 	stmdbvs	r1!, {r0, r1, r3, r6, r9, sl, fp, ip, sp}
 6c4:	3e3d2f4b 	cdpcc	15, 3, cr2, cr13, cr11, {2}
 6c8:	2f4b7721 	svccs	0x004b7721
 6cc:	77213e3d 			; <UNDEFINED> instruction: 0x77213e3d
 6d0:	2f2f2f4c 	svccs	0x002f2f4c
 6d4:	3d2f233d 	stccc	3, cr2, [pc, #-244]!	; 5e8 <is_hex_asc+0x28>
 6d8:	3d3d2f4b 	ldccc	15, cr2, [sp, #-300]!	; 0xfffffed4
 6dc:	063c0638 			; <UNDEFINED> instruction: 0x063c0638
 6e0:	3e3d3d43 	cdpcc	13, 3, cr3, cr13, cr3, {2}
 6e4:	2f596922 	svccs	0x00596922
 6e8:	2f233d2f 	svccs	0x00233d2f
 6ec:	3d3d3d3e 	ldccc	13, cr3, [sp, #-248]!	; 0xffffff08
 6f0:	69215a3d 	stmdbvs	r1!, {r0, r2, r3, r4, r5, r9, fp, ip, lr}
 6f4:	3d2f2f59 	stccc	15, cr2, [pc, #-356]!	; 598 <is_asc+0xc>
 6f8:	3d3e2f23 	ldccc	15, cr2, [lr, #-140]!	; 0xffffff74
 6fc:	5a3d3d3d 	bpl	f4fbf8 <_etext+0xf4d4ff>
 700:	2f4b6921 	svccs	0x004b6921
 704:	233d302f 	teqcs	sp, #47	; 0x2f
 708:	2f4b3d2f 	svccs	0x004b3d2f
 70c:	3d3d3d23 	ldccc	13, cr3, [sp, #-140]!	; 0xffffff74
 710:	215a3d3d 	cmpcs	sl, sp, lsr sp
 714:	302f5977 	eorcc	r5, pc, r7, ror r9	; <UNPREDICTABLE>
 718:	40063c06 	andmi	r3, r6, r6, lsl #24
 71c:	3c063d3d 	stccc	13, cr3, [r6], {61}	; 0x3d
 720:	3d3d4006 	ldccc	0, cr4, [sp, #-24]!	; 0xffffffe8
 724:	02213e59 	eoreq	r3, r1, #1424	; 0x590
 728:	01010003 	tsteq	r1, r3
 72c:	000000f9 	strdeq	r0, [r0], -r9
 730:	00a10002 	adceq	r0, r1, r2
 734:	01020000 	mrseq	r0, (UNDEF: 2)
 738:	000d0efb 	strdeq	r0, [sp], -fp
 73c:	01010101 	tsteq	r1, r1, lsl #2
 740:	01000000 	mrseq	r0, (UNDEF: 0)
 744:	2f010000 	svccs	0x00010000
 748:	2f727375 	svccs	0x00727375
 74c:	6c636e69 	stclvs	14, cr6, [r3], #-420	; 0xfffffe5c
 750:	2f656475 	svccs	0x00656475
 754:	6c77656e 	cfldr64vs	mvdx6, [r7], #-440	; 0xfffffe48
 758:	6d2f6269 	sfmvs	f6, 4, [pc, #-420]!	; 5bc <is_asc+0x30>
 75c:	69686361 	stmdbvs	r8!, {r0, r5, r6, r8, r9, sp, lr}^
 760:	2f00656e 	svccs	0x0000656e
 764:	2f727375 	svccs	0x00727375
 768:	6c636e69 	stclvs	14, cr6, [r3], #-420	; 0xfffffe5c
 76c:	2f656475 	svccs	0x00656475
 770:	6c77656e 	cfldr64vs	mvdx6, [r7], #-440	; 0xfffffe48
 774:	732f6269 			; <UNDEFINED> instruction: 0x732f6269
 778:	69007379 	stmdbvs	r0, {r0, r3, r4, r5, r6, r8, r9, ip, sp, lr}
 77c:	756c636e 	strbvc	r6, [ip, #-878]!	; 0xfffffc92
 780:	00006564 	andeq	r6, r0, r4, ror #10
 784:	6e657665 	cdpvs	6, 6, cr7, cr5, cr5, {3}
 788:	00632e74 	rsbeq	r2, r3, r4, ror lr
 78c:	5f000000 	svcpl	0x00000000
 790:	61666564 	cmnvs	r6, r4, ror #10
 794:	5f746c75 	svcpl	0x00746c75
 798:	65707974 	ldrbvs	r7, [r0, #-2420]!	; 0xfffff68c
 79c:	00682e73 	rsbeq	r2, r8, r3, ror lr
 7a0:	5f000001 	svcpl	0x00000001
 7a4:	69647473 	stmdbvs	r4!, {r0, r1, r4, r5, r6, sl, ip, sp, lr}^
 7a8:	682e746e 	stmdavs	lr!, {r1, r2, r3, r5, r6, sl, ip, sp, lr}
 7ac:	00000200 	andeq	r0, r0, r0, lsl #4
 7b0:	2e62696c 	cdpcs	9, 6, cr6, cr2, cr12, {3}
 7b4:	00030068 	andeq	r0, r3, r8, rrx
 7b8:	73617400 	cmnvc	r1, #0, 8
 7bc:	00682e6b 	rsbeq	r2, r8, fp, ror #28
 7c0:	65000003 	strvs	r0, [r0, #-3]
 7c4:	746e6576 	strbtvc	r6, [lr], #-1398	; 0xfffffa8a
 7c8:	0300682e 	movweq	r6, #2094	; 0x82e
 7cc:	736f0000 	cmnvc	pc, #0
 7d0:	0300682e 	movweq	r6, #2094	; 0x82e
 7d4:	00000000 	andeq	r0, r0, r0
 7d8:	1bc00205 	blne	ff000ff4 <_stack_top+0xdeff4ff4>
 7dc:	67160000 	ldrvs	r0, [r6, -r0]
 7e0:	754d593d 	strbvc	r5, [sp, #-2365]	; 0xfffff6c3
 7e4:	3e3d673e 	mrccc	7, 1, r6, cr13, cr14, {1}
 7e8:	4d3d833d 	ldcmi	3, cr8, [sp, #-244]!	; 0xffffff0c
 7ec:	2f673f3d 	svccs	0x00673f3d
 7f0:	3d913e30 	ldccc	14, cr3, [r1, #192]	; 0xc0
 7f4:	4b683d3d 	blmi	1a0fcf0 <_etext+0x1a0d5f7>
 7f8:	213d3f3e 	teqcs	sp, lr, lsr pc
 7fc:	913e675b 	teqls	lr, fp, asr r7
 800:	683d3d3d 	ldmdavs	sp!, {r0, r2, r3, r4, r5, r8, sl, fp, ip, sp}
 804:	2f674d3d 	svccs	0x00674d3d
 808:	674b3e2f 	strbvs	r3, [fp, -pc, lsr #28]
 80c:	3d3d3d21 	ldccc	13, cr3, [sp, #-132]!	; 0xffffff7c
 810:	4b673d3d 	blmi	19cfd0c <_etext+0x19cd613>
 814:	3c76033e 	ldclcc	3, cr0, [r6], #-248	; 0xffffff08
 818:	3d900d03 	ldccc	13, cr0, [r0, #12]
 81c:	2f4ba121 	svccs	0x004ba121
 820:	213d683e 	teqcs	sp, lr, lsr r8
 824:	01000402 	tsteq	r0, r2, lsl #8
 828:	0000f201 	andeq	pc, r0, r1, lsl #4
 82c:	a8000200 	stmdage	r0, {r9}
 830:	02000000 	andeq	r0, r0, #0
 834:	0d0efb01 	vstreq	d15, [lr, #-4]
 838:	01010100 	mrseq	r0, (UNDEF: 17)
 83c:	00000001 	andeq	r0, r0, r1
 840:	01000001 	tsteq	r0, r1
 844:	7273752f 	rsbsvc	r7, r3, #197132288	; 0xbc00000
 848:	636e692f 	cmnvs	lr, #770048	; 0xbc000
 84c:	6564756c 	strbvs	r7, [r4, #-1388]!	; 0xfffffa94
 850:	77656e2f 	strbvc	r6, [r5, -pc, lsr #28]!
 854:	2f62696c 	svccs	0x0062696c
 858:	6863616d 	stmdavs	r3!, {r0, r2, r3, r5, r6, r8, sp, lr}^
 85c:	00656e69 	rsbeq	r6, r5, r9, ror #28
 860:	7273752f 	rsbsvc	r7, r3, #197132288	; 0xbc00000
 864:	636e692f 	cmnvs	lr, #770048	; 0xbc000
 868:	6564756c 	strbvs	r7, [r4, #-1388]!	; 0xfffffa94
 86c:	77656e2f 	strbvc	r6, [r5, -pc, lsr #28]!
 870:	2f62696c 	svccs	0x0062696c
 874:	00737973 	rsbseq	r7, r3, r3, ror r9
 878:	6c636e69 	stclvs	14, cr6, [r3], #-420	; 0xfffffe5c
 87c:	00656475 	rsbeq	r6, r5, r5, ror r4
 880:	6d657300 	stclvs	3, cr7, [r5, #-0]
 884:	0000632e 	andeq	r6, r0, lr, lsr #6
 888:	645f0000 	ldrbvs	r0, [pc], #-0	; 890 <printf_dec+0x138>
 88c:	75616665 	strbvc	r6, [r1, #-1637]!	; 0xfffff99b
 890:	745f746c 	ldrbvc	r7, [pc], #-1132	; 898 <printf_dec+0x140>
 894:	73657079 	cmnvc	r5, #121	; 0x79
 898:	0100682e 	tsteq	r0, lr, lsr #16
 89c:	735f0000 	cmpvc	pc, #0
 8a0:	6e696474 	mcrvs	4, 3, r6, cr9, cr4, {3}
 8a4:	00682e74 	rsbeq	r2, r8, r4, ror lr
 8a8:	6c000002 	stcvs	0, cr0, [r0], {2}
 8ac:	682e6269 	stmdavs	lr!, {r0, r3, r5, r6, r9, sp, lr}
 8b0:	00000300 	andeq	r0, r0, r0, lsl #6
 8b4:	6b736174 	blvs	1cd8e8c <_etext+0x1cd6793>
 8b8:	0300682e 	movweq	r6, #2094	; 0x82e
 8bc:	76650000 	strbtvc	r0, [r5], -r0
 8c0:	2e746e65 	cdpcs	14, 7, cr6, cr4, cr5, {3}
 8c4:	00030068 	andeq	r0, r3, r8, rrx
 8c8:	6d657300 	stclvs	3, cr7, [r5, #-0]
 8cc:	0300682e 	movweq	r6, #2094	; 0x82e
 8d0:	736f0000 	cmnvc	pc, #0
 8d4:	0300682e 	movweq	r6, #2094	; 0x82e
 8d8:	00000000 	andeq	r0, r0, r0
 8dc:	1dcc0205 	sfmne	f0, 2, [ip, #20]
 8e0:	67170000 	ldrvs	r0, [r7, -r0]
 8e4:	764c3d5a 			; <UNDEFINED> instruction: 0x764c3d5a
 8e8:	4b3e593f 	blmi	f96dec <_etext+0xf946f3>
 8ec:	ad303d59 	ldcge	13, cr3, [r0, #-356]!	; 0xfffffe9c
 8f0:	773f2f3d 			; <UNDEFINED> instruction: 0x773f2f3d
 8f4:	594b3e4b 	stmdbpl	fp, {r0, r1, r3, r6, r9, sl, fp, ip, sp}^
 8f8:	3e3d303d 	mrccc	0, 1, r3, cr13, cr13, {1}
 8fc:	753d4b77 	ldrvc	r4, [sp, #-2935]!	; 0xfffff489
 900:	594d7575 	stmdbpl	sp, {r0, r2, r4, r5, r6, r8, sl, ip, sp, lr}^
 904:	67064a06 	strvs	r4, [r6, -r6, lsl #20]
 908:	59693d4d 	stmdbpl	r9!, {r0, r2, r3, r6, r8, sl, fp, ip, sp}^
 90c:	754b4b3d 	strbvc	r4, [fp, #-2877]	; 0xfffff4c3
 910:	3e4b4d3d 	mcrcc	13, 2, r4, cr11, cr13, {1}
 914:	3d3e3d75 	ldccc	13, cr3, [lr, #-468]!	; 0xfffffe2c
 918:	04022130 	streq	r2, [r2], #-304	; 0xfffffed0
 91c:	12010100 	andne	r0, r1, #0, 2
 920:	02000001 	andeq	r0, r0, #1
 924:	0000b000 	andeq	fp, r0, r0
 928:	fb010200 	blx	41132 <_etext+0x3ea39>
 92c:	01000d0e 	tsteq	r0, lr, lsl #26
 930:	00010101 	andeq	r0, r1, r1, lsl #2
 934:	00010000 	andeq	r0, r1, r0
 938:	752f0100 	strvc	r0, [pc, #-256]!	; 840 <printf_dec+0xe8>
 93c:	692f7273 	stmdbvs	pc!, {r0, r1, r4, r5, r6, r9, ip, sp, lr}	; <UNPREDICTABLE>
 940:	756c636e 	strbvc	r6, [ip, #-878]!	; 0xfffffc92
 944:	6e2f6564 	cfsh64vs	mvdx6, mvdx15, #52
 948:	696c7765 	stmdbvs	ip!, {r0, r2, r5, r6, r8, r9, sl, ip, sp, lr}^
 94c:	616d2f62 	cmnvs	sp, r2, ror #30
 950:	6e696863 	cdpvs	8, 6, cr6, cr9, cr3, {3}
 954:	752f0065 	strvc	r0, [pc, #-101]!	; 8f7 <printf_dec+0x19f>
 958:	692f7273 	stmdbvs	pc!, {r0, r1, r4, r5, r6, r9, ip, sp, lr}	; <UNPREDICTABLE>
 95c:	756c636e 	strbvc	r6, [ip, #-878]!	; 0xfffffc92
 960:	6e2f6564 	cfsh64vs	mvdx6, mvdx15, #52
 964:	696c7765 	stmdbvs	ip!, {r0, r2, r5, r6, r8, r9, sl, ip, sp, lr}^
 968:	79732f62 	ldmdbvc	r3!, {r1, r5, r6, r8, r9, sl, fp, sp}^
 96c:	6e690073 	mcrvs	0, 3, r0, cr9, cr3, {3}
 970:	64756c63 	ldrbtvs	r6, [r5], #-3171	; 0xfffff39d
 974:	6d000065 	stcvs	0, cr0, [r0, #-404]	; 0xfffffe6c
 978:	626c6961 	rsbvs	r6, ip, #1589248	; 0x184000
 97c:	632e786f 			; <UNDEFINED> instruction: 0x632e786f
 980:	00000000 	andeq	r0, r0, r0
 984:	6665645f 			; <UNDEFINED> instruction: 0x6665645f
 988:	746c7561 	strbtvc	r7, [ip], #-1377	; 0xfffffa9f
 98c:	7079745f 	rsbsvc	r7, r9, pc, asr r4
 990:	682e7365 	stmdavs	lr!, {r0, r2, r5, r6, r8, r9, ip, sp, lr}
 994:	00000100 	andeq	r0, r0, r0, lsl #2
 998:	6474735f 	ldrbtvs	r7, [r4], #-863	; 0xfffffca1
 99c:	2e746e69 	cdpcs	14, 7, cr6, cr4, cr9, {3}
 9a0:	00020068 	andeq	r0, r2, r8, rrx
 9a4:	62696c00 	rsbvs	r6, r9, #0, 24
 9a8:	0300682e 	movweq	r6, #2094	; 0x82e
 9ac:	61740000 	cmnvs	r4, r0
 9b0:	682e6b73 	stmdavs	lr!, {r0, r1, r4, r5, r6, r8, r9, fp, sp, lr}
 9b4:	00000300 	andeq	r0, r0, r0, lsl #6
 9b8:	6e657665 	cdpvs	6, 6, cr7, cr5, cr5, {3}
 9bc:	00682e74 	rsbeq	r2, r8, r4, ror lr
 9c0:	6d000003 	stcvs	0, cr0, [r0, #-12]
 9c4:	626c6961 	rsbvs	r6, ip, #1589248	; 0x184000
 9c8:	682e786f 	stmdavs	lr!, {r0, r1, r2, r3, r5, r6, fp, ip, sp, lr}
 9cc:	00000300 	andeq	r0, r0, r0, lsl #6
 9d0:	682e736f 	stmdavs	lr!, {r0, r1, r2, r3, r5, r6, r8, r9, ip, sp, lr}
 9d4:	00000300 	andeq	r0, r0, r0, lsl #6
 9d8:	02050000 	andeq	r0, r5, #0
 9dc:	00001f98 	muleq	r0, r8, pc	; <UNPREDICTABLE>
 9e0:	3d596717 	ldclcc	7, cr6, [r9, #-92]	; 0xffffffa4
 9e4:	3d3d3d3d 	ldccc	13, cr3, [sp, #-244]!	; 0xffffff0c
 9e8:	4c3e674d 	ldcmi	7, cr6, [lr], #-308	; 0xfffffecc
 9ec:	3e67bb59 	vmovcc.8	d7[6], fp
 9f0:	3dad303d 	stccc	0, cr3, [sp, #244]!	; 0xf4
 9f4:	693e5930 	ldmdbvs	lr!, {r4, r5, r8, fp, ip, lr}
 9f8:	594c3e59 	stmdbpl	ip, {r0, r3, r4, r6, r9, sl, fp, ip, sp}^
 9fc:	3d3e67bb 	ldccc	7, cr6, [lr, #-748]!	; 0xfffffd14
 a00:	773e3d30 			; <UNDEFINED> instruction: 0x773e3d30
 a04:	75303d67 	ldrvc	r3, [r0, #-3431]!	; 0xfffff299
 a08:	673f7575 			; <UNDEFINED> instruction: 0x673f7575
 a0c:	4b59313d 	blmi	164cf08 <_etext+0x164a80f>
 a10:	ad925a68 	vldrge	s10, [r2, #416]	; 0x1a0
 a14:	3d5a4067 	ldclcc	0, cr4, [sl, #-412]	; 0xfffffe64
 a18:	3e4b8521 	cdpcc	5, 4, cr8, cr11, cr1, {1}
 a1c:	3f3d3d75 	svccc	0x003d3d75
 a20:	3e4b4d3d 	mcrcc	13, 2, r4, cr11, cr13, {1}
 a24:	313d3d76 	teqcc	sp, r6, ror sp
 a28:	3d595b21 	vldrcc	d21, [r9, #-132]	; 0xffffff7c
 a2c:	3d754b4b 	fldmdbxcc	r5!, {d20-d56}	;@ Deprecated
 a30:	01000302 	tsteq	r0, r2, lsl #6
 a34:	00010301 	andeq	r0, r1, r1, lsl #6
 a38:	b2000200 	andlt	r0, r0, #0, 4
 a3c:	02000000 	andeq	r0, r0, #0
 a40:	0d0efb01 	vstreq	d15, [lr, #-4]
 a44:	01010100 	mrseq	r0, (UNDEF: 17)
 a48:	00000001 	andeq	r0, r0, r1
 a4c:	01000001 	tsteq	r0, r1
 a50:	7273752f 	rsbsvc	r7, r3, #197132288	; 0xbc00000
 a54:	636e692f 	cmnvs	lr, #770048	; 0xbc000
 a58:	6564756c 	strbvs	r7, [r4, #-1388]!	; 0xfffffa94
 a5c:	77656e2f 	strbvc	r6, [r5, -pc, lsr #28]!
 a60:	2f62696c 	svccs	0x0062696c
 a64:	6863616d 	stmdavs	r3!, {r0, r2, r3, r5, r6, r8, sp, lr}^
 a68:	00656e69 	rsbeq	r6, r5, r9, ror #28
 a6c:	7273752f 	rsbsvc	r7, r3, #197132288	; 0xbc00000
 a70:	636e692f 	cmnvs	lr, #770048	; 0xbc000
 a74:	6564756c 	strbvs	r7, [r4, #-1388]!	; 0xfffffa94
 a78:	77656e2f 	strbvc	r6, [r5, -pc, lsr #28]!
 a7c:	2f62696c 	svccs	0x0062696c
 a80:	00737973 	rsbseq	r7, r3, r3, ror r9
 a84:	6c636e69 	stclvs	14, cr6, [r3], #-420	; 0xfffffe5c
 a88:	00656475 	rsbeq	r6, r5, r5, ror r4
 a8c:	6d656d00 	stclvs	13, cr6, [r5, #-0]
 a90:	636f6c62 	cmnvs	pc, #25088	; 0x6200
 a94:	00632e6b 	rsbeq	r2, r3, fp, ror #28
 a98:	5f000000 	svcpl	0x00000000
 a9c:	61666564 	cmnvs	r6, r4, ror #10
 aa0:	5f746c75 	svcpl	0x00746c75
 aa4:	65707974 	ldrbvs	r7, [r0, #-2420]!	; 0xfffff68c
 aa8:	00682e73 	rsbeq	r2, r8, r3, ror lr
 aac:	5f000001 	svcpl	0x00000001
 ab0:	69647473 	stmdbvs	r4!, {r0, r1, r4, r5, r6, sl, ip, sp, lr}^
 ab4:	682e746e 	stmdavs	lr!, {r1, r2, r3, r5, r6, sl, ip, sp, lr}
 ab8:	00000200 	andeq	r0, r0, r0, lsl #4
 abc:	2e62696c 	cdpcs	9, 6, cr6, cr2, cr12, {3}
 ac0:	00030068 	andeq	r0, r3, r8, rrx
 ac4:	73617400 	cmnvc	r1, #0, 8
 ac8:	00682e6b 	rsbeq	r2, r8, fp, ror #28
 acc:	65000003 	strvs	r0, [r0, #-3]
 ad0:	746e6576 	strbtvc	r6, [lr], #-1398	; 0xfffffa8a
 ad4:	0300682e 	movweq	r6, #2094	; 0x82e
 ad8:	736f0000 	cmnvc	pc, #0
 adc:	0300682e 	movweq	r6, #2094	; 0x82e
 ae0:	656d0000 	strbvs	r0, [sp, #-0]!
 ae4:	6f6c626d 	svcvs	0x006c626d
 ae8:	682e6b63 	stmdavs	lr!, {r0, r1, r5, r6, r8, r9, fp, sp, lr}
 aec:	00000300 	andeq	r0, r0, r0, lsl #6
 af0:	02050000 	andeq	r0, r5, #0
 af4:	00002268 	andeq	r2, r0, r8, ror #4
 af8:	762f7516 			; <UNDEFINED> instruction: 0x762f7516
 afc:	3d5a233d 	ldclcc	3, cr2, [sl, #-244]	; 0xffffff0c
 b00:	215b3d3d 	cmpcs	fp, sp, lsr sp
 b04:	5047673d 	subpl	r6, r7, sp, lsr r7
 b08:	3e674d22 	cdpcc	13, 6, cr4, cr7, cr2, {1}
 b0c:	303d8383 	eorscc	r8, sp, r3, lsl #7
 b10:	592f3dad 	stmdbpl	pc!, {r0, r2, r3, r5, r7, r8, sl, fp, ip, sp}	; <UNPREDICTABLE>
 b14:	3e59693e 	mrccc	9, 2, r6, cr9, cr14, {1}
 b18:	303d8383 	eorscc	r8, sp, r3, lsl #7
 b1c:	595b233d 	ldmdbpl	fp, {r0, r2, r3, r4, r5, r8, r9, sp}^
 b20:	7575753d 	ldrbvc	r7, [r5, #-1341]!	; 0xfffffac3
 b24:	693d694d 	ldmdbvs	sp!, {r0, r2, r3, r6, r8, fp, sp, lr}
 b28:	4b833e59 	blmi	fe0d0494 <_stack_top+0xde0c4494>
 b2c:	4c3d754b 	cfldr32mi	mvfx7, [sp], #-300	; 0xfffffed4
 b30:	3e763e4b 	cdpcc	14, 7, cr3, cr6, cr11, {2}
 b34:	0221303d 	eoreq	r3, r1, #61	; 0x3d
 b38:	01010004 	tsteq	r1, r4
 b3c:	00000029 	andeq	r0, r0, r9, lsr #32
 b40:	00230002 	eoreq	r0, r3, r2
 b44:	01020000 	mrseq	r0, (UNDEF: 2)
 b48:	000d0efb 	strdeq	r0, [sp], -fp
 b4c:	01010101 	tsteq	r1, r1, lsl #2
 b50:	01000000 	mrseq	r0, (UNDEF: 0)
 b54:	00010000 	andeq	r0, r1, r0
 b58:	67616c66 	strbvs	r6, [r1, -r6, ror #24]!
 b5c:	6f72675f 	svcvs	0x0072675f
 b60:	632e7075 			; <UNDEFINED> instruction: 0x632e7075
 b64:	00000000 	andeq	r0, r0, r0
	...

Disassembly of section .debug_str:

00000000 <.debug_str>:
   0:	746e6d2f 	strbtvc	r6, [lr], #-3375	; 0xfffff2d1
   4:	772f652f 	strvc	r6, [pc, -pc, lsr #10]!
   8:	65746972 	ldrbvs	r6, [r4, #-2418]!	; 0xfffff68e
   c:	6f74725f 	svcvs	0x0074725f
  10:	6e695f73 	mcrvs	15, 3, r5, cr9, cr3, {3}
  14:	6164335f 	cmnvs	r4, pc, asr r3
  18:	312f7379 			; <UNDEFINED> instruction: 0x312f7379
  1c:	6c665f36 	stclvs	15, cr5, [r6], #-216	; 0xffffff28
  20:	67006761 	strvs	r6, [r0, -r1, ror #14]
  24:	6e66705f 	mcrvs	0, 3, r7, cr6, cr15, {2}
  28:	74636556 	strbtvc	r6, [r3], #-1366	; 0xfffffaaa
  2c:	0073726f 	rsbseq	r7, r3, pc, ror #4
  30:	69736e75 	ldmdbvs	r3!, {r0, r2, r4, r5, r6, r9, sl, fp, sp, lr}^
  34:	64656e67 	strbtvs	r6, [r5], #-3687	; 0xfffff199
  38:	61686320 	cmnvs	r8, r0, lsr #6
  3c:	68730072 	ldmdavs	r3!, {r1, r4, r5, r6}^
  40:	2074726f 	rsbscs	r7, r4, pc, ror #4
  44:	69736e75 	ldmdbvs	r3!, {r0, r2, r4, r5, r6, r9, sl, fp, sp, lr}^
  48:	64656e67 	strbtvs	r6, [r5], #-3687	; 0xfffff199
  4c:	746e6920 	strbtvc	r6, [lr], #-2336	; 0xfffff6e0
  50:	746e4900 	strbtvc	r4, [lr], #-2304	; 0xfffff700
  54:	61666544 	cmnvs	r6, r4, asr #10
  58:	48746c75 	ldmdami	r4!, {r0, r2, r4, r5, r6, sl, fp, sp, lr}^
  5c:	6c646e61 	stclvs	14, cr6, [r4], #-388	; 0xfffffe7c
  60:	46007265 	strmi	r7, [r0], -r5, ror #4
  64:	746c7561 	strbtvc	r7, [ip], #-1377	; 0xfffffa9f
  68:	00525349 	subseq	r5, r2, r9, asr #6
  6c:	676e6f6c 	strbvs	r6, [lr, -ip, ror #30]!
  70:	6e6f6c20 	cdpvs	12, 6, cr6, cr15, cr0, {1}
  74:	6e752067 	cdpvs	0, 7, cr2, cr5, cr7, {3}
  78:	6e676973 	mcrvs	9, 3, r6, cr7, cr3, {3}
  7c:	69206465 	stmdbvs	r0!, {r0, r2, r5, r6, sl, sp, lr}
  80:	4700746e 	strmi	r7, [r0, -lr, ror #8]
  84:	4320554e 			; <UNDEFINED> instruction: 0x4320554e
  88:	392e3420 	stmdbcc	lr!, {r5, sl, ip, sp}
  8c:	3220332e 	eorcc	r3, r0, #-1207959552	; 0xb8000000
  90:	30353130 	eorscc	r3, r5, r0, lsr r1
  94:	20393235 	eorscs	r3, r9, r5, lsr r2
  98:	65727028 	ldrbvs	r7, [r2, #-40]!	; 0xffffffd8
  9c:	656c6572 	strbvs	r6, [ip, #-1394]!	; 0xfffffa8e
  a0:	29657361 	stmdbcs	r5!, {r0, r5, r6, r8, r9, ip, sp, lr}^
  a4:	636d2d20 	cmnvs	sp, #32, 26	; 0x800
  a8:	633d7570 	teqvs	sp, #112, 10	; 0x1c000000
  ac:	6574726f 	ldrbvs	r7, [r4, #-623]!	; 0xfffffd91
  b0:	336d2d78 	cmncc	sp, #120, 26	; 0x1e00
  b4:	746d2d20 	strbtvc	r2, [sp], #-3360	; 0xfffff2e0
  b8:	626d7568 	rsbvs	r7, sp, #104, 10	; 0x1a000000
  bc:	20672d20 	rsbcs	r2, r7, r0, lsr #26
  c0:	7764672d 	strbvc	r6, [r4, -sp, lsr #14]!
  c4:	2d667261 	sfmcs	f7, 2, [r6, #-388]!	; 0xfffffe7c
  c8:	672d2032 			; <UNDEFINED> instruction: 0x672d2032
  cc:	69727473 	ldmdbvs	r2!, {r0, r1, r4, r5, r6, sl, ip, sp, lr}^
  d0:	642d7463 	strtvs	r7, [sp], #-1123	; 0xfffffb9d
  d4:	66726177 			; <UNDEFINED> instruction: 0x66726177
  d8:	304f2d20 	subcc	r2, pc, r0, lsr #26
  dc:	74732d20 	ldrbtvc	r2, [r3], #-3360	; 0xfffff2e0
  e0:	31633d64 	cmncc	r3, r4, ror #26
  e4:	662d2031 			; <UNDEFINED> instruction: 0x662d2031
  e8:	622d6f6e 	eorvs	r6, sp, #440	; 0x1b8
  ec:	746c6975 	strbtvc	r6, [ip], #-2421	; 0xfffff68b
  f0:	73006e69 	movwvc	r6, #3689	; 0xe69
  f4:	74657a69 	strbtvc	r7, [r5], #-2665	; 0xfffff597
  f8:	00657079 	rsbeq	r7, r5, r9, ror r0
  fc:	676e6f6c 	strbvs	r6, [lr, -ip, ror #30]!
 100:	6e6f6c20 	cdpvs	12, 6, cr6, cr15, cr0, {1}
 104:	6e692067 	cdpvs	0, 6, cr2, cr9, cr7, {3}
 108:	68730074 	ldmdavs	r3!, {r2, r4, r5, r6}^
 10c:	2074726f 	rsbscs	r7, r4, pc, ror #4
 110:	00746e69 	rsbseq	r6, r4, r9, ror #28
 114:	53696d4e 	cmnpl	r9, #4992	; 0x1380
 118:	6e690052 	mcrvs	0, 3, r0, cr9, cr2, {2}
 11c:	65765f74 	ldrbvs	r5, [r6, #-3956]!	; 0xfffff08c
 120:	726f7463 	rsbvc	r7, pc, #1660944384	; 0x63000000
 124:	6300632e 	movwvs	r6, #814	; 0x32e
 128:	6e61656c 	cdpvs	5, 6, cr6, cr1, cr12, {3}
 12c:	7261705f 	rsbvc	r7, r1, #95	; 0x5f
 130:	64006d61 	strvs	r6, [r0], #-3425	; 0xfffff29f
 134:	79616c65 	stmdbvc	r1!, {r0, r2, r5, r6, sl, fp, sp, lr}^
 138:	646f6e5f 	strbtvs	r6, [pc], #-3679	; 140 <_text+0x140>
 13c:	656d0065 	strbvs	r0, [sp, #-101]!	; 0xffffff9b
 140:	6c625f6d 	stclvs	15, cr5, [r2], #-436	; 0xfffffe4c
 144:	5f6b636f 	svcpl	0x006b636f
 148:	00676174 	rsbeq	r6, r7, r4, ror r1
 14c:	74696177 	strbtvc	r6, [r9], #-375	; 0xfffffe89
 150:	6576655f 	ldrbvs	r6, [r6, #-1375]!	; 0xfffffaa1
 154:	6500746e 	strvs	r7, [r0, #-1134]	; 0xfffffb92
 158:	746e6576 	strbtvc	r6, [lr], #-1398	; 0xfffffa8a
 15c:	6761745f 			; <UNDEFINED> instruction: 0x6761745f
 160:	6f6c6200 	svcvs	0x006c6200
 164:	735f6b63 	cmpvc	pc, #101376	; 0x18c00
 168:	00657a69 	rsbeq	r7, r5, r9, ror #20
 16c:	74617473 	strbtvc	r7, [r1], #-1139	; 0xfffffb8d
 170:	696c0065 	stmdbvs	ip!, {r0, r2, r5, r6}^
 174:	745f7473 	ldrbvc	r7, [pc], #-1139	; 17c <_text+0x17c>
 178:	69617700 	stmdbvs	r1!, {r8, r9, sl, ip, sp, lr}^
 17c:	76655f74 	uqsub16vc	r5, r5, r4
 180:	5f746e65 	svcpl	0x00746e65
 184:	75736572 	ldrbvc	r6, [r3, #-1394]!	; 0xfffffa8e
 188:	6c00746c 	cfstrsvs	mvf7, [r0], {108}	; 0x6c
 18c:	5f747369 	svcpl	0x00747369
 190:	65646f6e 	strbvs	r6, [r4, #-3950]!	; 0xfffff092
 194:	6c00745f 	cfstrsvs	mvf7, [r0], {95}	; 0x5f
 198:	5f747369 	svcpl	0x00747369
 19c:	00676174 	rsbeq	r6, r7, r4, ror r1
 1a0:	69755f5f 	ldmdbvs	r5!, {r0, r1, r2, r3, r4, r6, r8, r9, sl, fp, ip, lr}^
 1a4:	3233746e 	eorscc	r7, r3, #1845493760	; 0x6e000000
 1a8:	6e00745f 	cfmvsrvs	mvf0, r7
 1ac:	5f65646f 	svcpl	0x0065646f
 1b0:	6e756f63 	cdpvs	15, 7, cr6, cr5, cr3, {3}
 1b4:	696c0074 	stmdbvs	ip!, {r2, r4, r5, r6}^
 1b8:	6e5f7473 	mrcvs	4, 2, r7, cr15, cr3, {3}
 1bc:	5f65646f 	svcpl	0x0065646f
 1c0:	00676174 	rsbeq	r6, r7, r4, ror r1
 1c4:	6b736174 	blvs	1cd879c <_etext+0x1cd60a3>
 1c8:	74735f34 	ldrbtvc	r5, [r3], #-3892	; 0xfffff0cc
 1cc:	6174006b 	cmnvs	r4, fp, rrx
 1d0:	5f316b73 	svcpl	0x00316b73
 1d4:	006b7473 	rsbeq	r7, fp, r3, ror r4
 1d8:	6b736174 	blvs	1cd87b0 <_etext+0x1cd60b7>
 1dc:	7400745f 	strvc	r7, [r0], #-1119	; 0xfffffba1
 1e0:	346b7361 	strbtcc	r7, [fp], #-865	; 0xfffffc9f
 1e4:	746e655f 	strbtvc	r6, [lr], #-1375	; 0xfffffaa1
 1e8:	67007972 	smlsdxvs	r0, r2, r9, r7
 1ec:	78656e5f 	stmdavc	r5!, {r0, r1, r2, r3, r4, r6, r9, sl, fp, sp, lr}^
 1f0:	61745f74 	cmnvs	r4, r4, ror pc
 1f4:	45006b73 	strmi	r6, [r0, #-2931]	; 0xfffff48d
 1f8:	544e4556 	strbpl	r4, [lr], #-1366	; 0xfffffaaa
 1fc:	5059545f 	subspl	r5, r9, pc, asr r4
 200:	414d5f45 	cmpmi	sp, r5, asr #30
 204:	4f424c49 	svcmi	0x00424c49
 208:	655f0058 	ldrbvs	r0, [pc, #-88]	; 1b8 <_text+0x1b8>
 20c:	00737362 	rsbseq	r7, r3, r2, ror #6
 210:	6e657665 	cdpvs	6, 6, cr7, cr5, cr5, {3}
 214:	79745f74 	ldmdbvc	r4!, {r2, r4, r5, r6, r8, r9, sl, fp, ip, lr}^
 218:	745f6570 	ldrbvc	r6, [pc], #-1392	; 220 <_text+0x220>
 21c:	63006761 	movwvs	r6, #1889	; 0x761
 220:	6e61656c 	cdpvs	5, 6, cr6, cr1, cr12, {3}
 224:	755f5f00 	ldrbvc	r5, [pc, #-3840]	; fffff32c <_stack_top+0xdfff332c>
 228:	38746e69 	ldmdacc	r4!, {r0, r3, r5, r6, r9, sl, fp, sp, lr}^
 22c:	7400745f 	strvc	r7, [r0], #-1119	; 0xfffffba1
 230:	5f6b7361 	svcpl	0x006b7361
 234:	00676174 	rsbeq	r6, r7, r4, ror r1
 238:	636f6c62 	cmnvs	pc, #25088	; 0x6200
 23c:	696c5f6b 	stmdbvs	ip!, {r0, r1, r3, r5, r6, r8, r9, sl, fp, ip, lr}^
 240:	74007473 	strvc	r7, [r0], #-1139	; 0xfffffb8d
 244:	346b7361 	strbtcc	r7, [fp], #-865	; 0xfffffc9f
 248:	65766500 	ldrbvs	r6, [r6, #-1280]!	; 0xfffffb00
 24c:	745f746e 	ldrbvc	r7, [pc], #-1134	; 254 <_text+0x254>
 250:	5f657079 	svcpl	0x00657079
 254:	61740065 	cmnvs	r4, r5, rrx
 258:	5f326b73 	svcpl	0x00326b73
 25c:	006b7473 	rsbeq	r7, fp, r3, ror r4
 260:	63696c73 	cmnvs	r9, #29440	; 0x7300
 264:	74730065 	ldrbtvc	r0, [r3], #-101	; 0xffffff9b
 268:	006b6361 	rsbeq	r6, fp, r1, ror #6
 26c:	5f78616d 	svcpl	0x0078616d
 270:	6e756f63 	cdpvs	15, 7, cr6, cr5, cr3, {3}
 274:	5f5f0074 	svcpl	0x005f0074
 278:	636e7566 	cmnvs	lr, #427819008	; 0x19800000
 27c:	45005f5f 	strmi	r5, [r0, #-3935]	; 0xfffff0a1
 280:	544e4556 	strbpl	r4, [lr], #-1366	; 0xfffffaaa
 284:	5059545f 	subspl	r5, r9, pc, asr r4
 288:	454d5f45 	strbmi	r5, [sp, #-3909]	; 0xfffff0bb
 28c:	4c425f4d 	mcrrmi	15, 4, r5, r2, cr13
 290:	004b434f 	subeq	r4, fp, pc, asr #6
 294:	6e657665 	cdpvs	6, 6, cr7, cr5, cr5, {3}
 298:	736d5f74 	cmnvc	sp, #116, 30	; 0x1d0
 29c:	616d0067 	cmnvs	sp, r7, rrx
 2a0:	74006e69 	strvc	r6, [r0], #-3689	; 0xfffff197
 2a4:	336b7361 	cmncc	fp, #-2080374783	; 0x84000001
 2a8:	746e655f 	strbtvc	r6, [lr], #-1375	; 0xfffffaa1
 2ac:	74007972 	strvc	r7, [r0], #-2418	; 0xfffff68e
 2b0:	326b7361 	rsbcc	r7, fp, #-2080374783	; 0x84000001
 2b4:	746e655f 	strbtvc	r6, [lr], #-1375	; 0xfffffaa1
 2b8:	6d007972 	stcvs	9, cr7, [r0, #-456]	; 0xfffffe38
 2bc:	625f6d65 	subsvs	r6, pc, #6464	; 0x1940
 2c0:	6b636f6c 	blvs	18dc078 <_etext+0x18d997f>
 2c4:	7200745f 	andvc	r7, r0, #1593835520	; 0x5f000000
 2c8:	65757165 	ldrbvs	r7, [r5, #-357]!	; 0xfffffe9b
 2cc:	645f7473 	ldrbvs	r7, [pc], #-1139	; 2d4 <task1_entry+0x10>
 2d0:	665f6c65 	ldrbvs	r6, [pc], -r5, ror #24
 2d4:	0067616c 	rsbeq	r6, r7, ip, ror #2
 2d8:	616c6564 	cmnvs	ip, r4, ror #10
 2dc:	69745f79 	ldmdbvs	r4!, {r0, r3, r4, r5, r6, r8, r9, sl, fp, ip, lr}^
 2e0:	00736b63 	rsbseq	r6, r3, r3, ror #22
 2e4:	6e69616d 	powvsez	f6, f1, #5.0
 2e8:	7400632e 	strvc	r6, [r0], #-814	; 0xfffffcd2
 2ec:	326b7361 	rsbcc	r7, fp, #-2080374783	; 0x84000001
 2f0:	73757300 	cmnvc	r5, #0, 6
 2f4:	646e6570 	strbtvs	r6, [lr], #-1392	; 0xfffffa90
 2f8:	746e635f 	strbtvc	r6, [lr], #-863	; 0xfffffca1
 2fc:	73617400 	cmnvc	r1, #0, 8
 300:	74735f6b 	ldrbtvc	r5, [r3], #-3947	; 0xfffff095
 304:	5f6b6361 	svcpl	0x006b6361
 308:	56450074 			; <UNDEFINED> instruction: 0x56450074
 30c:	5f544e45 	svcpl	0x00544e45
 310:	45505954 	ldrbmi	r5, [r0, #-2388]	; 0xfffff6ac
 314:	4d45535f 	stclmi	3, cr5, [r5, #-380]	; 0xfffffe84
 318:	73617400 	cmnvc	r1, #0, 8
 31c:	6500316b 	strvs	r3, [r0, #-363]	; 0xfffffe95
 320:	746e6576 	strbtvc	r6, [lr], #-1398	; 0xfffffa8a
 324:	7400745f 	strvc	r7, [r0], #-1119	; 0xfffffba1
 328:	336b7361 	cmncc	fp, #-2080374783	; 0x84000001
 32c:	656c6300 	strbvs	r6, [ip, #-768]!	; 0xfffffd00
 330:	625f7261 	subsvs	r7, pc, #268435462	; 0x10000006
 334:	77007373 	smlsdxvc	r0, r3, r3, r7
 338:	5f746961 	svcpl	0x00746961
 33c:	7473696c 	ldrbtvc	r6, [r3], #-2412	; 0xfffff694
 340:	69727000 	ldmdbvs	r2!, {ip, sp, lr}^
 344:	696c5f6f 	stmdbvs	ip!, {r0, r1, r2, r3, r5, r6, r8, r9, sl, fp, ip, lr}^
 348:	6e5f7473 	mrcvs	4, 2, r7, cr15, cr3, {3}
 34c:	0065646f 	rsbeq	r6, r5, pc, ror #8
 350:	6b736174 	blvs	1cd8928 <_etext+0x1cd622f>
 354:	74735f33 	ldrbtvc	r5, [r3], #-3891	; 0xfffff0cd
 358:	5645006b 	strbpl	r0, [r5], -fp, rrx
 35c:	5f544e45 	svcpl	0x00544e45
 360:	45505954 	ldrbmi	r5, [r0, #-2388]	; 0xfffff6ac
 364:	4b4e555f 	blmi	13958e8 <_etext+0x13931ef>
 368:	4e574f4e 	cdpmi	15, 5, cr4, cr7, cr14, {2}
 36c:	6d656d00 	stclvs	13, cr6, [r5, #-0]
 370:	6f6c625f 	svcvs	0x006c625f
 374:	00316b63 	eorseq	r6, r1, r3, ror #22
 378:	6b736174 	blvs	1cd8950 <_etext+0x1cd6257>
 37c:	6e655f31 	mcrvs	15, 3, r5, cr5, cr1, {1}
 380:	00797274 	rsbseq	r7, r9, r4, ror r2
 384:	74737973 	ldrbtvc	r7, [r3], #-2419	; 0xfffff68d
 388:	5f6b6369 	svcpl	0x006b6369
 38c:	00676174 	rsbeq	r6, r7, r4, ror r1
 390:	64616f6c 	strbtvs	r6, [r1], #-3948	; 0xfffff094
 394:	696e6900 	stmdbvs	lr!, {r8, fp, sp, lr}^
 398:	79735f74 	ldmdbvc	r3!, {r2, r4, r5, r6, r8, r9, sl, fp, ip, lr}^
 39c:	63697473 	cmnvs	r9, #1929379840	; 0x73000000
 3a0:	7973006b 	ldmdbvc	r3!, {r0, r1, r3, r5, r6}^
 3a4:	63697473 	cmnvs	r9, #1929379840	; 0x73000000
 3a8:	61685f6b 	cmnvs	r8, fp, ror #30
 3ac:	656c646e 	strbvs	r6, [ip, #-1134]!	; 0xfffffb92
 3b0:	6d630072 	stclvs	0, cr0, [r3, #-456]!	; 0xfffffe38
 3b4:	00632e33 	rsbeq	r2, r3, r3, lsr lr
 3b8:	5f737973 	svcpl	0x00737973
 3bc:	6f697270 	svcvs	0x00697270
 3c0:	6300705f 	movwvs	r7, #95	; 0x5f
 3c4:	62726c61 	rsbsvs	r6, r2, #24832	; 0x6100
 3c8:	72746300 	rsbsvc	r6, r4, #0, 6
 3cc:	7973006c 	ldmdbvc	r3!, {r2, r3, r5, r6}^
 3d0:	63697473 	cmnvs	r9, #1929379840	; 0x73000000
 3d4:	00705f6b 	rsbseq	r5, r0, fp, ror #30
 3d8:	67697274 			; <UNDEFINED> instruction: 0x67697274
 3dc:	5f726567 	svcpl	0x00726567
 3e0:	646e6570 	strbtvs	r6, [lr], #-1392	; 0xfffffa90
 3e4:	0076735f 	rsbseq	r7, r6, pc, asr r3
 3e8:	74737973 	ldrbtvc	r7, [r3], #-2419	; 0xfffff68d
 3ec:	5f6b6369 	svcpl	0x006b6369
 3f0:	74730074 	ldrbtvc	r0, [r3], #-116	; 0xffffff8c
 3f4:	6d003172 	stfvss	f3, [r0, #-456]	; 0xfffffe38
 3f8:	69746c75 	ldmdbvs	r4!, {r0, r2, r4, r5, r6, sl, fp, sp, lr}^
 3fc:	65696c70 	strbvs	r6, [r9, #-3184]!	; 0xfffff390
 400:	41550072 	cmpmi	r5, r2, ror r0
 404:	44305452 	ldrtmi	r5, [r0], #-1106	; 0xfffffbae
 408:	74730052 	ldrbtvc	r0, [r3], #-82	; 0xffffffae
 40c:	75003272 	strvc	r3, [r0, #-626]	; 0xfffffd8e
 410:	72657070 	rsbvc	r7, r5, #112	; 0x70
 414:	7865685f 	stmdavc	r5!, {r0, r1, r2, r3, r4, r6, fp, sp, lr}^
 418:	6373615f 	cmnvs	r3, #-1073741801	; 0xc0000017
 41c:	6261745f 	rsbvs	r7, r1, #1593835520	; 0x5f000000
 420:	6d00656c 	cfstr32vs	mvfx6, [r0, #-432]	; 0xfffffe50
 424:	70636d65 	rsbvc	r6, r3, r5, ror #26
 428:	5f700079 	svcpl	0x00700079
 42c:	00637273 	rsbeq	r7, r3, r3, ror r2
 430:	6e697270 	mcrvs	2, 3, r7, cr9, cr0, {3}
 434:	735f6674 	cmpvc	pc, #116, 12	; 0x7400000
 438:	77007274 	smlsdxvc	r0, r4, r2, r7
 43c:	68746469 	ldmdavs	r4!, {r0, r3, r5, r6, sl, sp, lr}^
 440:	6d656d00 	stclvs	13, cr6, [r5, #-0]
 444:	00706d63 	rsbseq	r6, r0, r3, ror #26
 448:	705f6f6e 	subsvc	r6, pc, lr, ror #30
 44c:	746e6972 	strbtvc	r6, [lr], #-2418	; 0xfffff68e
 450:	5f5f006b 	svcpl	0x005f006b
 454:	6c5f6176 	ldfvse	f6, [pc], {118}	; 0x76
 458:	00747369 	rsbseq	r7, r4, r9, ror #6
 45c:	736d656d 	cmnvc	sp, #457179136	; 0x1b400000
 460:	73007465 	movwvc	r7, #1125	; 0x465
 464:	6f747274 	svcvs	0x00747274
 468:	5f70006c 	svcpl	0x0070006c
 46c:	316d656d 	cmncc	sp, sp, ror #10
 470:	69727000 	ldmdbvs	r2!, {ip, sp, lr}^
 474:	5f66746e 	svcpl	0x0066746e
 478:	00786568 	rsbseq	r6, r8, r8, ror #10
 47c:	74727473 	ldrbtvc	r7, [r2], #-1139	; 0xfffffb8d
 480:	006c756f 	rsbeq	r7, ip, pc, ror #10
 484:	73645f70 	cmnvc	r4, #112, 30	; 0x1c0
 488:	6d740074 	ldclvs	0, cr0, [r4, #-464]!	; 0xfffffe30
 48c:	00775f70 	rsbseq	r5, r7, r0, ror pc
 490:	5f786568 	svcpl	0x00786568
 494:	67696577 			; <UNDEFINED> instruction: 0x67696577
 498:	765f7468 	ldrbvc	r7, [pc], -r8, ror #8
 49c:	65756c61 	ldrbvs	r6, [r5, #-3169]!	; 0xfffff39f
 4a0:	6261745f 	rsbvs	r7, r1, #1593835520	; 0x5f000000
 4a4:	6800656c 	stmdavs	r0, {r2, r3, r5, r6, r8, sl, sp, lr}
 4a8:	765f7865 	ldrbvc	r7, [pc], -r5, ror #16
 4ac:	5f006c61 	svcpl	0x00006c61
 4b0:	0070615f 	rsbseq	r6, r0, pc, asr r1
 4b4:	6c727473 	cfldrdvs	mvd7, [r2], #-460	; 0xfffffe34
 4b8:	73006e65 	movwvc	r6, #3685	; 0xe65
 4bc:	70637274 	rsbvc	r7, r3, r4, ror r2
 4c0:	72700079 	rsbsvc	r0, r0, #121	; 0x79
 4c4:	66746e69 	ldrbtvs	r6, [r4], -r9, ror #28
 4c8:	6168635f 	cmnvs	r8, pc, asr r3
 4cc:	5f700072 	svcpl	0x00700072
 4d0:	326d656d 	rsbcc	r6, sp, #457179136	; 0x1b400000
 4d4:	6e657300 	cdpvs	3, 6, cr7, cr5, cr0, {0}
 4d8:	68635f64 	stmdavs	r3!, {r2, r5, r6, r8, r9, sl, fp, ip, lr}^
 4dc:	61007261 	tstvs	r0, r1, ror #4
 4e0:	74706772 	ldrbtvc	r6, [r0], #-1906	; 0xfffff88e
 4e4:	736f0072 	cmnvc	pc, #114	; 0x72
 4e8:	6474735f 	ldrbtvs	r7, [r4], #-863	; 0xfffffca1
 4ec:	632e6f69 			; <UNDEFINED> instruction: 0x632e6f69
 4f0:	72747300 	rsbsvc	r7, r4, #0, 6
 4f4:	00706d63 	rsbseq	r6, r0, r3, ror #26
 4f8:	6e675f5f 	mcrvs	15, 3, r5, cr7, cr15, {2}
 4fc:	765f6375 			; <UNDEFINED> instruction: 0x765f6375
 500:	696c5f61 	stmdbvs	ip!, {r0, r5, r6, r8, r9, sl, fp, ip, lr}^
 504:	69007473 	stmdbvs	r0, {r0, r1, r4, r5, r6, sl, ip, sp, lr}
 508:	73615f73 	cmnvc	r1, #460	; 0x1cc
 50c:	74730063 	ldrbtvc	r0, [r3], #-99	; 0xffffff9d
 510:	6d636e72 	stclvs	14, cr6, [r3, #-456]!	; 0xfffffe38
 514:	73690070 	cmnvc	r9, #112	; 0x70
 518:	6365645f 	cmnvs	r5, #1593835520	; 0x5f000000
 51c:	6373615f 	cmnvs	r3, #-1073741801	; 0xc0000017
 520:	69727000 	ldmdbvs	r2!, {ip, sp, lr}^
 524:	5f66746e 	svcpl	0x0066746e
 528:	00636564 	rsbeq	r6, r3, r4, ror #10
 52c:	685f7369 	ldmdavs	pc, {r0, r3, r5, r6, r8, r9, ip, sp, lr}^	; <UNPREDICTABLE>
 530:	615f7865 	cmpvs	pc, r5, ror #16
 534:	70006373 	andvc	r6, r0, r3, ror r3
 538:	746e6972 	strbtvc	r6, [lr], #-2418	; 0xfffff68e
 53c:	65685f66 	strbvs	r5, [r8, #-3942]!	; 0xfffff09a
 540:	70755f78 	rsbsvc	r5, r5, r8, ror pc
 544:	00726570 	rsbseq	r6, r2, r0, ror r5
 548:	656c6469 	strbvs	r6, [ip, #-1129]!	; 0xfffffb97
 54c:	7361745f 	cmnvc	r1, #1593835520	; 0x5f000000
 550:	6e655f6b 	cdpvs	15, 6, cr5, cr5, cr11, {3}
 554:	00797274 	rsbseq	r7, r9, r4, ror r2
 558:	6b736174 	blvs	1cd8b30 <_etext+0x1cd6437>
 55c:	6c65645f 	cfstrdvs	mvd6, [r5], #-380	; 0xfffffe84
 560:	775f7961 	ldrbvc	r7, [pc, -r1, ror #18]
 564:	00746961 	rsbseq	r6, r4, r1, ror #18
 568:	745f7369 	ldrbvc	r7, [pc], #-873	; 570 <is_dec_asc+0x24>
 56c:	5f6b7361 	svcpl	0x006b7361
 570:	75716572 	ldrbvc	r6, [r1, #-1394]!	; 0xfffffa8e
 574:	5f747365 	svcpl	0x00747365
 578:	656c6564 	strbvs	r6, [ip, #-1380]!	; 0xfffffa9c
 57c:	67006574 	smlsdxvs	r0, r4, r5, r6
 580:	6863735f 	stmdavs	r3!, {r0, r1, r2, r3, r4, r6, r8, r9, ip, sp, lr}^
 584:	6c5f6465 	cfldrdvs	mvd6, [pc], {101}	; 0x65
 588:	006b636f 	rsbeq	r6, fp, pc, ror #6
 58c:	64695f67 	strbtvs	r5, [r9], #-3943	; 0xfffff099
 590:	745f656c 	ldrbvc	r6, [pc], #-1388	; 598 <is_asc+0xc>
 594:	5f6b7361 	svcpl	0x006b7361
 598:	006b7473 	rsbeq	r7, fp, r3, ror r4
 59c:	6f727265 	svcvs	0x00727265
 5a0:	79745f72 	ldmdbvc	r4!, {r1, r4, r5, r6, r8, r9, sl, fp, ip, lr}^
 5a4:	655f6570 	ldrbvs	r6, [pc, #-1392]	; 3c <_text+0x3c>
 5a8:	006d756e 	rsbeq	r7, sp, lr, ror #10
 5ac:	455f4f4e 	ldrbmi	r4, [pc, #-3918]	; fffff666 <_stack_top+0xdfff3666>
 5b0:	524f5252 	subpl	r5, pc, #536870917	; 0x20000005
 5b4:	73617400 	cmnvc	r1, #0, 8
 5b8:	00632e6b 	rsbeq	r2, r3, fp, ror #28
 5bc:	64695f67 	strbtvs	r5, [r9], #-3943	; 0xfffff099
 5c0:	745f656c 	ldrbvc	r6, [pc], #-1388	; 5c8 <is_hex_asc+0x8>
 5c4:	006b7361 	rsbeq	r7, fp, r1, ror #6
 5c8:	6b736174 	blvs	1cd8ba0 <_etext+0x1cd64a7>
 5cc:	726f665f 	rsbvc	r6, pc, #99614720	; 0x5f00000
 5d0:	645f6563 	ldrbvs	r6, [pc], #-1379	; 5d8 <is_hex_asc+0x18>
 5d4:	74656c65 	strbtvc	r6, [r5], #-3173	; 0xfffff39b
 5d8:	61740065 	cmnvs	r4, r5, rrx
 5dc:	695f6b73 	ldmdbvs	pc, {r0, r1, r4, r5, r6, r8, r9, fp, sp, lr}^	; <UNPREDICTABLE>
 5e0:	5f6f666e 	svcpl	0x006f666e
 5e4:	00676174 	rsbeq	r6, r7, r4, ror r1
 5e8:	68676968 	stmdavs	r7!, {r3, r5, r6, r8, fp, sp, lr}^
 5ec:	5f747365 	svcpl	0x00747365
 5f0:	6f697270 	svcvs	0x00697270
 5f4:	73617400 	cmnvc	r1, #0, 8
 5f8:	65735f6b 	ldrbvs	r5, [r3, #-3947]!	; 0xfffff095
 5fc:	6c635f74 	stclvs	15, cr5, [r3], #-464	; 0xfffffe30
 600:	5f6e6165 	svcpl	0x006e6165
 604:	6c6c6163 	stfvse	f6, [ip], #-396	; 0xfffffe74
 608:	74006b62 	strvc	r6, [r0], #-2914	; 0xfffff49e
 60c:	5f6b7361 	svcpl	0x006b7361
 610:	74737973 	ldrbtvc	r7, [r3], #-2419	; 0xfffff68d
 614:	745f6d65 	ldrbvc	r6, [pc], #-3429	; 61c <printf_char+0x1c>
 618:	5f6b6369 	svcpl	0x006b6369
 61c:	646e6168 	strbtvs	r6, [lr], #-360	; 0xfffffe98
 620:	0072656c 	rsbseq	r6, r2, ip, ror #10
 624:	6b736174 	blvs	1cd8bfc <_etext+0x1cd6503>
 628:	6d65725f 	sfmvs	f7, 2, [r5, #-380]!	; 0xfffffe84
 62c:	5f65766f 	svcpl	0x0065766f
 630:	6d6f7266 	sfmvs	f7, 2, [pc, #-408]!	; 4a0 <main+0xb4>
 634:	6972705f 	ldmdbvs	r2!, {r0, r1, r2, r3, r4, r6, ip, sp, lr}^
 638:	61745f6f 	cmnvs	r4, pc, ror #30
 63c:	00656c62 	rsbeq	r6, r5, r2, ror #24
 640:	6d746962 	ldclvs	9, cr6, [r4, #-392]!	; 0xfffffe78
 644:	745f7061 	ldrbvc	r7, [pc], #-97	; 64c <printf_str+0x10>
 648:	73617400 	cmnvc	r1, #0, 8
 64c:	65645f6b 	strbvs	r5, [r4, #-3947]!	; 0xfffff095
 650:	0079616c 	rsbseq	r6, r9, ip, ror #2
 654:	6b736174 	blvs	1cd8c2c <_etext+0x1cd6533>
 658:	6978655f 	ldmdbvs	r8!, {r0, r1, r2, r3, r4, r6, r8, sl, sp, lr}^
 65c:	72635f74 	rsbvc	r5, r3, #116, 30	; 0x1d0
 660:	63697469 	cmnvs	r9, #1761607680	; 0x69000000
 664:	45006c61 	strmi	r6, [r0, #-3169]	; 0xfffff39f
 668:	524f5252 	subpl	r5, pc, #536870917	; 0x20000005
 66c:	5345525f 	movtpl	r5, #21087	; 0x525f
 670:	4352554f 	cmpmi	r2, #331350016	; 0x13c00000
 674:	55465f45 	strbpl	r5, [r6, #-3909]	; 0xfffff0bb
 678:	64004c4c 	strvs	r4, [r0], #-3148	; 0xfffff3b4
 67c:	5f706d75 	svcpl	0x00706d75
 680:	6b736174 	blvs	1cd8c58 <_etext+0x1cd655f>
 684:	666e695f 			; <UNDEFINED> instruction: 0x666e695f
 688:	5245006f 	subpl	r0, r5, #111	; 0x6f
 68c:	5f524f52 	svcpl	0x00524f52
 690:	004c4544 	subeq	r4, ip, r4, asr #10
 694:	75635f67 	strbvc	r5, [r3, #-3943]!	; 0xfffff099
 698:	6e657272 	mcrvs	2, 3, r7, cr5, cr2, {3}
 69c:	61745f74 	cmnvs	r4, r4, ror pc
 6a0:	67006b73 	smlsdxvs	r0, r3, fp, r6
 6a4:	7361745f 	cmnvc	r1, #1593835520	; 0x5f000000
 6a8:	61745f6b 	cmnvs	r4, fp, ror #30
 6ac:	00656c62 	rsbeq	r6, r5, r2, ror #24
 6b0:	74696e69 	strbtvc	r6, [r9], #-3689	; 0xfffff197
 6b4:	7361745f 	cmnvc	r1, #1593835520	; 0x5f000000
 6b8:	6f6d5f6b 	svcvs	0x006d5f6b
 6bc:	656c7564 	strbvs	r7, [ip, #-1380]!	; 0xfffffa9c
 6c0:	73617400 	cmnvc	r1, #0, 8
 6c4:	65675f6b 	strbvs	r5, [r7, #-3947]!	; 0xfffff095
 6c8:	6e695f74 	mcrvs	15, 3, r5, cr9, cr4, {3}
 6cc:	74006f66 	strvc	r6, [r0], #-3942	; 0xfffff09a
 6d0:	5f6b7361 	svcpl	0x006b7361
 6d4:	74696e69 	strbtvc	r6, [r9], #-3689	; 0xfffff197
 6d8:	73617400 	cmnvc	r1, #0, 8
 6dc:	75735f6b 	ldrbvc	r5, [r3, #-3947]!	; 0xfffff095
 6e0:	6e657073 	mcrvs	0, 3, r7, cr5, cr3, {3}
 6e4:	61740064 	cmnvs	r4, r4, rrx
 6e8:	735f6b73 	cmpvc	pc, #117760	; 0x1cc00
 6ec:	64656863 	strbtvs	r6, [r5], #-2147	; 0xfffff79d
 6f0:	616e655f 	cmnvs	lr, pc, asr r5
 6f4:	00656c62 	rsbeq	r6, r5, r2, ror #24
 6f8:	6b736174 	blvs	1cd8cd0 <_etext+0x1cd65d7>
 6fc:	666e695f 			; <UNDEFINED> instruction: 0x666e695f
 700:	00745f6f 	rsbseq	r5, r4, pc, ror #30
 704:	74617473 	strbtvc	r7, [r1], #-1139	; 0xfffffb8d
 708:	74007375 	strvc	r7, [r0], #-885	; 0xfffffc8b
 70c:	5f6b7361 	svcpl	0x006b7361
 710:	5f6e7572 	svcpl	0x006e7572
 714:	73726966 	cmnvc	r2, #1671168	; 0x198000
 718:	61740074 	cmnvs	r4, r4, ror r0
 71c:	645f6b73 	ldrbvs	r6, [pc], #-2931	; 724 <printf_hex_upper+0x40>
 720:	79616c65 	stmdbvc	r1!, {r0, r2, r5, r6, sl, fp, sp, lr}^
 724:	6b61775f 	blvs	185e4a8 <_etext+0x185bdaf>
 728:	00707565 	rsbseq	r7, r0, r5, ror #10
 72c:	6b736174 	blvs	1cd8d04 <_etext+0x1cd660b>
 730:	746e655f 	strbtvc	r6, [lr], #-1375	; 0xfffffaa1
 734:	635f7265 	cmpvs	pc, #1342177286	; 0x50000006
 738:	69746972 	ldmdbvs	r4!, {r1, r4, r5, r6, r8, fp, sp, lr}^
 73c:	006c6163 	rsbeq	r6, ip, r3, ror #2
 740:	6f636573 	svcvs	0x00636573
 744:	0073646e 	rsbseq	r6, r3, lr, ror #8
 748:	6b736174 	blvs	1cd8d20 <_etext+0x1cd6627>
 74c:	6165725f 	cmnvs	r5, pc, asr r2
 750:	74007964 	strvc	r7, [r0], #-2404	; 0xfffff69c
 754:	5f706d65 	svcpl	0x00706d65
 758:	6b736174 	blvs	1cd8d30 <_etext+0x1cd6637>
 75c:	7400705f 	strvc	r7, [r0], #-95	; 0xffffffa1
 760:	5f6b7361 	svcpl	0x006b7361
 764:	65686373 	strbvs	r6, [r8, #-883]!	; 0xfffffc8d
 768:	61740064 	cmnvs	r4, r4, rrx
 76c:	645f6b73 	ldrbvs	r6, [pc], #-2931	; 774 <printf_dec+0x1c>
 770:	74656c65 	strbtvc	r6, [r5], #-3173	; 0xfffff39b
 774:	65735f65 	ldrbvs	r5, [r3, #-3941]!	; 0xfffff09b
 778:	7400666c 	strvc	r6, [r0], #-1644	; 0xfffff994
 77c:	5f6b7361 	svcpl	0x006b7361
 780:	65686373 	strbvs	r6, [r8, #-883]!	; 0xfffffc8d
 784:	69645f64 	stmdbvs	r4!, {r2, r5, r6, r8, r9, sl, fp, ip, lr}^
 788:	6c626173 	stfvse	f6, [r2], #-460	; 0xfffffe34
 78c:	61740065 	cmnvs	r4, r5, rrx
 790:	685f6b73 	ldmdavs	pc, {r0, r1, r4, r5, r6, r8, r9, fp, sp, lr}^	; <UNPREDICTABLE>
 794:	65686769 	strbvs	r6, [r8, #-1897]!	; 0xfffff897
 798:	725f7473 	subsvc	r7, pc, #1929379840	; 0x73000000
 79c:	79646165 	stmdbvc	r4!, {r0, r2, r5, r6, r8, sp, lr}^
 7a0:	73617400 	cmnvc	r1, #0, 8
 7a4:	6e755f6b 	cdpvs	15, 7, cr5, cr5, cr11, {3}
 7a8:	64616572 	strbtvs	r6, [r1], #-1394	; 0xfffffa8e
 7ac:	5f670079 	svcpl	0x00670079
 7b0:	656c6469 	strbvs	r6, [ip, #-1129]!	; 0xfffffb97
 7b4:	7361745f 	cmnvc	r1, #1593835520	; 0x5f000000
 7b8:	626f5f6b 	rsbvs	r5, pc, #428	; 0x1ac
 7bc:	6174006a 	cmnvs	r4, sl, rrx
 7c0:	725f6b73 	subsvc	r6, pc, #117760	; 0x1cc00
 7c4:	766f6d65 	strbtvc	r6, [pc], -r5, ror #26
 7c8:	72665f65 	rsbvc	r5, r6, #404	; 0x194
 7cc:	645f6d6f 	ldrbvs	r6, [pc], #-3439	; 7d4 <printf_dec+0x7c>
 7d0:	79616c65 	stmdbvc	r1!, {r0, r2, r5, r6, sl, fp, sp, lr}^
 7d4:	73696c5f 	cmnvc	r9, #24320	; 0x5f00
 7d8:	65740074 	ldrbvs	r0, [r4, #-116]!	; 0xffffff8c
 7dc:	6e5f706d 	cdpvs	0, 5, cr7, cr15, cr13, {3}
 7e0:	0065646f 	rsbeq	r6, r5, pc, ror #8
 7e4:	61745f67 	cmnvs	r4, r7, ror #30
 7e8:	645f6b73 	ldrbvs	r6, [pc], #-2931	; 7f0 <printf_dec+0x98>
 7ec:	79616c65 	stmdbvc	r1!, {r0, r2, r5, r6, sl, fp, sp, lr}^
 7f0:	73696c5f 	cmnvc	r9, #24320	; 0x5f00
 7f4:	52450074 	subpl	r0, r5, #116	; 0x74
 7f8:	5f524f52 	svcpl	0x00524f52
 7fc:	454d4954 	strbmi	r4, [sp, #-2388]	; 0xfffff6ac
 800:	0054554f 	subseq	r5, r4, pc, asr #10
 804:	61745f67 	cmnvs	r4, r7, ror #30
 808:	705f6b73 	subsvc	r6, pc, r3, ror fp	; <UNPREDICTABLE>
 80c:	5f6f6972 	svcpl	0x006f6972
 810:	6d746962 	ldclvs	9, cr6, [r4, #-392]!	; 0xfffffe78
 814:	74007061 	strvc	r7, [r0], #-97	; 0xffffff9f
 818:	5f6b7361 	svcpl	0x006b7361
 81c:	74697773 	strbtvc	r7, [r9], #-1907	; 0xfffff88d
 820:	74006863 	strvc	r6, [r0], #-2147	; 0xfffff79d
 824:	5f6b7361 	svcpl	0x006b7361
 828:	616c6564 	cmnvs	ip, r4, ror #10
 82c:	00735f79 	rsbseq	r5, r3, r9, ror pc
 830:	6b736174 	blvs	1cd8e08 <_etext+0x1cd670f>
 834:	7365725f 	cmnvc	r5, #-268435451	; 0xf0000005
 838:	00656d75 	rsbeq	r6, r5, r5, ror sp
 83c:	6e5f6f6e 	cdpvs	15, 5, cr6, cr15, cr14, {3}
 840:	5f646565 	svcpl	0x00646565
 844:	65686373 	strbvs	r6, [r8, #-883]!	; 0xfffffc8d
 848:	69620064 	stmdbvs	r2!, {r2, r5, r6}^
 84c:	70616d74 	rsbvc	r6, r1, r4, ror sp
 850:	6761745f 			; <UNDEFINED> instruction: 0x6761745f
 854:	73696c00 	cmnvc	r9, #0, 24
 858:	65685f74 	strbvs	r5, [r8, #-3956]!	; 0xfffff08c
 85c:	71006461 	tstvc	r0, r1, ror #8
 860:	6b636975 	blvs	18dae3c <_etext+0x18d8743>
 864:	6261745f 	rsbvs	r7, r1, #1593835520	; 0x5f000000
 868:	6200656c 	andvs	r6, r0, #108, 10	; 0x1b000000
 86c:	616d7469 	cmnvs	sp, r9, ror #8
 870:	65735f70 	ldrbvs	r5, [r3, #-3952]!	; 0xfffff090
 874:	656e0074 	strbvs	r0, [lr, #-116]!	; 0xffffff8c
 878:	6e5f7478 	mrcvs	4, 2, r7, cr15, cr8, {3}
 87c:	0065646f 	rsbeq	r6, r5, pc, ror #8
 880:	6d746962 	ldclvs	9, cr6, [r4, #-392]!	; 0xfffffe78
 884:	635f7061 	cmpvs	pc, #97	; 0x61
 888:	7261656c 	rsbvc	r6, r1, #108, 10	; 0x1b000000
 88c:	73696c00 	cmnvc	r9, #0, 24
 890:	65725f74 	ldrbvs	r5, [r2, #-3956]!	; 0xfffff08c
 894:	65766f6d 	ldrbvs	r6, [r6, #-3949]!	; 0xfffff093
 898:	62696c00 	rsbvs	r6, r9, #0, 24
 89c:	6300632e 	movwvs	r6, #814	; 0x32e
 8a0:	6e5f7275 	mrcvs	2, 2, r7, cr15, cr5, {3}
 8a4:	0065646f 	rsbeq	r6, r5, pc, ror #8
 8a8:	7473696c 	ldrbtvc	r6, [r3], #-2412	; 0xfffff694
 8ac:	696e695f 	stmdbvs	lr!, {r0, r1, r2, r3, r4, r6, r8, fp, sp, lr}^
 8b0:	6c630074 	stclvs	0, cr0, [r3], #-464	; 0xfffffe30
 8b4:	756e6165 	strbvc	r6, [lr, #-357]!	; 0xfffffe9b
 8b8:	69620070 	stmdbvs	r2!, {r4, r5, r6}^
 8bc:	70616d74 	rsbvc	r6, r1, r4, ror sp
 8c0:	7465675f 	strbtvc	r6, [r5], #-1887	; 0xfffff8a1
 8c4:	7269665f 	rsbvc	r6, r9, #99614720	; 0x5f00000
 8c8:	735f7473 	cmpvc	pc, #1929379840	; 0x73000000
 8cc:	62007465 	andvs	r7, r0, #1694498816	; 0x65000000
 8d0:	616d7469 	cmnvs	sp, r9, ror #8
 8d4:	6e695f70 	mcrvs	15, 3, r5, cr9, cr0, {3}
 8d8:	6c007469 	cfstrsvs	mvf7, [r0], {105}	; 0x69
 8dc:	5f747369 	svcpl	0x00747369
 8e0:	65707061 	ldrbvs	r7, [r0, #-97]!	; 0xffffff9f
 8e4:	6c5f646e 	cfldrdvs	mvd6, [pc], {110}	; 0x6e
 8e8:	00747361 	rsbseq	r7, r4, r1, ror #6
 8ec:	7473696c 	ldrbtvc	r6, [r3], #-2412	; 0xfffff694
 8f0:	6d65725f 	sfmvs	f7, 2, [r5, #-380]!	; 0xfffffe84
 8f4:	5f65766f 	svcpl	0x0065766f
 8f8:	73726966 	cmnvc	r2, #1671168	; 0x198000
 8fc:	696c0074 	stmdbvs	ip!, {r2, r4, r5, r6}^
 900:	6e5f7473 	mrcvs	4, 2, r7, cr15, cr3, {3}
 904:	5f65646f 	svcpl	0x0065646f
 908:	74696e69 	strbtvc	r6, [r9], #-3689	; 0xfffff197
 90c:	74696200 	strbtvc	r6, [r9], #-512	; 0xfffffe00
 910:	5f70616d 	svcpl	0x0070616d
 914:	6e756f63 	cdpvs	15, 7, cr6, cr5, cr3, {3}
 918:	696c0074 	stmdbvs	ip!, {r2, r4, r5, r6}^
 91c:	745f7473 	ldrbvc	r7, [pc], #-1139	; 924 <printf_dec+0x1cc>
 920:	006c6961 	rsbeq	r6, ip, r1, ror #18
 924:	7473696c 	ldrbtvc	r6, [r3], #-2412	; 0xfffff694
 928:	736e695f 	cmnvc	lr, #1556480	; 0x17c000
 92c:	5f747265 	svcpl	0x00747265
 930:	64616568 	strbtvs	r6, [r1], #-1384	; 0xfffffa98
 934:	73696c00 	cmnvc	r9, #0, 24
 938:	65725f74 	ldrbvs	r5, [r2, #-3956]!	; 0xfffff08c
 93c:	65766f6d 	ldrbvs	r6, [r6, #-3949]!	; 0xfffff093
 940:	6c6c615f 	stfvse	f6, [ip], #-380	; 0xfffffe84
 944:	646f6e00 	strbtvs	r6, [pc], #-3584	; 94c <printf_dec+0x1f4>
 948:	72705f65 	rsbsvc	r5, r0, #404	; 0x194
 94c:	6e007665 	cfmadd32vs	mvax3, mvfx7, mvfx0, mvfx5
 950:	5f65646f 	svcpl	0x0065646f
 954:	7478656e 	ldrbtvc	r6, [r8], #-1390	; 0xfffffa92
 958:	73696c00 	cmnvc	r9, #0, 24
 95c:	6f635f74 	svcvs	0x00635f74
 960:	00746e75 	rsbseq	r6, r4, r5, ror lr
 964:	6e657665 	cdpvs	6, 6, cr7, cr5, cr5, {3}
 968:	61775f74 	cmnvs	r7, r4, ror pc
 96c:	65007469 	strvs	r7, [r0, #-1129]	; 0xfffffb97
 970:	746e6576 	strbtvc	r6, [lr], #-1398	; 0xfffffa8a
 974:	6961775f 	stmdbvs	r1!, {r0, r1, r2, r3, r4, r6, r8, r9, sl, ip, sp, lr}^
 978:	6f635f74 	svcvs	0x00635f74
 97c:	00746e75 	rsbseq	r6, r4, r5, ror lr
 980:	6e657665 	cdpvs	6, 6, cr7, cr5, cr5, {3}
 984:	65725f74 	ldrbvs	r5, [r2, #-3956]!	; 0xfffff08c
 988:	65766f6d 	ldrbvs	r6, [r6, #-3949]!	; 0xfffff093
 98c:	6c6c615f 	stfvse	f6, [ip], #-380	; 0xfffffe84
 990:	65766500 	ldrbvs	r6, [r6, #-1280]!	; 0xfffffb00
 994:	632e746e 			; <UNDEFINED> instruction: 0x632e746e
 998:	65766500 	ldrbvs	r6, [r6, #-1280]!	; 0xfffffb00
 99c:	775f746e 	ldrbvc	r7, [pc, -lr, ror #8]
 9a0:	75656b61 	strbvc	r6, [r5, #-2913]!	; 0xfffff49f
 9a4:	76650070 			; <UNDEFINED> instruction: 0x76650070
 9a8:	5f746e65 	svcpl	0x00746e65
 9ac:	6f6d6572 	svcvs	0x006d6572
 9b0:	745f6576 	ldrbvc	r6, [pc], #-1398	; 9b8 <printf_dec+0x260>
 9b4:	006b7361 	rsbeq	r7, fp, r1, ror #6
 9b8:	6e657665 	cdpvs	6, 6, cr7, cr5, cr5, {3}
 9bc:	6e695f74 	mcrvs	15, 3, r5, cr9, cr4, {3}
 9c0:	74007469 	strvc	r7, [r0], #-1129	; 0xfffffb97
 9c4:	6f656d69 	svcvs	0x00656d69
 9c8:	74007475 	strvc	r7, [r0], #-1141	; 0xfffffb8b
 9cc:	5f6b7361 	svcpl	0x006b7361
 9d0:	6e756f63 	cdpvs	15, 7, cr6, cr5, cr3, {3}
 9d4:	65730074 	ldrbvs	r0, [r3, #-116]!	; 0xffffff8c
 9d8:	6e695f6d 	cdpvs	15, 6, cr5, cr9, cr13, {3}
 9dc:	73007469 	movwvc	r7, #1129	; 0x469
 9e0:	675f6d65 	ldrbvs	r6, [pc, -r5, ror #26]
 9e4:	695f7465 	ldmdbvs	pc, {r0, r2, r5, r6, sl, ip, sp, lr}^	; <UNPREDICTABLE>
 9e8:	006f666e 	rsbeq	r6, pc, lr, ror #12
 9ec:	2e6d6573 	mcrcs	5, 3, r6, cr13, cr3, {3}
 9f0:	65730063 	ldrbvs	r0, [r3, #-99]!	; 0xffffff9d
 9f4:	63615f6d 	cmnvs	r1, #436	; 0x1b4
 9f8:	72697571 	rsbvc	r7, r9, #473956352	; 0x1c400000
 9fc:	6f6e5f65 	svcvs	0x006e5f65
 a00:	6961775f 	stmdbvs	r1!, {r0, r1, r2, r3, r4, r6, r8, r9, sl, ip, sp, lr}^
 a04:	65730074 	ldrbvs	r0, [r3, #-116]!	; 0xffffff8c
 a08:	65725f6d 	ldrbvs	r5, [r2, #-3949]!	; 0xfffff093
 a0c:	7361656c 	cmnvc	r1, #108, 10	; 0x1b000000
 a10:	65730065 	ldrbvs	r0, [r3, #-101]!	; 0xffffff9b
 a14:	63615f6d 	cmnvs	r1, #436	; 0x1b4
 a18:	72697571 	rsbvc	r7, r9, #473956352	; 0x1c400000
 a1c:	65730065 	ldrbvs	r0, [r3, #-101]!	; 0xffffff9b
 a20:	00745f6d 	rsbseq	r5, r4, sp, ror #30
 a24:	5f6d6573 	svcpl	0x006d6573
 a28:	6f666e69 	svcvs	0x00666e69
 a2c:	7700745f 	smlsdvc	r0, pc, r4, r7	; <UNPREDICTABLE>
 a30:	5f746961 	svcpl	0x00746961
 a34:	6b636974 	blvs	18db00c <_etext+0x18d8913>
 a38:	65730073 	ldrbvs	r0, [r3, #-115]!	; 0xffffff8d
 a3c:	61745f6d 	cmnvs	r4, sp, ror #30
 a40:	65730067 	ldrbvs	r0, [r3, #-103]!	; 0xffffff99
 a44:	6e695f6d 	cdpvs	15, 6, cr5, cr9, cr13, {3}
 a48:	745f6f66 	ldrbvc	r6, [pc], #-3942	; a50 <printk+0x74>
 a4c:	73006761 	movwvc	r6, #1889	; 0x761
 a50:	645f6d65 	ldrbvs	r6, [pc], #-3429	; a58 <printk+0x7c>
 a54:	6f747365 	svcvs	0x00747365
 a58:	77007972 	smlsdxvc	r0, r2, r9, r7
 a5c:	65746972 	ldrbvs	r6, [r4, #-2418]!	; 0xfffff68e
 a60:	6f626d00 	svcvs	0x00626d00
 a64:	65675f78 	strbvs	r5, [r7, #-3960]!	; 0xfffff088
 a68:	626d0074 	rsbvs	r0, sp, #116	; 0x74
 a6c:	675f786f 	ldrbvs	r7, [pc, -pc, ror #16]
 a70:	6e5f7465 	cdpvs	4, 5, cr7, cr15, cr5, {3}
 a74:	61775f6f 	cmnvs	r7, pc, ror #30
 a78:	72007469 	andvc	r7, r0, #1761607680	; 0x69000000
 a7c:	00646165 	rsbeq	r6, r4, r5, ror #2
 a80:	786f626d 	stmdavc	pc!, {r0, r2, r3, r5, r6, r9, sp, lr}^	; <UNPREDICTABLE>
 a84:	6761745f 			; <UNDEFINED> instruction: 0x6761745f
 a88:	6f626d00 	svcvs	0x00626d00
 a8c:	6e695f78 	mcrvs	15, 3, r5, cr9, cr8, {3}
 a90:	745f6f66 	ldrbvc	r6, [pc], #-3942	; a98 <printk+0xbc>
 a94:	6d006761 	stcvs	7, cr6, [r0, #-388]	; 0xfffffe7c
 a98:	5f786f62 	svcpl	0x00786f62
 a9c:	74736564 	ldrbtvc	r6, [r3], #-1380	; 0xfffffa9c
 aa0:	0079726f 	rsbseq	r7, r9, pc, ror #4
 aa4:	786f626d 	stmdavc	pc!, {r0, r2, r3, r5, r6, r9, sp, lr}^	; <UNPREDICTABLE>
 aa8:	666e695f 			; <UNDEFINED> instruction: 0x666e695f
 aac:	00745f6f 	rsbseq	r5, r4, pc, ror #30
 ab0:	6c69616d 	stfvse	f6, [r9], #-436	; 0xfffffe4c
 ab4:	2e786f62 	cdpcs	15, 7, cr6, cr8, cr2, {3}
 ab8:	626d0063 	rsbvs	r0, sp, #99	; 0x63
 abc:	745f786f 	ldrbvc	r7, [pc], #-2159	; ac4 <printk+0xe8>
 ac0:	6f626d00 	svcvs	0x00626d00
 ac4:	6f6e0078 	svcvs	0x006e0078
 ac8:	79666974 	stmdbvc	r6!, {r2, r4, r5, r6, r8, fp, sp, lr}^
 acc:	69706f5f 	ldmdbvs	r0!, {r0, r1, r2, r3, r4, r6, r8, r9, sl, fp, sp, lr}^
 ad0:	6e6f6974 	mcrvs	9, 3, r6, cr15, cr4, {3}
 ad4:	6f626d00 	svcvs	0x00626d00
 ad8:	65735f78 	ldrbvs	r5, [r3, #-3960]!	; 0xfffff088
 adc:	6d00646e 	cfstrsvs	mvf6, [r0, #-440]	; 0xfffffe48
 ae0:	5f786f62 	svcpl	0x00786f62
 ae4:	5f746567 	svcpl	0x00746567
 ae8:	6f666e69 	svcvs	0x00666e69
 aec:	6f626d00 	svcvs	0x00626d00
 af0:	6e695f78 	mcrvs	15, 3, r5, cr9, cr8, {3}
 af4:	6d007469 	cfstrsvs	mvf7, [r0, #-420]	; 0xfffffe5c
 af8:	5f786f62 	svcpl	0x00786f62
 afc:	73756c66 	cmnvc	r5, #26112	; 0x6600
 b00:	736d0068 	cmnvc	sp, #104	; 0x68
 b04:	75625f67 	strbvc	r5, [r2, #-3943]!	; 0xfffff099
 b08:	72656666 	rsbvc	r6, r5, #106954752	; 0x6600000
 b0c:	6d656d00 	stclvs	13, cr6, [r5, #-0]
 b10:	6f6c625f 	svcvs	0x006c625f
 b14:	615f6b63 	cmpvs	pc, r3, ror #22
 b18:	636f6c6c 	cmnvs	pc, #108, 24	; 0x6c00
 b1c:	6d656d00 	stclvs	13, cr6, [r5, #-0]
 b20:	6f6c625f 	svcvs	0x006c625f
 b24:	695f6b63 	ldmdbvs	pc, {r0, r1, r5, r6, r8, r9, fp, sp, lr}^	; <UNPREDICTABLE>
 b28:	5f6f666e 	svcpl	0x006f666e
 b2c:	00676174 	rsbeq	r6, r7, r4, ror r1
 b30:	5f6d656d 	svcpl	0x006d656d
 b34:	636f6c62 	cmnvs	pc, #25088	; 0x6200
 b38:	6e655f6b 	cdpvs	15, 6, cr5, cr5, cr11, {3}
 b3c:	656d0064 	strbvs	r0, [sp, #-100]!	; 0xffffff9c
 b40:	6c625f6d 	stclvs	15, cr5, [r2], #-436	; 0xfffffe4c
 b44:	5f6b636f 	svcpl	0x006b636f
 b48:	6f666e69 	svcvs	0x00666e69
 b4c:	6d00745f 	cfstrsvs	mvf7, [r0, #-380]	; 0xfffffe84
 b50:	625f6d65 	subsvs	r6, pc, #6464	; 0x1940
 b54:	6b636f6c 	blvs	18dc90c <_etext+0x18da213>
 b58:	7465675f 	strbtvc	r6, [r5], #-1887	; 0xfffff8a1
 b5c:	666e695f 			; <UNDEFINED> instruction: 0x666e695f
 b60:	656d006f 	strbvs	r0, [sp, #-111]!	; 0xffffff91
 b64:	6c625f6d 	stclvs	15, cr5, [r2], #-436	; 0xfffffe4c
 b68:	5f6b636f 	svcpl	0x006b636f
 b6c:	65657266 	strbvs	r7, [r5, #-614]!	; 0xfffffd9a
 b70:	6d656d00 	stclvs	13, cr6, [r5, #-0]
 b74:	6f6c625f 	svcvs	0x006c625f
 b78:	735f6b63 	cmpvc	pc, #101376	; 0x18c00
 b7c:	74726174 	ldrbtvc	r6, [r2], #-372	; 0xfffffe8c
 b80:	6d656d00 	stclvs	13, cr6, [r5, #-0]
 b84:	6f6c625f 	svcvs	0x006c625f
 b88:	615f6b63 	cmpvs	pc, r3, ror #22
 b8c:	636f6c6c 	cmnvs	pc, #108, 24	; 0x6c00
 b90:	5f6f6e5f 	svcpl	0x006f6e5f
 b94:	74696177 	strbtvc	r6, [r9], #-375	; 0xfffffe89
 b98:	6d656d00 	stclvs	13, cr6, [r5, #-0]
 b9c:	6f6c625f 	svcvs	0x006c625f
 ba0:	6d006b63 	vstrvs	d6, [r0, #-396]	; 0xfffffe74
 ba4:	625f6d65 	subsvs	r6, pc, #6464	; 0x1940
 ba8:	6b636f6c 	blvs	18dc960 <_etext+0x18da267>
 bac:	7365645f 	cmnvc	r5, #1593835520	; 0x5f000000
 bb0:	79726f74 	ldmdbvc	r2!, {r2, r4, r5, r6, r8, r9, sl, fp, sp, lr}^
 bb4:	6f6c6200 	svcvs	0x006c6200
 bb8:	635f6b63 	cmpvs	pc, #101376	; 0x18c00
 bbc:	6d00746e 	cfstrsvs	mvf7, [r0, #-440]	; 0xfffffe48
 bc0:	625f6d65 	subsvs	r6, pc, #6464	; 0x1940
 bc4:	6b636f6c 	blvs	18dc97c <_etext+0x18da283>
 bc8:	696e695f 	stmdbvs	lr!, {r0, r1, r2, r3, r4, r6, r8, fp, sp, lr}^
 bcc:	656d0074 	strbvs	r0, [sp, #-116]!	; 0xffffff8c
 bd0:	6f6c626d 	svcvs	0x006c626d
 bd4:	632e6b63 			; <UNDEFINED> instruction: 0x632e6b63
 bd8:	616c6600 	cmnvs	ip, r0, lsl #12
 bdc:	72675f67 	rsbvc	r5, r7, #412	; 0x19c
 be0:	2e70756f 	cdpcs	5, 7, cr7, cr0, cr15, {3}
 be4:	Address 0x0000000000000be4 is out of bounds.


Disassembly of section .comment:

00000000 <.comment>:
   0:	3a434347 	bcc	10d0d24 <_etext+0x10ce62b>
   4:	35312820 	ldrcc	r2, [r1, #-2080]!	; 0xfffff7e0
   8:	392e343a 	stmdbcc	lr!, {r1, r3, r4, r5, sl, ip, sp}
   c:	732b332e 			; <UNDEFINED> instruction: 0x732b332e
  10:	33326e76 	teqcc	r2, #1888	; 0x760
  14:	37373131 			; <UNDEFINED> instruction: 0x37373131
  18:	2029312d 	eorcs	r3, r9, sp, lsr #2
  1c:	2e392e34 	mrccs	14, 1, r2, cr9, cr4, {1}
  20:	30322033 	eorscc	r2, r2, r3, lsr r0
  24:	35303531 	ldrcc	r3, [r0, #-1329]!	; 0xfffffacf
  28:	28203932 	stmdacs	r0!, {r1, r4, r5, r8, fp, ip, sp}
  2c:	72657270 	rsbvc	r7, r5, #112, 4
  30:	61656c65 	cmnvs	r5, r5, ror #24
  34:	00296573 	eoreq	r6, r9, r3, ror r5

Disassembly of section .ARM.attributes:

00000000 <.ARM.attributes>:
   0:	00003041 	andeq	r3, r0, r1, asr #32
   4:	61656100 	cmnvs	r5, r0, lsl #2
   8:	01006962 	tsteq	r0, r2, ror #18
   c:	00000026 	andeq	r0, r0, r6, lsr #32
  10:	726f4305 	rsbvc	r4, pc, #335544320	; 0x14000000
  14:	2d786574 	cfldr64cs	mvdx6, [r8, #-464]!	; 0xfffffe30
  18:	0600334d 	streq	r3, [r0], -sp, asr #6
  1c:	094d070a 	stmdbeq	sp, {r1, r3, r8, r9, sl}^
  20:	14041202 	strne	r1, [r4], #-514	; 0xfffffdfe
  24:	17011501 	strne	r1, [r1, -r1, lsl #10]
  28:	1a011803 	bne	4603c <_etext+0x43943>
  2c:	22061e01 	andcs	r1, r6, #1, 28
  30:	Address 0x0000000000000030 is out of bounds.


Disassembly of section .debug_frame:

00000000 <.debug_frame>:
   0:	0000000c 	andeq	r0, r0, ip
   4:	ffffffff 			; <UNDEFINED> instruction: 0xffffffff
   8:	7c020001 	stcvc	0, cr0, [r2], {1}
   c:	000d0c0e 	andeq	r0, sp, lr, lsl #24
  10:	00000014 	andeq	r0, r0, r4, lsl r0
  14:	00000000 	andeq	r0, r0, r0
  18:	0000026c 	andeq	r0, r0, ip, ror #4
  1c:	00000006 	andeq	r0, r0, r6
  20:	87040e41 	strhi	r0, [r4, -r1, asr #28]
  24:	070d4101 	streq	r4, [sp, -r1, lsl #2]
  28:	00000014 	andeq	r0, r0, r4, lsl r0
  2c:	00000000 	andeq	r0, r0, r0
  30:	00000274 	andeq	r0, r0, r4, ror r2
  34:	00000006 	andeq	r0, r0, r6
  38:	87040e41 	strhi	r0, [r4, -r1, asr #28]
  3c:	070d4101 	streq	r4, [sp, -r1, lsl #2]
  40:	00000018 	andeq	r0, r0, r8, lsl r0
  44:	00000000 	andeq	r0, r0, r0
  48:	0000027c 	andeq	r0, r0, ip, ror r2
  4c:	00000010 	andeq	r0, r0, r0, lsl r0
  50:	87080e41 	strhi	r0, [r8, -r1, asr #28]
  54:	41018e02 	tstmi	r1, r2, lsl #28
  58:	0000070d 	andeq	r0, r0, sp, lsl #14
  5c:	0000000c 	andeq	r0, r0, ip
  60:	ffffffff 			; <UNDEFINED> instruction: 0xffffffff
  64:	7c020001 	stcvc	0, cr0, [r2], {1}
  68:	000d0c0e 	andeq	r0, sp, lr, lsl #24
  6c:	00000024 	andeq	r0, r0, r4, lsr #32
  70:	0000005c 	andeq	r0, r0, ip, asr r0
  74:	0000028c 	andeq	r0, r0, ip, lsl #5
  78:	00000038 	andeq	r0, r0, r8, lsr r0
  7c:	87040e41 	strhi	r0, [r4, -r1, asr #28]
  80:	100e4101 	andne	r4, lr, r1, lsl #2
  84:	50070d41 	andpl	r0, r7, r1, asr #26
  88:	0d41040e 	cfstrdeq	mvd0, [r1, #-56]	; 0xffffffc8
  8c:	0ec7420d 	cdpeq	2, 12, cr4, cr7, cr13, {0}
  90:	00000000 	andeq	r0, r0, r0
  94:	0000001c 	andeq	r0, r0, ip, lsl r0
  98:	0000005c 	andeq	r0, r0, ip, asr r0
  9c:	000002c4 	andeq	r0, r0, r4, asr #5
  a0:	000000b8 	strheq	r0, [r0], -r8
  a4:	87080e41 	strhi	r0, [r8, -r1, asr #28]
  a8:	41018e02 	tstmi	r1, r2, lsl #28
  ac:	0d41680e 	stcleq	8, cr6, [r1, #-56]	; 0xffffffc8
  b0:	00000007 	andeq	r0, r0, r7
  b4:	0000001c 	andeq	r0, r0, ip, lsl r0
  b8:	0000005c 	andeq	r0, r0, ip, asr r0
  bc:	0000037c 	andeq	r0, r0, ip, ror r3
  c0:	00000030 	andeq	r0, r0, r0, lsr r0
  c4:	87080e41 	strhi	r0, [r8, -r1, asr #28]
  c8:	41018e02 	tstmi	r1, r2, lsl #28
  cc:	0d41180e 	stcleq	8, cr1, [r1, #-56]	; 0xffffffc8
  d0:	00000007 	andeq	r0, r0, r7
  d4:	0000001c 	andeq	r0, r0, ip, lsl r0
  d8:	0000005c 	andeq	r0, r0, ip, asr r0
  dc:	000003ac 	andeq	r0, r0, ip, lsr #7
  e0:	00000020 	andeq	r0, r0, r0, lsr #32
  e4:	87080e41 	strhi	r0, [r8, -r1, asr #28]
  e8:	41018e02 	tstmi	r1, r2, lsl #28
  ec:	0d41100e 	stcleq	0, cr1, [r1, #-56]	; 0xffffffc8
  f0:	00000007 	andeq	r0, r0, r7
  f4:	0000001c 	andeq	r0, r0, ip, lsl r0
  f8:	0000005c 	andeq	r0, r0, ip, asr r0
  fc:	000003cc 	andeq	r0, r0, ip, asr #7
 100:	00000020 	andeq	r0, r0, r0, lsr #32
 104:	87080e41 	strhi	r0, [r8, -r1, asr #28]
 108:	41018e02 	tstmi	r1, r2, lsl #28
 10c:	0d41100e 	stcleq	0, cr1, [r1, #-56]	; 0xffffffc8
 110:	00000007 	andeq	r0, r0, r7
 114:	0000001c 	andeq	r0, r0, ip, lsl r0
 118:	0000005c 	andeq	r0, r0, ip, asr r0
 11c:	000003ec 	andeq	r0, r0, ip, ror #7
 120:	000000c8 	andeq	r0, r0, r8, asr #1
 124:	87080e41 	strhi	r0, [r8, -r1, asr #28]
 128:	41018e02 	tstmi	r1, r2, lsl #28
 12c:	0c41100e 	mcrreq	0, 0, r1, r1, cr14
 130:	00000807 	andeq	r0, r0, r7, lsl #16
 134:	0000000c 	andeq	r0, r0, ip
 138:	ffffffff 			; <UNDEFINED> instruction: 0xffffffff
 13c:	7c020001 	stcvc	0, cr0, [r2], {1}
 140:	000d0c0e 	andeq	r0, sp, lr, lsl #24
 144:	00000024 	andeq	r0, r0, r4, lsr #32
 148:	00000134 	andeq	r0, r0, r4, lsr r1
 14c:	000004b4 			; <UNDEFINED> instruction: 0x000004b4
 150:	00000044 	andeq	r0, r0, r4, asr #32
 154:	87040e41 	strhi	r0, [r4, -r1, asr #28]
 158:	180e4101 	stmdane	lr, {r0, r8, lr}
 15c:	57070d41 	strpl	r0, [r7, -r1, asr #26]
 160:	0d41040e 	cfstrdeq	mvd0, [r1, #-56]	; 0xffffffc8
 164:	0ec7420d 	cdpeq	2, 12, cr4, cr7, cr13, {0}
 168:	00000000 	andeq	r0, r0, r0
 16c:	00000018 	andeq	r0, r0, r8, lsl r0
 170:	00000134 	andeq	r0, r0, r4, lsr r1
 174:	000004f8 	strdeq	r0, [r0], -r8
 178:	0000000a 	andeq	r0, r0, sl
 17c:	87080e41 	strhi	r0, [r8, -r1, asr #28]
 180:	41018e02 	tstmi	r1, r2, lsl #28
 184:	0000070d 	andeq	r0, r0, sp, lsl #14
 188:	0000001c 	andeq	r0, r0, ip, lsl r0
 18c:	00000134 	andeq	r0, r0, r4, lsr r1
 190:	00000504 	andeq	r0, r0, r4, lsl #10
 194:	00000024 	andeq	r0, r0, r4, lsr #32
 198:	87040e41 	strhi	r0, [r4, -r1, asr #28]
 19c:	070d4101 	streq	r4, [sp, -r1, lsl #2]
 1a0:	420d0d48 	andmi	r0, sp, #72, 26	; 0x1200
 1a4:	00000ec7 	andeq	r0, r0, r7, asr #29
 1a8:	0000000c 	andeq	r0, r0, ip
 1ac:	ffffffff 			; <UNDEFINED> instruction: 0xffffffff
 1b0:	7c020001 	stcvc	0, cr0, [r2], {1}
 1b4:	000d0c0e 	andeq	r0, sp, lr, lsl #24
 1b8:	00000024 	andeq	r0, r0, r4, lsr #32
 1bc:	000001a8 	andeq	r0, r0, r8, lsr #3
 1c0:	00000528 	andeq	r0, r0, r8, lsr #10
 1c4:	00000024 	andeq	r0, r0, r4, lsr #32
 1c8:	87040e41 	strhi	r0, [r4, -r1, asr #28]
 1cc:	100e4101 	andne	r4, lr, r1, lsl #2
 1d0:	49070d41 	stmdbmi	r7, {r0, r6, r8, sl, fp}
 1d4:	0d41040e 	cfstrdeq	mvd0, [r1, #-56]	; 0xffffffc8
 1d8:	0ec7420d 	cdpeq	2, 12, cr4, cr7, cr13, {0}
 1dc:	00000000 	andeq	r0, r0, r0
 1e0:	00000024 	andeq	r0, r0, r4, lsr #32
 1e4:	000001a8 	andeq	r0, r0, r8, lsr #3
 1e8:	0000054c 	andeq	r0, r0, ip, asr #10
 1ec:	00000040 	andeq	r0, r0, r0, asr #32
 1f0:	87040e41 	strhi	r0, [r4, -r1, asr #28]
 1f4:	180e4101 	stmdane	lr, {r0, r8, lr}
 1f8:	57070d41 	strpl	r0, [r7, -r1, asr #26]
 1fc:	0d41040e 	cfstrdeq	mvd0, [r1, #-56]	; 0xffffffc8
 200:	0ec7420d 	cdpeq	2, 12, cr4, cr7, cr13, {0}
 204:	00000000 	andeq	r0, r0, r0
 208:	00000024 	andeq	r0, r0, r4, lsr #32
 20c:	000001a8 	andeq	r0, r0, r8, lsr #3
 210:	0000058c 	andeq	r0, r0, ip, lsl #11
 214:	00000034 	andeq	r0, r0, r4, lsr r0
 218:	87040e41 	strhi	r0, [r4, -r1, asr #28]
 21c:	100e4101 	andne	r4, lr, r1, lsl #2
 220:	53070d41 	movwpl	r0, #32065	; 0x7d41
 224:	0d41040e 	cfstrdeq	mvd0, [r1, #-56]	; 0xffffffc8
 228:	0ec7420d 	cdpeq	2, 12, cr4, cr7, cr13, {0}
 22c:	00000000 	andeq	r0, r0, r0
 230:	00000024 	andeq	r0, r0, r4, lsr #32
 234:	000001a8 	andeq	r0, r0, r8, lsr #3
 238:	000005c0 	andeq	r0, r0, r0, asr #11
 23c:	00000040 	andeq	r0, r0, r0, asr #32
 240:	87040e41 	strhi	r0, [r4, -r1, asr #28]
 244:	100e4101 	andne	r4, lr, r1, lsl #2
 248:	59070d41 	stmdbpl	r7, {r0, r6, r8, sl, fp}
 24c:	0d41040e 	cfstrdeq	mvd0, [r1, #-56]	; 0xffffffc8
 250:	0ec7420d 	cdpeq	2, 12, cr4, cr7, cr13, {0}
 254:	00000000 	andeq	r0, r0, r0
 258:	00000020 	andeq	r0, r0, r0, lsr #32
 25c:	000001a8 	andeq	r0, r0, r8, lsr #3
 260:	00000600 	andeq	r0, r0, r0, lsl #12
 264:	0000003a 	andeq	r0, r0, sl, lsr r0
 268:	87080e41 	strhi	r0, [r8, -r1, asr #28]
 26c:	41018e02 	tstmi	r1, r2, lsl #28
 270:	0d41180e 	stcleq	8, cr1, [r1, #-56]	; 0xffffffc8
 274:	080e5807 	stmdaeq	lr, {r0, r1, r2, fp, ip, lr}
 278:	000d0d41 	andeq	r0, sp, r1, asr #26
 27c:	00000020 	andeq	r0, r0, r0, lsr #32
 280:	000001a8 	andeq	r0, r0, r8, lsr #3
 284:	0000063c 	andeq	r0, r0, ip, lsr r6
 288:	00000032 	andeq	r0, r0, r2, lsr r0
 28c:	87080e41 	strhi	r0, [r8, -r1, asr #28]
 290:	41018e02 	tstmi	r1, r2, lsl #28
 294:	0d41100e 	stcleq	0, cr1, [r1, #-56]	; 0xffffffc8
 298:	080e5407 	stmdaeq	lr, {r0, r1, r2, sl, ip, lr}
 29c:	000d0d41 	andeq	r0, sp, r1, asr #26
 2a0:	00000020 	andeq	r0, r0, r0, lsr #32
 2a4:	000001a8 	andeq	r0, r0, r8, lsr #3
 2a8:	00000670 	andeq	r0, r0, r0, ror r6
 2ac:	00000074 	andeq	r0, r0, r4, ror r0
 2b0:	87080e41 	strhi	r0, [r8, -r1, asr #28]
 2b4:	41018e02 	tstmi	r1, r2, lsl #28
 2b8:	0d41180e 	stcleq	8, cr1, [r1, #-56]	; 0xffffffc8
 2bc:	080e7207 	stmdaeq	lr, {r0, r1, r2, r9, ip, sp, lr}
 2c0:	000d0d41 	andeq	r0, sp, r1, asr #26
 2c4:	00000020 	andeq	r0, r0, r0, lsr #32
 2c8:	000001a8 	andeq	r0, r0, r8, lsr #3
 2cc:	000006e4 	andeq	r0, r0, r4, ror #13
 2d0:	00000074 	andeq	r0, r0, r4, ror r0
 2d4:	87080e41 	strhi	r0, [r8, -r1, asr #28]
 2d8:	41018e02 	tstmi	r1, r2, lsl #28
 2dc:	0d41180e 	stcleq	8, cr1, [r1, #-56]	; 0xffffffc8
 2e0:	080e7207 	stmdaeq	lr, {r0, r1, r2, r9, ip, sp, lr}
 2e4:	000d0d41 	andeq	r0, sp, r1, asr #26
 2e8:	00000024 	andeq	r0, r0, r4, lsr #32
 2ec:	000001a8 	andeq	r0, r0, r8, lsr #3
 2f0:	00000758 	andeq	r0, r0, r8, asr r7
 2f4:	00000274 	andeq	r0, r0, r4, ror r2
 2f8:	87080e41 	strhi	r0, [r8, -r1, asr #28]
 2fc:	41018e02 	tstmi	r1, r2, lsl #28
 300:	0d41200e 	stcleq	0, cr2, [r1, #-56]	; 0xffffffc8
 304:	01300307 	teqeq	r0, r7, lsl #6
 308:	0d41080e 	stcleq	8, cr0, [r1, #-56]	; 0xffffffc8
 30c:	0000000d 	andeq	r0, r0, sp
 310:	00000030 	andeq	r0, r0, r0, lsr r0
 314:	000001a8 	andeq	r0, r0, r8, lsr #3
 318:	000009cc 	andeq	r0, r0, ip, asr #19
 31c:	00000010 	andeq	r0, r0, r0, lsl r0
 320:	80100e41 	andshi	r0, r0, r1, asr #28
 324:	82038104 	andhi	r8, r3, #4, 2
 328:	41018302 	tstmi	r1, r2, lsl #6
 32c:	0587140e 	streq	r1, [r7, #1038]	; 0x40e
 330:	41070d41 	tstmi	r7, r1, asr #26
 334:	c7420d0d 	strbgt	r0, [r2, -sp, lsl #26]
 338:	c341100e 	movtgt	r1, #4110	; 0x100e
 33c:	0ec0c1c2 	acseqdm	f4, f2
 340:	00000000 	andeq	r0, r0, r0
 344:	00000038 	andeq	r0, r0, r8, lsr r0
 348:	000001a8 	andeq	r0, r0, r8, lsr #3
 34c:	000009dc 	ldrdeq	r0, [r0], -ip
 350:	00000184 	andeq	r0, r0, r4, lsl #3
 354:	80100e41 	andshi	r0, r0, r1, asr #28
 358:	82038104 	andhi	r8, r3, #4, 2
 35c:	41018302 	tstmi	r1, r2, lsl #6
 360:	0687180e 	streq	r1, [r7], lr, lsl #16
 364:	0e41058e 	cdpeq	5, 4, cr0, cr1, cr14, {4}
 368:	070d4128 	streq	r4, [sp, -r8, lsr #2]
 36c:	180eb902 	stmdane	lr, {r1, r8, fp, ip, sp, pc}
 370:	420d0d41 	andmi	r0, sp, #4160	; 0x1040
 374:	100ec7ce 	andne	ip, lr, lr, asr #15
 378:	c1c2c341 	bicgt	ip, r2, r1, asr #6
 37c:	00000ec0 	andeq	r0, r0, r0, asr #29
 380:	00000024 	andeq	r0, r0, r4, lsr #32
 384:	000001a8 	andeq	r0, r0, r8, lsr #3
 388:	00000b60 	andeq	r0, r0, r0, ror #22
 38c:	00000042 	andeq	r0, r0, r2, asr #32
 390:	87040e41 	strhi	r0, [r4, -r1, asr #28]
 394:	200e4101 	andcs	r4, lr, r1, lsl #2
 398:	5a070d41 	bpl	1c38a4 <_etext+0x1c11ab>
 39c:	0d41040e 	cfstrdeq	mvd0, [r1, #-56]	; 0xffffffc8
 3a0:	0ec7420d 	cdpeq	2, 12, cr4, cr7, cr13, {0}
 3a4:	00000000 	andeq	r0, r0, r0
 3a8:	00000024 	andeq	r0, r0, r4, lsr #32
 3ac:	000001a8 	andeq	r0, r0, r8, lsr #3
 3b0:	00000ba4 	andeq	r0, r0, r4, lsr #23
 3b4:	0000004a 	andeq	r0, r0, sl, asr #32
 3b8:	87040e41 	strhi	r0, [r4, -r1, asr #28]
 3bc:	280e4101 	stmdacs	lr, {r0, r8, lr}
 3c0:	5e070d41 	cdppl	13, 0, cr0, cr7, cr1, {2}
 3c4:	0d41040e 	cfstrdeq	mvd0, [r1, #-56]	; 0xffffffc8
 3c8:	0ec7420d 	cdpeq	2, 12, cr4, cr7, cr13, {0}
 3cc:	00000000 	andeq	r0, r0, r0
 3d0:	00000024 	andeq	r0, r0, r4, lsr #32
 3d4:	000001a8 	andeq	r0, r0, r8, lsr #3
 3d8:	00000bf0 	strdeq	r0, [r0], -r0	; <UNPREDICTABLE>
 3dc:	00000060 	andeq	r0, r0, r0, rrx
 3e0:	87040e41 	strhi	r0, [r4, -r1, asr #28]
 3e4:	280e4101 	stmdacs	lr, {r0, r8, lr}
 3e8:	69070d41 	stmdbvs	r7, {r0, r6, r8, sl, fp}
 3ec:	0d41040e 	cfstrdeq	mvd0, [r1, #-56]	; 0xffffffc8
 3f0:	0ec7420d 	cdpeq	2, 12, cr4, cr7, cr13, {0}
 3f4:	00000000 	andeq	r0, r0, r0
 3f8:	00000024 	andeq	r0, r0, r4, lsr #32
 3fc:	000001a8 	andeq	r0, r0, r8, lsr #3
 400:	00000c50 	andeq	r0, r0, r0, asr ip
 404:	00000054 	andeq	r0, r0, r4, asr r0
 408:	87040e41 	strhi	r0, [r4, -r1, asr #28]
 40c:	180e4101 	stmdane	lr, {r0, r8, lr}
 410:	63070d41 	movwvs	r0, #32065	; 0x7d41
 414:	0d41040e 	cfstrdeq	mvd0, [r1, #-56]	; 0xffffffc8
 418:	0ec7420d 	cdpeq	2, 12, cr4, cr7, cr13, {0}
 41c:	00000000 	andeq	r0, r0, r0
 420:	00000024 	andeq	r0, r0, r4, lsr #32
 424:	000001a8 	andeq	r0, r0, r8, lsr #3
 428:	00000ca4 	andeq	r0, r0, r4, lsr #25
 42c:	00000064 	andeq	r0, r0, r4, rrx
 430:	87040e41 	strhi	r0, [r4, -r1, asr #28]
 434:	280e4101 	stmdacs	lr, {r0, r8, lr}
 438:	6b070d41 	blvs	1c3944 <_etext+0x1c124b>
 43c:	0d41040e 	cfstrdeq	mvd0, [r1, #-56]	; 0xffffffc8
 440:	0ec7420d 	cdpeq	2, 12, cr4, cr7, cr13, {0}
 444:	00000000 	andeq	r0, r0, r0
 448:	00000020 	andeq	r0, r0, r0, lsr #32
 44c:	000001a8 	andeq	r0, r0, r8, lsr #3
 450:	00000d08 	andeq	r0, r0, r8, lsl #26
 454:	000000e8 	andeq	r0, r0, r8, ror #1
 458:	87080e41 	strhi	r0, [r8, -r1, asr #28]
 45c:	41018e02 	tstmi	r1, r2, lsl #28
 460:	0d41200e 	stcleq	0, cr2, [r1, #-56]	; 0xffffffc8
 464:	0e6f0207 	cdpeq	2, 6, cr0, cr15, cr7, {0}
 468:	0d0d4108 	stfeqs	f4, [sp, #-32]	; 0xffffffe0
 46c:	00000020 	andeq	r0, r0, r0, lsr #32
 470:	000001a8 	andeq	r0, r0, r8, lsr #3
 474:	00000df0 	strdeq	r0, [r0], -r0	; <UNPREDICTABLE>
 478:	00000046 	andeq	r0, r0, r6, asr #32
 47c:	87080e41 	strhi	r0, [r8, -r1, asr #28]
 480:	41018e02 	tstmi	r1, r2, lsl #28
 484:	0d41180e 	stcleq	8, cr1, [r1, #-56]	; 0xffffffc8
 488:	080e5e07 	stmdaeq	lr, {r0, r1, r2, r9, sl, fp, ip, lr}
 48c:	000d0d41 	andeq	r0, sp, r1, asr #26
 490:	00000024 	andeq	r0, r0, r4, lsr #32
 494:	000001a8 	andeq	r0, r0, r8, lsr #3
 498:	00000e38 	andeq	r0, r0, r8, lsr lr
 49c:	0000002c 	andeq	r0, r0, ip, lsr #32
 4a0:	87040e41 	strhi	r0, [r4, -r1, asr #28]
 4a4:	180e4101 	stmdane	lr, {r0, r8, lr}
 4a8:	4f070d41 	svcmi	0x00070d41
 4ac:	0d41040e 	cfstrdeq	mvd0, [r1, #-56]	; 0xffffffc8
 4b0:	0ec7420d 	cdpeq	2, 12, cr4, cr7, cr13, {0}
 4b4:	00000000 	andeq	r0, r0, r0
 4b8:	00000024 	andeq	r0, r0, r4, lsr #32
 4bc:	000001a8 	andeq	r0, r0, r8, lsr #3
 4c0:	00000e64 	andeq	r0, r0, r4, ror #28
 4c4:	00000044 	andeq	r0, r0, r4, asr #32
 4c8:	87040e41 	strhi	r0, [r4, -r1, asr #28]
 4cc:	180e4101 	stmdane	lr, {r0, r8, lr}
 4d0:	5b070d41 	blpl	1c39dc <_etext+0x1c12e3>
 4d4:	0d41040e 	cfstrdeq	mvd0, [r1, #-56]	; 0xffffffc8
 4d8:	0ec7420d 	cdpeq	2, 12, cr4, cr7, cr13, {0}
 4dc:	00000000 	andeq	r0, r0, r0
 4e0:	0000000c 	andeq	r0, r0, ip
 4e4:	ffffffff 			; <UNDEFINED> instruction: 0xffffffff
 4e8:	7c020001 	stcvc	0, cr0, [r2], {1}
 4ec:	000d0c0e 	andeq	r0, sp, lr, lsl #24
 4f0:	00000018 	andeq	r0, r0, r8, lsl r0
 4f4:	000004e0 	andeq	r0, r0, r0, ror #9
 4f8:	00000f2c 	andeq	r0, r0, ip, lsr #30
 4fc:	0000000a 	andeq	r0, r0, sl
 500:	87040e41 	strhi	r0, [r4, -r1, asr #28]
 504:	100e4101 	andne	r4, lr, r1, lsl #2
 508:	00070d41 	andeq	r0, r7, r1, asr #26
 50c:	00000020 	andeq	r0, r0, r0, lsr #32
 510:	000004e0 	andeq	r0, r0, r0, ror #9
 514:	00000f38 	andeq	r0, r0, r8, lsr pc
 518:	00000170 	andeq	r0, r0, r0, ror r1
 51c:	87080e41 	strhi	r0, [r8, -r1, asr #28]
 520:	41018e02 	tstmi	r1, r2, lsl #28
 524:	0d41180e 	stcleq	8, cr1, [r1, #-56]	; 0xffffffc8
 528:	0eaa0207 	cdpeq	2, 10, cr0, cr10, cr7, {0}
 52c:	0d0d4108 	stfeqs	f4, [sp, #-32]	; 0xffffffe0
 530:	00000020 	andeq	r0, r0, r0, lsr #32
 534:	000004e0 	andeq	r0, r0, r0, ror #9
 538:	000010a8 	andeq	r1, r0, r8, lsr #1
 53c:	0000004c 	andeq	r0, r0, ip, asr #32
 540:	87080e41 	strhi	r0, [r8, -r1, asr #28]
 544:	41018e02 	tstmi	r1, r2, lsl #28
 548:	0d41100e 	stcleq	0, cr1, [r1, #-56]	; 0xffffffc8
 54c:	080e5a07 	stmdaeq	lr, {r0, r1, r2, r9, fp, ip, lr}
 550:	000d0d41 	andeq	r0, sp, r1, asr #26
 554:	0000001c 	andeq	r0, r0, ip, lsl r0
 558:	000004e0 	andeq	r0, r0, r0, ror #9
 55c:	000010f4 	strdeq	r1, [r0], -r4
 560:	00000018 	andeq	r0, r0, r8, lsl r0
 564:	87040e41 	strhi	r0, [r4, -r1, asr #28]
 568:	070d4101 	streq	r4, [sp, -r1, lsl #2]
 56c:	420d0d45 	andmi	r0, sp, #4416	; 0x1140
 570:	00000ec7 	andeq	r0, r0, r7, asr #29
 574:	00000018 	andeq	r0, r0, r8, lsl r0
 578:	000004e0 	andeq	r0, r0, r0, ror #9
 57c:	0000110c 	andeq	r1, r0, ip, lsl #2
 580:	00000034 	andeq	r0, r0, r4, lsr r0
 584:	87080e41 	strhi	r0, [r8, -r1, asr #28]
 588:	41018e02 	tstmi	r1, r2, lsl #28
 58c:	0000070d 	andeq	r0, r0, sp, lsl #14
 590:	00000020 	andeq	r0, r0, r0, lsr #32
 594:	000004e0 	andeq	r0, r0, r0, ror #9
 598:	00001140 	andeq	r1, r0, r0, asr #2
 59c:	00000038 	andeq	r0, r0, r8, lsr r0
 5a0:	87080e41 	strhi	r0, [r8, -r1, asr #28]
 5a4:	41018e02 	tstmi	r1, r2, lsl #28
 5a8:	0d41180e 	stcleq	8, cr1, [r1, #-56]	; 0xffffffc8
 5ac:	080e5507 	stmdaeq	lr, {r0, r1, r2, r8, sl, ip, lr}
 5b0:	000d0d41 	andeq	r0, sp, r1, asr #26
 5b4:	00000020 	andeq	r0, r0, r0, lsr #32
 5b8:	000004e0 	andeq	r0, r0, r0, ror #9
 5bc:	00001178 	andeq	r1, r0, r8, ror r1
 5c0:	0000001c 	andeq	r0, r0, ip, lsl r0
 5c4:	87080e41 	strhi	r0, [r8, -r1, asr #28]
 5c8:	41018e02 	tstmi	r1, r2, lsl #28
 5cc:	0d41100e 	stcleq	0, cr1, [r1, #-56]	; 0xffffffc8
 5d0:	080e4907 	stmdaeq	lr, {r0, r1, r2, r8, fp, lr}
 5d4:	000d0d41 	andeq	r0, sp, r1, asr #26
 5d8:	00000020 	andeq	r0, r0, r0, lsr #32
 5dc:	000004e0 	andeq	r0, r0, r0, ror #9
 5e0:	00001194 	muleq	r0, r4, r1
 5e4:	000000f4 	strdeq	r0, [r0], -r4
 5e8:	87080e41 	strhi	r0, [r8, -r1, asr #28]
 5ec:	41018e02 	tstmi	r1, r2, lsl #28
 5f0:	0d41180e 	stcleq	8, cr1, [r1, #-56]	; 0xffffffc8
 5f4:	0e6e0207 	cdpeq	2, 6, cr0, cr14, cr7, {0}
 5f8:	0d0d4108 	stfeqs	f4, [sp, #-32]	; 0xffffffe0
 5fc:	00000020 	andeq	r0, r0, r0, lsr #32
 600:	000004e0 	andeq	r0, r0, r0, ror #9
 604:	00001288 	andeq	r1, r0, r8, lsl #5
 608:	00000080 	andeq	r0, r0, r0, lsl #1
 60c:	87080e41 	strhi	r0, [r8, -r1, asr #28]
 610:	41018e02 	tstmi	r1, r2, lsl #28
 614:	0c41180e 	mcrreq	8, 0, r1, r1, cr14
 618:	0e6a1007 	cdpeq	0, 6, cr1, cr10, cr7, {0}
 61c:	0d0d4108 	stfeqs	f4, [sp, #-32]	; 0xffffffe0
 620:	00000020 	andeq	r0, r0, r0, lsr #32
 624:	000004e0 	andeq	r0, r0, r0, ror #9
 628:	00001308 	andeq	r1, r0, r8, lsl #6
 62c:	0000001a 	andeq	r0, r0, sl, lsl r0
 630:	87080e41 	strhi	r0, [r8, -r1, asr #28]
 634:	41018e02 	tstmi	r1, r2, lsl #28
 638:	0d41100e 	stcleq	0, cr1, [r1, #-56]	; 0xffffffc8
 63c:	080e4807 	stmdaeq	lr, {r0, r1, r2, fp, lr}
 640:	000d0d41 	andeq	r0, sp, r1, asr #26
 644:	00000020 	andeq	r0, r0, r0, lsr #32
 648:	000004e0 	andeq	r0, r0, r0, ror #9
 64c:	00001324 	andeq	r1, r0, r4, lsr #6
 650:	00000018 	andeq	r0, r0, r8, lsl r0
 654:	87080e41 	strhi	r0, [r8, -r1, asr #28]
 658:	41018e02 	tstmi	r1, r2, lsl #28
 65c:	0d41100e 	stcleq	0, cr1, [r1, #-56]	; 0xffffffc8
 660:	080e4707 	stmdaeq	lr, {r0, r1, r2, r8, r9, sl, lr}
 664:	000d0d41 	andeq	r0, sp, r1, asr #26
 668:	00000020 	andeq	r0, r0, r0, lsr #32
 66c:	000004e0 	andeq	r0, r0, r0, ror #9
 670:	0000133c 	andeq	r1, r0, ip, lsr r3
 674:	00000030 	andeq	r0, r0, r0, lsr r0
 678:	87080e41 	strhi	r0, [r8, -r1, asr #28]
 67c:	41018e02 	tstmi	r1, r2, lsl #28
 680:	0d41100e 	stcleq	0, cr1, [r1, #-56]	; 0xffffffc8
 684:	080e5107 	stmdaeq	lr, {r0, r1, r2, r8, ip, lr}
 688:	000d0d41 	andeq	r0, sp, r1, asr #26
 68c:	00000020 	andeq	r0, r0, r0, lsr #32
 690:	000004e0 	andeq	r0, r0, r0, ror #9
 694:	0000136c 	andeq	r1, r0, ip, ror #6
 698:	0000003c 	andeq	r0, r0, ip, lsr r0
 69c:	87080e41 	strhi	r0, [r8, -r1, asr #28]
 6a0:	41018e02 	tstmi	r1, r2, lsl #28
 6a4:	0d41100e 	stcleq	0, cr1, [r1, #-56]	; 0xffffffc8
 6a8:	080e5707 	stmdaeq	lr, {r0, r1, r2, r8, r9, sl, ip, lr}
 6ac:	000d0d41 	andeq	r0, sp, r1, asr #26
 6b0:	00000020 	andeq	r0, r0, r0, lsr #32
 6b4:	000004e0 	andeq	r0, r0, r0, ror #9
 6b8:	000013a8 	andeq	r1, r0, r8, lsr #7
 6bc:	00000038 	andeq	r0, r0, r8, lsr r0
 6c0:	87080e41 	strhi	r0, [r8, -r1, asr #28]
 6c4:	41018e02 	tstmi	r1, r2, lsl #28
 6c8:	0d41100e 	stcleq	0, cr1, [r1, #-56]	; 0xffffffc8
 6cc:	080e5307 	stmdaeq	lr, {r0, r1, r2, r8, r9, ip, lr}
 6d0:	000d0d41 	andeq	r0, sp, r1, asr #26
 6d4:	00000020 	andeq	r0, r0, r0, lsr #32
 6d8:	000004e0 	andeq	r0, r0, r0, ror #9
 6dc:	000013e0 	andeq	r1, r0, r0, ror #7
 6e0:	00000040 	andeq	r0, r0, r0, asr #32
 6e4:	87080e41 	strhi	r0, [r8, -r1, asr #28]
 6e8:	41018e02 	tstmi	r1, r2, lsl #28
 6ec:	0d41100e 	stcleq	0, cr1, [r1, #-56]	; 0xffffffc8
 6f0:	080e5607 	stmdaeq	lr, {r0, r1, r2, r9, sl, ip, lr}
 6f4:	000d0d41 	andeq	r0, sp, r1, asr #26
 6f8:	00000020 	andeq	r0, r0, r0, lsr #32
 6fc:	000004e0 	andeq	r0, r0, r0, ror #9
 700:	00001420 	andeq	r1, r0, r0, lsr #8
 704:	0000005c 	andeq	r0, r0, ip, asr r0
 708:	87080e41 	strhi	r0, [r8, -r1, asr #28]
 70c:	41018e02 	tstmi	r1, r2, lsl #28
 710:	0d41100e 	stcleq	0, cr1, [r1, #-56]	; 0xffffffc8
 714:	080e6407 	stmdaeq	lr, {r0, r1, r2, sl, sp, lr}
 718:	000d0d41 	andeq	r0, sp, r1, asr #26
 71c:	00000020 	andeq	r0, r0, r0, lsr #32
 720:	000004e0 	andeq	r0, r0, r0, ror #9
 724:	0000147c 	andeq	r1, r0, ip, ror r4
 728:	00000034 	andeq	r0, r0, r4, lsr r0
 72c:	87080e41 	strhi	r0, [r8, -r1, asr #28]
 730:	41018e02 	tstmi	r1, r2, lsl #28
 734:	0d41100e 	stcleq	0, cr1, [r1, #-56]	; 0xffffffc8
 738:	080e5207 	stmdaeq	lr, {r0, r1, r2, r9, ip, lr}
 73c:	000d0d41 	andeq	r0, sp, r1, asr #26
 740:	00000020 	andeq	r0, r0, r0, lsr #32
 744:	000004e0 	andeq	r0, r0, r0, ror #9
 748:	000014b0 			; <UNDEFINED> instruction: 0x000014b0
 74c:	0000002c 	andeq	r0, r0, ip, lsr #32
 750:	87080e41 	strhi	r0, [r8, -r1, asr #28]
 754:	41018e02 	tstmi	r1, r2, lsl #28
 758:	0d41100e 	stcleq	0, cr1, [r1, #-56]	; 0xffffffc8
 75c:	080e4e07 	stmdaeq	lr, {r0, r1, r2, r9, sl, fp, lr}
 760:	000d0d41 	andeq	r0, sp, r1, asr #26
 764:	00000020 	andeq	r0, r0, r0, lsr #32
 768:	000004e0 	andeq	r0, r0, r0, ror #9
 76c:	000014dc 	ldrdeq	r1, [r0], -ip
 770:	00000058 	andeq	r0, r0, r8, asr r0
 774:	87080e41 	strhi	r0, [r8, -r1, asr #28]
 778:	41018e02 	tstmi	r1, r2, lsl #28
 77c:	0d41180e 	stcleq	8, cr1, [r1, #-56]	; 0xffffffc8
 780:	080e6507 	stmdaeq	lr, {r0, r1, r2, r8, sl, sp, lr}
 784:	000d0d41 	andeq	r0, sp, r1, asr #26
 788:	00000020 	andeq	r0, r0, r0, lsr #32
 78c:	000004e0 	andeq	r0, r0, r0, ror #9
 790:	00001534 	andeq	r1, r0, r4, lsr r5
 794:	0000004e 	andeq	r0, r0, lr, asr #32
 798:	87080e41 	strhi	r0, [r8, -r1, asr #28]
 79c:	41018e02 	tstmi	r1, r2, lsl #28
 7a0:	0d41180e 	stcleq	8, cr1, [r1, #-56]	; 0xffffffc8
 7a4:	080e6207 	stmdaeq	lr, {r0, r1, r2, r9, sp, lr}
 7a8:	000d0d41 	andeq	r0, sp, r1, asr #26
 7ac:	00000020 	andeq	r0, r0, r0, lsr #32
 7b0:	000004e0 	andeq	r0, r0, r0, ror #9
 7b4:	00001584 	andeq	r1, r0, r4, lsl #11
 7b8:	0000005c 	andeq	r0, r0, ip, asr r0
 7bc:	87080e41 	strhi	r0, [r8, -r1, asr #28]
 7c0:	41018e02 	tstmi	r1, r2, lsl #28
 7c4:	0d41100e 	stcleq	0, cr1, [r1, #-56]	; 0xffffffc8
 7c8:	080e6407 	stmdaeq	lr, {r0, r1, r2, sl, sp, lr}
 7cc:	000d0d41 	andeq	r0, sp, r1, asr #26
 7d0:	00000020 	andeq	r0, r0, r0, lsr #32
 7d4:	000004e0 	andeq	r0, r0, r0, ror #9
 7d8:	000015e0 	andeq	r1, r0, r0, ror #11
 7dc:	00000020 	andeq	r0, r0, r0, lsr #32
 7e0:	87080e41 	strhi	r0, [r8, -r1, asr #28]
 7e4:	41018e02 	tstmi	r1, r2, lsl #28
 7e8:	0d41100e 	stcleq	0, cr1, [r1, #-56]	; 0xffffffc8
 7ec:	080e4807 	stmdaeq	lr, {r0, r1, r2, fp, lr}
 7f0:	000d0d41 	andeq	r0, sp, r1, asr #26
 7f4:	00000024 	andeq	r0, r0, r4, lsr #32
 7f8:	000004e0 	andeq	r0, r0, r0, ror #9
 7fc:	00001600 	andeq	r1, r0, r0, lsl #12
 800:	00000022 	andeq	r0, r0, r2, lsr #32
 804:	87040e41 	strhi	r0, [r4, -r1, asr #28]
 808:	180e4101 	stmdane	lr, {r0, r8, lr}
 80c:	4a070d41 	bmi	1c3d18 <_etext+0x1c161f>
 810:	0d41040e 	cfstrdeq	mvd0, [r1, #-56]	; 0xffffffc8
 814:	0ec7420d 	cdpeq	2, 12, cr4, cr7, cr13, {0}
 818:	00000000 	andeq	r0, r0, r0
 81c:	00000020 	andeq	r0, r0, r0, lsr #32
 820:	000004e0 	andeq	r0, r0, r0, ror #9
 824:	00001624 	andeq	r1, r0, r4, lsr #12
 828:	00000068 	andeq	r0, r0, r8, rrx
 82c:	87080e41 	strhi	r0, [r8, -r1, asr #28]
 830:	41018e02 	tstmi	r1, r2, lsl #28
 834:	0d41180e 	stcleq	8, cr1, [r1, #-56]	; 0xffffffc8
 838:	080e6c07 	stmdaeq	lr, {r0, r1, r2, sl, fp, sp, lr}
 83c:	000d0d41 	andeq	r0, sp, r1, asr #26
 840:	00000020 	andeq	r0, r0, r0, lsr #32
 844:	000004e0 	andeq	r0, r0, r0, ror #9
 848:	0000168c 	andeq	r1, r0, ip, lsl #13
 84c:	00000022 	andeq	r0, r0, r2, lsr #32
 850:	87080e41 	strhi	r0, [r8, -r1, asr #28]
 854:	41018e02 	tstmi	r1, r2, lsl #28
 858:	0d41180e 	stcleq	8, cr1, [r1, #-56]	; 0xffffffc8
 85c:	080e4c07 	stmdaeq	lr, {r0, r1, r2, sl, fp, lr}
 860:	000d0d41 	andeq	r0, sp, r1, asr #26
 864:	00000020 	andeq	r0, r0, r0, lsr #32
 868:	000004e0 	andeq	r0, r0, r0, ror #9
 86c:	000016b0 			; <UNDEFINED> instruction: 0x000016b0
 870:	0000002c 	andeq	r0, r0, ip, lsr #32
 874:	87080e41 	strhi	r0, [r8, -r1, asr #28]
 878:	41018e02 	tstmi	r1, r2, lsl #28
 87c:	0d41100e 	stcleq	0, cr1, [r1, #-56]	; 0xffffffc8
 880:	080e4e07 	stmdaeq	lr, {r0, r1, r2, r9, sl, fp, lr}
 884:	000d0d41 	andeq	r0, sp, r1, asr #26
 888:	00000020 	andeq	r0, r0, r0, lsr #32
 88c:	000004e0 	andeq	r0, r0, r0, ror #9
 890:	000016dc 	ldrdeq	r1, [r0], -ip
 894:	00000048 	andeq	r0, r0, r8, asr #32
 898:	87080e41 	strhi	r0, [r8, -r1, asr #28]
 89c:	41018e02 	tstmi	r1, r2, lsl #28
 8a0:	0d41100e 	stcleq	0, cr1, [r1, #-56]	; 0xffffffc8
 8a4:	080e5d07 	stmdaeq	lr, {r0, r1, r2, r8, sl, fp, ip, lr}
 8a8:	000d0d41 	andeq	r0, sp, r1, asr #26
 8ac:	00000020 	andeq	r0, r0, r0, lsr #32
 8b0:	000004e0 	andeq	r0, r0, r0, ror #9
 8b4:	00001724 	andeq	r1, r0, r4, lsr #14
 8b8:	00000044 	andeq	r0, r0, r4, asr #32
 8bc:	87080e41 	strhi	r0, [r8, -r1, asr #28]
 8c0:	41018e02 	tstmi	r1, r2, lsl #28
 8c4:	0d41180e 	stcleq	8, cr1, [r1, #-56]	; 0xffffffc8
 8c8:	080e5d07 	stmdaeq	lr, {r0, r1, r2, r8, sl, fp, ip, lr}
 8cc:	000d0d41 	andeq	r0, sp, r1, asr #26
 8d0:	00000020 	andeq	r0, r0, r0, lsr #32
 8d4:	000004e0 	andeq	r0, r0, r0, ror #9
 8d8:	00001768 	andeq	r1, r0, r8, ror #14
 8dc:	00000058 	andeq	r0, r0, r8, asr r0
 8e0:	87080e41 	strhi	r0, [r8, -r1, asr #28]
 8e4:	41018e02 	tstmi	r1, r2, lsl #28
 8e8:	0d41100e 	stcleq	0, cr1, [r1, #-56]	; 0xffffffc8
 8ec:	080e5d07 	stmdaeq	lr, {r0, r1, r2, r8, sl, fp, ip, lr}
 8f0:	000d0d41 	andeq	r0, sp, r1, asr #26
 8f4:	0000000c 	andeq	r0, r0, ip
 8f8:	ffffffff 			; <UNDEFINED> instruction: 0xffffffff
 8fc:	7c020001 	stcvc	0, cr0, [r2], {1}
 900:	000d0c0e 	andeq	r0, sp, lr, lsl #24
 904:	00000024 	andeq	r0, r0, r4, lsr #32
 908:	000008f4 	strdeq	r0, [r0], -r4
 90c:	000017c0 	andeq	r1, r0, r0, asr #15
 910:	00000018 	andeq	r0, r0, r8, lsl r0
 914:	87040e41 	strhi	r0, [r4, -r1, asr #28]
 918:	100e4101 	andne	r4, lr, r1, lsl #2
 91c:	45070d41 	strmi	r0, [r7, #-3393]	; 0xfffff2bf
 920:	0d41040e 	cfstrdeq	mvd0, [r1, #-56]	; 0xffffffc8
 924:	0ec7420d 	cdpeq	2, 12, cr4, cr7, cr13, {0}
 928:	00000000 	andeq	r0, r0, r0
 92c:	0000001c 	andeq	r0, r0, ip, lsl r0
 930:	000008f4 	strdeq	r0, [r0], -r4
 934:	000017d8 	ldrdeq	r1, [r0], -r8
 938:	00000010 	andeq	r0, r0, r0, lsl r0
 93c:	87040e41 	strhi	r0, [r4, -r1, asr #28]
 940:	070d4101 	streq	r4, [sp, -r1, lsl #2]
 944:	420d0d43 	andmi	r0, sp, #4288	; 0x10c0
 948:	00000ec7 	andeq	r0, r0, r7, asr #29
 94c:	00000024 	andeq	r0, r0, r4, lsr #32
 950:	000008f4 	strdeq	r0, [r0], -r4
 954:	000017e8 	andeq	r1, r0, r8, ror #15
 958:	00000026 	andeq	r0, r0, r6, lsr #32
 95c:	87040e41 	strhi	r0, [r4, -r1, asr #28]
 960:	100e4101 	andne	r4, lr, r1, lsl #2
 964:	4c070d41 	stcmi	13, cr0, [r7], {65}	; 0x41
 968:	0d41040e 	cfstrdeq	mvd0, [r1, #-56]	; 0xffffffc8
 96c:	0ec7420d 	cdpeq	2, 12, cr4, cr7, cr13, {0}
 970:	00000000 	andeq	r0, r0, r0
 974:	00000024 	andeq	r0, r0, r4, lsr #32
 978:	000008f4 	strdeq	r0, [r0], -r4
 97c:	00001810 	andeq	r1, r0, r0, lsl r8
 980:	00000028 	andeq	r0, r0, r8, lsr #32
 984:	87040e41 	strhi	r0, [r4, -r1, asr #28]
 988:	100e4101 	andne	r4, lr, r1, lsl #2
 98c:	4d070d41 	stcmi	13, cr0, [r7, #-260]	; 0xfffffefc
 990:	0d41040e 	cfstrdeq	mvd0, [r1, #-56]	; 0xffffffc8
 994:	0ec7420d 	cdpeq	2, 12, cr4, cr7, cr13, {0}
 998:	00000000 	andeq	r0, r0, r0
 99c:	00000020 	andeq	r0, r0, r0, lsr #32
 9a0:	000008f4 	strdeq	r0, [r0], -r4
 9a4:	00001838 	andeq	r1, r0, r8, lsr r8
 9a8:	00000090 	muleq	r0, r0, r0
 9ac:	87080e41 	strhi	r0, [r8, -r1, asr #28]
 9b0:	41018e02 	tstmi	r1, r2, lsl #28
 9b4:	0d41180e 	stcleq	8, cr1, [r1, #-56]	; 0xffffffc8
 9b8:	0e410207 	cdpeq	2, 4, cr0, cr1, cr7, {0}
 9bc:	0d0d4108 	stfeqs	f4, [sp, #-32]	; 0xffffffe0
 9c0:	00000024 	andeq	r0, r0, r4, lsr #32
 9c4:	000008f4 	strdeq	r0, [r0], -r4
 9c8:	000018c8 	andeq	r1, r0, r8, asr #17
 9cc:	00000024 	andeq	r0, r0, r4, lsr #32
 9d0:	87040e41 	strhi	r0, [r4, -r1, asr #28]
 9d4:	100e4101 	andne	r4, lr, r1, lsl #2
 9d8:	4b070d41 	blmi	1c3ee4 <_etext+0x1c17eb>
 9dc:	0d41040e 	cfstrdeq	mvd0, [r1, #-56]	; 0xffffffc8
 9e0:	0ec7420d 	cdpeq	2, 12, cr4, cr7, cr13, {0}
 9e4:	00000000 	andeq	r0, r0, r0
 9e8:	00000020 	andeq	r0, r0, r0, lsr #32
 9ec:	000008f4 	strdeq	r0, [r0], -r4
 9f0:	000018ec 	andeq	r1, r0, ip, ror #17
 9f4:	00000022 	andeq	r0, r0, r2, lsr #32
 9f8:	87080e41 	strhi	r0, [r8, -r1, asr #28]
 9fc:	41018e02 	tstmi	r1, r2, lsl #28
 a00:	0d41100e 	stcleq	0, cr1, [r1, #-56]	; 0xffffffc8
 a04:	080e4c07 	stmdaeq	lr, {r0, r1, r2, sl, fp, lr}
 a08:	000d0d41 	andeq	r0, sp, r1, asr #26
 a0c:	00000024 	andeq	r0, r0, r4, lsr #32
 a10:	000008f4 	strdeq	r0, [r0], -r4
 a14:	00001910 	andeq	r1, r0, r0, lsl r9
 a18:	00000026 	andeq	r0, r0, r6, lsr #32
 a1c:	87040e41 	strhi	r0, [r4, -r1, asr #28]
 a20:	180e4101 	stmdane	lr, {r0, r8, lr}
 a24:	4c070d41 	stcmi	13, cr0, [r7], {65}	; 0x41
 a28:	0d41040e 	cfstrdeq	mvd0, [r1, #-56]	; 0xffffffc8
 a2c:	0ec7420d 	cdpeq	2, 12, cr4, cr7, cr13, {0}
 a30:	00000000 	andeq	r0, r0, r0
 a34:	00000024 	andeq	r0, r0, r4, lsr #32
 a38:	000008f4 	strdeq	r0, [r0], -r4
 a3c:	00001938 	andeq	r1, r0, r8, lsr r9
 a40:	0000002c 	andeq	r0, r0, ip, lsr #32
 a44:	87040e41 	strhi	r0, [r4, -r1, asr #28]
 a48:	180e4101 	stmdane	lr, {r0, r8, lr}
 a4c:	4f070d41 	svcmi	0x00070d41
 a50:	0d41040e 	cfstrdeq	mvd0, [r1, #-56]	; 0xffffffc8
 a54:	0ec7420d 	cdpeq	2, 12, cr4, cr7, cr13, {0}
 a58:	00000000 	andeq	r0, r0, r0
 a5c:	00000024 	andeq	r0, r0, r4, lsr #32
 a60:	000008f4 	strdeq	r0, [r0], -r4
 a64:	00001964 	andeq	r1, r0, r4, ror #18
 a68:	0000002c 	andeq	r0, r0, ip, lsr #32
 a6c:	87040e41 	strhi	r0, [r4, -r1, asr #28]
 a70:	180e4101 	stmdane	lr, {r0, r8, lr}
 a74:	4f070d41 	svcmi	0x00070d41
 a78:	0d41040e 	cfstrdeq	mvd0, [r1, #-56]	; 0xffffffc8
 a7c:	0ec7420d 	cdpeq	2, 12, cr4, cr7, cr13, {0}
 a80:	00000000 	andeq	r0, r0, r0
 a84:	00000024 	andeq	r0, r0, r4, lsr #32
 a88:	000008f4 	strdeq	r0, [r0], -r4
 a8c:	00001990 	muleq	r0, r0, r9
 a90:	00000026 	andeq	r0, r0, r6, lsr #32
 a94:	87040e41 	strhi	r0, [r4, -r1, asr #28]
 a98:	180e4101 	stmdane	lr, {r0, r8, lr}
 a9c:	4c070d41 	stcmi	13, cr0, [r7], {65}	; 0x41
 aa0:	0d41040e 	cfstrdeq	mvd0, [r1, #-56]	; 0xffffffc8
 aa4:	0ec7420d 	cdpeq	2, 12, cr4, cr7, cr13, {0}
 aa8:	00000000 	andeq	r0, r0, r0
 aac:	00000024 	andeq	r0, r0, r4, lsr #32
 ab0:	000008f4 	strdeq	r0, [r0], -r4
 ab4:	000019b8 			; <UNDEFINED> instruction: 0x000019b8
 ab8:	00000026 	andeq	r0, r0, r6, lsr #32
 abc:	87040e41 	strhi	r0, [r4, -r1, asr #28]
 ac0:	180e4101 	stmdane	lr, {r0, r8, lr}
 ac4:	4c070d41 	stcmi	13, cr0, [r7], {65}	; 0x41
 ac8:	0d41040e 	cfstrdeq	mvd0, [r1, #-56]	; 0xffffffc8
 acc:	0ec7420d 	cdpeq	2, 12, cr4, cr7, cr13, {0}
 ad0:	00000000 	andeq	r0, r0, r0
 ad4:	00000024 	andeq	r0, r0, r4, lsr #32
 ad8:	000008f4 	strdeq	r0, [r0], -r4
 adc:	000019e0 	andeq	r1, r0, r0, ror #19
 ae0:	0000006e 	andeq	r0, r0, lr, rrx
 ae4:	87040e41 	strhi	r0, [r4, -r1, asr #28]
 ae8:	200e4101 	andcs	r4, lr, r1, lsl #2
 aec:	70070d41 	andvc	r0, r7, r1, asr #26
 af0:	0d41040e 	cfstrdeq	mvd0, [r1, #-56]	; 0xffffffc8
 af4:	0ec7420d 	cdpeq	2, 12, cr4, cr7, cr13, {0}
 af8:	00000000 	andeq	r0, r0, r0
 afc:	00000024 	andeq	r0, r0, r4, lsr #32
 b00:	000008f4 	strdeq	r0, [r0], -r4
 b04:	00001a50 	andeq	r1, r0, r0, asr sl
 b08:	00000052 	andeq	r0, r0, r2, asr r0
 b0c:	87040e41 	strhi	r0, [r4, -r1, asr #28]
 b10:	180e4101 	stmdane	lr, {r0, r8, lr}
 b14:	62070d41 	andvs	r0, r7, #4160	; 0x1040
 b18:	0d41040e 	cfstrdeq	mvd0, [r1, #-56]	; 0xffffffc8
 b1c:	0ec7420d 	cdpeq	2, 12, cr4, cr7, cr13, {0}
 b20:	00000000 	andeq	r0, r0, r0
 b24:	00000024 	andeq	r0, r0, r4, lsr #32
 b28:	000008f4 	strdeq	r0, [r0], -r4
 b2c:	00001aa4 	andeq	r1, r0, r4, lsr #21
 b30:	00000052 	andeq	r0, r0, r2, asr r0
 b34:	87040e41 	strhi	r0, [r4, -r1, asr #28]
 b38:	180e4101 	stmdane	lr, {r0, r8, lr}
 b3c:	62070d41 	andvs	r0, r7, #4160	; 0x1040
 b40:	0d41040e 	cfstrdeq	mvd0, [r1, #-56]	; 0xffffffc8
 b44:	0ec7420d 	cdpeq	2, 12, cr4, cr7, cr13, {0}
 b48:	00000000 	andeq	r0, r0, r0
 b4c:	00000024 	andeq	r0, r0, r4, lsr #32
 b50:	000008f4 	strdeq	r0, [r0], -r4
 b54:	00001af8 	strdeq	r1, [r0], -r8
 b58:	0000006a 	andeq	r0, r0, sl, rrx
 b5c:	87040e41 	strhi	r0, [r4, -r1, asr #28]
 b60:	200e4101 	andcs	r4, lr, r1, lsl #2
 b64:	6e070d41 	cdpvs	13, 0, cr0, cr7, cr1, {2}
 b68:	0d41040e 	cfstrdeq	mvd0, [r1, #-56]	; 0xffffffc8
 b6c:	0ec7420d 	cdpeq	2, 12, cr4, cr7, cr13, {0}
 b70:	00000000 	andeq	r0, r0, r0
 b74:	00000020 	andeq	r0, r0, r0, lsr #32
 b78:	000008f4 	strdeq	r0, [r0], -r4
 b7c:	00001b64 	andeq	r1, r0, r4, ror #22
 b80:	0000005a 	andeq	r0, r0, sl, asr r0
 b84:	87080e41 	strhi	r0, [r8, -r1, asr #28]
 b88:	41018e02 	tstmi	r1, r2, lsl #28
 b8c:	0d41180e 	stcleq	8, cr1, [r1, #-56]	; 0xffffffc8
 b90:	080e6807 	stmdaeq	lr, {r0, r1, r2, fp, sp, lr}
 b94:	000d0d41 	andeq	r0, sp, r1, asr #26
 b98:	0000000c 	andeq	r0, r0, ip
 b9c:	ffffffff 			; <UNDEFINED> instruction: 0xffffffff
 ba0:	7c020001 	stcvc	0, cr0, [r2], {1}
 ba4:	000d0c0e 	andeq	r0, sp, lr, lsl #24
 ba8:	00000020 	andeq	r0, r0, r0, lsr #32
 bac:	00000b98 	muleq	r0, r8, fp
 bb0:	00001bc0 	andeq	r1, r0, r0, asr #23
 bb4:	00000022 	andeq	r0, r0, r2, lsr #32
 bb8:	87080e41 	strhi	r0, [r8, -r1, asr #28]
 bbc:	41018e02 	tstmi	r1, r2, lsl #28
 bc0:	0d41100e 	stcleq	0, cr1, [r1, #-56]	; 0xffffffc8
 bc4:	080e4c07 	stmdaeq	lr, {r0, r1, r2, sl, fp, lr}
 bc8:	000d0d41 	andeq	r0, sp, r1, asr #26
 bcc:	00000020 	andeq	r0, r0, r0, lsr #32
 bd0:	00000b98 	muleq	r0, r8, fp
 bd4:	00001be4 	andeq	r1, r0, r4, ror #23
 bd8:	0000005c 	andeq	r0, r0, ip, asr r0
 bdc:	87080e41 	strhi	r0, [r8, -r1, asr #28]
 be0:	41018e02 	tstmi	r1, r2, lsl #28
 be4:	0d41200e 	stcleq	0, cr2, [r1, #-56]	; 0xffffffc8
 be8:	080e6907 	stmdaeq	lr, {r0, r1, r2, r8, fp, sp, lr}
 bec:	000d0d41 	andeq	r0, sp, r1, asr #26
 bf0:	00000020 	andeq	r0, r0, r0, lsr #32
 bf4:	00000b98 	muleq	r0, r8, fp
 bf8:	00001c40 	andeq	r1, r0, r0, asr #24
 bfc:	0000006e 	andeq	r0, r0, lr, rrx
 c00:	87080e41 	strhi	r0, [r8, -r1, asr #28]
 c04:	41018e02 	tstmi	r1, r2, lsl #28
 c08:	0d41280e 	stcleq	8, cr2, [r1, #-56]	; 0xffffffc8
 c0c:	080e7207 	stmdaeq	lr, {r0, r1, r2, r9, ip, sp, lr}
 c10:	000d0d41 	andeq	r0, sp, r1, asr #26
 c14:	00000020 	andeq	r0, r0, r0, lsr #32
 c18:	00000b98 	muleq	r0, r8, fp
 c1c:	00001cb0 			; <UNDEFINED> instruction: 0x00001cb0
 c20:	0000004e 	andeq	r0, r0, lr, asr #32
 c24:	87080e41 	strhi	r0, [r8, -r1, asr #28]
 c28:	41018e02 	tstmi	r1, r2, lsl #28
 c2c:	0d41200e 	stcleq	0, cr2, [r1, #-56]	; 0xffffffc8
 c30:	080e6207 	stmdaeq	lr, {r0, r1, r2, r9, sp, lr}
 c34:	000d0d41 	andeq	r0, sp, r1, asr #26
 c38:	00000020 	andeq	r0, r0, r0, lsr #32
 c3c:	00000b98 	muleq	r0, r8, fp
 c40:	00001d00 	andeq	r1, r0, r0, lsl #26
 c44:	0000009c 	muleq	r0, ip, r0
 c48:	87080e41 	strhi	r0, [r8, -r1, asr #28]
 c4c:	41018e02 	tstmi	r1, r2, lsl #28
 c50:	0d41280e 	stcleq	8, cr2, [r1, #-56]	; 0xffffffc8
 c54:	0e430207 	cdpeq	2, 4, cr0, cr3, cr7, {0}
 c58:	0d0d4108 	stfeqs	f4, [sp, #-32]	; 0xffffffe0
 c5c:	00000020 	andeq	r0, r0, r0, lsr #32
 c60:	00000b98 	muleq	r0, r8, fp
 c64:	00001d9c 	muleq	r0, ip, sp
 c68:	0000002e 	andeq	r0, r0, lr, lsr #32
 c6c:	87080e41 	strhi	r0, [r8, -r1, asr #28]
 c70:	41018e02 	tstmi	r1, r2, lsl #28
 c74:	0d41180e 	stcleq	8, cr1, [r1, #-56]	; 0xffffffc8
 c78:	080e5207 	stmdaeq	lr, {r0, r1, r2, r9, ip, lr}
 c7c:	000d0d41 	andeq	r0, sp, r1, asr #26
 c80:	0000000c 	andeq	r0, r0, ip
 c84:	ffffffff 			; <UNDEFINED> instruction: 0xffffffff
 c88:	7c020001 	stcvc	0, cr0, [r2], {1}
 c8c:	000d0c0e 	andeq	r0, sp, lr, lsl #24
 c90:	00000020 	andeq	r0, r0, r0, lsr #32
 c94:	00000c80 	andeq	r0, r0, r0, lsl #25
 c98:	00001dcc 	andeq	r1, r0, ip, asr #27
 c9c:	00000038 	andeq	r0, r0, r8, lsr r0
 ca0:	87080e41 	strhi	r0, [r8, -r1, asr #28]
 ca4:	41018e02 	tstmi	r1, r2, lsl #28
 ca8:	0d41180e 	stcleq	8, cr1, [r1, #-56]	; 0xffffffc8
 cac:	080e5707 	stmdaeq	lr, {r0, r1, r2, r8, r9, sl, ip, lr}
 cb0:	000d0d41 	andeq	r0, sp, r1, asr #26
 cb4:	00000020 	andeq	r0, r0, r0, lsr #32
 cb8:	00000c80 	andeq	r0, r0, r0, lsl #25
 cbc:	00001e04 	andeq	r1, r0, r4, lsl #28
 cc0:	00000060 	andeq	r0, r0, r0, rrx
 cc4:	87080e41 	strhi	r0, [r8, -r1, asr #28]
 cc8:	41018e02 	tstmi	r1, r2, lsl #28
 ccc:	0c41200e 	mcrreq	0, 0, r2, r1, cr14
 cd0:	0e681807 	cdpeq	8, 6, cr1, cr8, cr7, {0}
 cd4:	0d0d4108 	stfeqs	f4, [sp, #-32]	; 0xffffffe0
 cd8:	00000020 	andeq	r0, r0, r0, lsr #32
 cdc:	00000c80 	andeq	r0, r0, r0, lsl #25
 ce0:	00001e64 	andeq	r1, r0, r4, ror #28
 ce4:	00000044 	andeq	r0, r0, r4, asr #32
 ce8:	87080e41 	strhi	r0, [r8, -r1, asr #28]
 cec:	41018e02 	tstmi	r1, r2, lsl #28
 cf0:	0d41180e 	stcleq	8, cr1, [r1, #-56]	; 0xffffffc8
 cf4:	080e5a07 	stmdaeq	lr, {r0, r1, r2, r9, fp, ip, lr}
 cf8:	000d0d41 	andeq	r0, sp, r1, asr #26
 cfc:	00000020 	andeq	r0, r0, r0, lsr #32
 d00:	00000c80 	andeq	r0, r0, r0, lsl #25
 d04:	00001ea8 	andeq	r1, r0, r8, lsr #29
 d08:	00000078 	andeq	r0, r0, r8, ror r0
 d0c:	87080e41 	strhi	r0, [r8, -r1, asr #28]
 d10:	41018e02 	tstmi	r1, r2, lsl #28
 d14:	0d41180e 	stcleq	8, cr1, [r1, #-56]	; 0xffffffc8
 d18:	080e7407 	stmdaeq	lr, {r0, r1, r2, sl, ip, sp, lr}
 d1c:	000d0d41 	andeq	r0, sp, r1, asr #26
 d20:	00000020 	andeq	r0, r0, r0, lsr #32
 d24:	00000c80 	andeq	r0, r0, r0, lsl #25
 d28:	00001f20 	andeq	r1, r0, r0, lsr #30
 d2c:	0000003a 	andeq	r0, r0, sl, lsr r0
 d30:	87080e41 	strhi	r0, [r8, -r1, asr #28]
 d34:	41018e02 	tstmi	r1, r2, lsl #28
 d38:	0d41180e 	stcleq	8, cr1, [r1, #-56]	; 0xffffffc8
 d3c:	080e5807 	stmdaeq	lr, {r0, r1, r2, fp, ip, lr}
 d40:	000d0d41 	andeq	r0, sp, r1, asr #26
 d44:	00000020 	andeq	r0, r0, r0, lsr #32
 d48:	00000c80 	andeq	r0, r0, r0, lsl #25
 d4c:	00001f5c 	andeq	r1, r0, ip, asr pc
 d50:	0000003c 	andeq	r0, r0, ip, lsr r0
 d54:	87080e41 	strhi	r0, [r8, -r1, asr #28]
 d58:	41018e02 	tstmi	r1, r2, lsl #28
 d5c:	0d41180e 	stcleq	8, cr1, [r1, #-56]	; 0xffffffc8
 d60:	080e5907 	stmdaeq	lr, {r0, r1, r2, r8, fp, ip, lr}
 d64:	000d0d41 	andeq	r0, sp, r1, asr #26
 d68:	0000000c 	andeq	r0, r0, ip
 d6c:	ffffffff 			; <UNDEFINED> instruction: 0xffffffff
 d70:	7c020001 	stcvc	0, cr0, [r2], {1}
 d74:	000d0c0e 	andeq	r0, sp, lr, lsl #24
 d78:	00000020 	andeq	r0, r0, r0, lsr #32
 d7c:	00000d68 	andeq	r0, r0, r8, ror #26
 d80:	00001f98 	muleq	r0, r8, pc	; <UNPREDICTABLE>
 d84:	0000003a 	andeq	r0, r0, sl, lsr r0
 d88:	87080e41 	strhi	r0, [r8, -r1, asr #28]
 d8c:	41018e02 	tstmi	r1, r2, lsl #28
 d90:	0d41180e 	stcleq	8, cr1, [r1, #-56]	; 0xffffffc8
 d94:	080e5807 	stmdaeq	lr, {r0, r1, r2, fp, ip, lr}
 d98:	000d0d41 	andeq	r0, sp, r1, asr #26
 d9c:	00000024 	andeq	r0, r0, r4, lsr #32
 da0:	00000d68 	andeq	r0, r0, r8, ror #26
 da4:	00001fd4 	ldrdeq	r1, [r0], -r4
 da8:	00000094 	muleq	r0, r4, r0
 dac:	87080e41 	strhi	r0, [r8, -r1, asr #28]
 db0:	41018e02 	tstmi	r1, r2, lsl #28
 db4:	0c41280e 	mcrreq	8, 0, r2, r1, cr14
 db8:	43022007 	movwmi	r2, #8199	; 0x2007
 dbc:	0d41080e 	stcleq	8, cr0, [r1, #-56]	; 0xffffffc8
 dc0:	0000000d 	andeq	r0, r0, sp
 dc4:	00000020 	andeq	r0, r0, r0, lsr #32
 dc8:	00000d68 	andeq	r0, r0, r8, ror #26
 dcc:	00002068 	andeq	r2, r0, r8, rrx
 dd0:	00000070 	andeq	r0, r0, r0, ror r0
 dd4:	87080e41 	strhi	r0, [r8, -r1, asr #28]
 dd8:	41018e02 	tstmi	r1, r2, lsl #28
 ddc:	0d41180e 	stcleq	8, cr1, [r1, #-56]	; 0xffffffc8
 de0:	080e7007 	stmdaeq	lr, {r0, r1, r2, ip, sp, lr}
 de4:	000d0d41 	andeq	r0, sp, r1, asr #26
 de8:	00000020 	andeq	r0, r0, r0, lsr #32
 dec:	00000d68 	andeq	r0, r0, r8, ror #26
 df0:	000020d8 	ldrdeq	r2, [r0], -r8
 df4:	000000e0 	andeq	r0, r0, r0, ror #1
 df8:	87080e41 	strhi	r0, [r8, -r1, asr #28]
 dfc:	41018e02 	tstmi	r1, r2, lsl #28
 e00:	0d41200e 	stcleq	0, cr2, [r1, #-56]	; 0xffffffc8
 e04:	0e670207 	cdpeq	2, 6, cr0, cr7, cr7, {0}
 e08:	0d0d4108 	stfeqs	f4, [sp, #-32]	; 0xffffffe0
 e0c:	00000020 	andeq	r0, r0, r0, lsr #32
 e10:	00000d68 	andeq	r0, r0, r8, ror #26
 e14:	000021b8 			; <UNDEFINED> instruction: 0x000021b8
 e18:	0000003a 	andeq	r0, r0, sl, lsr r0
 e1c:	87080e41 	strhi	r0, [r8, -r1, asr #28]
 e20:	41018e02 	tstmi	r1, r2, lsl #28
 e24:	0d41180e 	stcleq	8, cr1, [r1, #-56]	; 0xffffffc8
 e28:	080e5807 	stmdaeq	lr, {r0, r1, r2, fp, ip, lr}
 e2c:	000d0d41 	andeq	r0, sp, r1, asr #26
 e30:	00000020 	andeq	r0, r0, r0, lsr #32
 e34:	00000d68 	andeq	r0, r0, r8, ror #26
 e38:	000021f4 	strdeq	r2, [r0], -r4
 e3c:	00000036 	andeq	r0, r0, r6, lsr r0
 e40:	87080e41 	strhi	r0, [r8, -r1, asr #28]
 e44:	41018e02 	tstmi	r1, r2, lsl #28
 e48:	0d41180e 	stcleq	8, cr1, [r1, #-56]	; 0xffffffc8
 e4c:	080e5607 	stmdaeq	lr, {r0, r1, r2, r9, sl, ip, lr}
 e50:	000d0d41 	andeq	r0, sp, r1, asr #26
 e54:	00000020 	andeq	r0, r0, r0, lsr #32
 e58:	00000d68 	andeq	r0, r0, r8, ror #26
 e5c:	0000222c 	andeq	r2, r0, ip, lsr #4
 e60:	0000003a 	andeq	r0, r0, sl, lsr r0
 e64:	87080e41 	strhi	r0, [r8, -r1, asr #28]
 e68:	41018e02 	tstmi	r1, r2, lsl #28
 e6c:	0d41180e 	stcleq	8, cr1, [r1, #-56]	; 0xffffffc8
 e70:	080e5807 	stmdaeq	lr, {r0, r1, r2, fp, ip, lr}
 e74:	000d0d41 	andeq	r0, sp, r1, asr #26
 e78:	0000000c 	andeq	r0, r0, ip
 e7c:	ffffffff 			; <UNDEFINED> instruction: 0xffffffff
 e80:	7c020001 	stcvc	0, cr0, [r2], {1}
 e84:	000d0c0e 	andeq	r0, sp, lr, lsl #24
 e88:	00000020 	andeq	r0, r0, r0, lsr #32
 e8c:	00000e78 	andeq	r0, r0, r8, ror lr
 e90:	00002268 	andeq	r2, r0, r8, ror #4
 e94:	0000007a 	andeq	r0, r0, sl, ror r0
 e98:	87080e41 	strhi	r0, [r8, -r1, asr #28]
 e9c:	41018e02 	tstmi	r1, r2, lsl #28
 ea0:	0d41200e 	stcleq	0, cr2, [r1, #-56]	; 0xffffffc8
 ea4:	080e7807 	stmdaeq	lr, {r0, r1, r2, fp, ip, sp, lr}
 ea8:	000d0d41 	andeq	r0, sp, r1, asr #26
 eac:	00000020 	andeq	r0, r0, r0, lsr #32
 eb0:	00000e78 	andeq	r0, r0, r8, ror lr
 eb4:	000022e4 	andeq	r2, r0, r4, ror #5
 eb8:	00000078 	andeq	r0, r0, r8, ror r0
 ebc:	87080e41 	strhi	r0, [r8, -r1, asr #28]
 ec0:	41018e02 	tstmi	r1, r2, lsl #28
 ec4:	0c41280e 	mcrreq	8, 0, r2, r1, cr14
 ec8:	0e752007 	cdpeq	0, 7, cr2, cr5, cr7, {0}
 ecc:	0d0d4108 	stfeqs	f4, [sp, #-32]	; 0xffffffe0
 ed0:	00000020 	andeq	r0, r0, r0, lsr #32
 ed4:	00000e78 	andeq	r0, r0, r8, ror lr
 ed8:	0000235c 	andeq	r2, r0, ip, asr r3
 edc:	0000004a 	andeq	r0, r0, sl, asr #32
 ee0:	87080e41 	strhi	r0, [r8, -r1, asr #28]
 ee4:	41018e02 	tstmi	r1, r2, lsl #28
 ee8:	0d41180e 	stcleq	8, cr1, [r1, #-56]	; 0xffffffc8
 eec:	080e6007 	stmdaeq	lr, {r0, r1, r2, sp, lr}
 ef0:	000d0d41 	andeq	r0, sp, r1, asr #26
 ef4:	00000020 	andeq	r0, r0, r0, lsr #32
 ef8:	00000e78 	andeq	r0, r0, r8, ror lr
 efc:	000023a8 	andeq	r2, r0, r8, lsr #7
 f00:	00000060 	andeq	r0, r0, r0, rrx
 f04:	87080e41 	strhi	r0, [r8, -r1, asr #28]
 f08:	41018e02 	tstmi	r1, r2, lsl #28
 f0c:	0d41180e 	stcleq	8, cr1, [r1, #-56]	; 0xffffffc8
 f10:	080e6807 	stmdaeq	lr, {r0, r1, r2, fp, sp, lr}
 f14:	000d0d41 	andeq	r0, sp, r1, asr #26
 f18:	00000020 	andeq	r0, r0, r0, lsr #32
 f1c:	00000e78 	andeq	r0, r0, r8, ror lr
 f20:	00002408 	andeq	r2, r0, r8, lsl #8
 f24:	0000004a 	andeq	r0, r0, sl, asr #32
 f28:	87080e41 	strhi	r0, [r8, -r1, asr #28]
 f2c:	41018e02 	tstmi	r1, r2, lsl #28
 f30:	0d41180e 	stcleq	8, cr1, [r1, #-56]	; 0xffffffc8
 f34:	080e6007 	stmdaeq	lr, {r0, r1, r2, sp, lr}
 f38:	000d0d41 	andeq	r0, sp, r1, asr #26
 f3c:	00000020 	andeq	r0, r0, r0, lsr #32
 f40:	00000e78 	andeq	r0, r0, r8, ror lr
 f44:	00002454 	andeq	r2, r0, r4, asr r4
 f48:	00000036 	andeq	r0, r0, r6, lsr r0
 f4c:	87080e41 	strhi	r0, [r8, -r1, asr #28]
 f50:	41018e02 	tstmi	r1, r2, lsl #28
 f54:	0d41180e 	stcleq	8, cr1, [r1, #-56]	; 0xffffffc8
 f58:	080e5607 	stmdaeq	lr, {r0, r1, r2, r9, sl, ip, lr}
 f5c:	000d0d41 	andeq	r0, sp, r1, asr #26
