
rtos.elf:     file format elf32-littlearm


Disassembly of section .text:

00000000 <_text>:
       0:	2000c000 	andcs	ip, r0, r0
       4:	00000ea9 	andeq	r0, r0, r9, lsr #29
       8:	0000026d 	andeq	r0, r0, sp, ror #4
       c:	00000275 	andeq	r0, r0, r5, ror r2
      10:	0000027d 	andeq	r0, r0, sp, ror r2
      14:	0000027d 	andeq	r0, r0, sp, ror r2
      18:	0000027d 	andeq	r0, r0, sp, ror r2
	...
      2c:	0000027d 	andeq	r0, r0, sp, ror r2
      30:	0000027d 	andeq	r0, r0, sp, ror r2
      34:	00000000 	andeq	r0, r0, r0
      38:	00000edf 	ldrdeq	r0, [r0], -pc	; <UNPREDICTABLE>
      3c:	000004f9 	strdeq	r0, [r0], -r9
      40:	0000027d 	andeq	r0, r0, sp, ror r2
      44:	0000027d 	andeq	r0, r0, sp, ror r2
      48:	0000027d 	andeq	r0, r0, sp, ror r2
      4c:	0000027d 	andeq	r0, r0, sp, ror r2
      50:	0000027d 	andeq	r0, r0, sp, ror r2
      54:	0000027d 	andeq	r0, r0, sp, ror r2
      58:	0000027d 	andeq	r0, r0, sp, ror r2
      5c:	0000027d 	andeq	r0, r0, sp, ror r2
      60:	0000027d 	andeq	r0, r0, sp, ror r2
      64:	0000027d 	andeq	r0, r0, sp, ror r2
      68:	0000027d 	andeq	r0, r0, sp, ror r2
      6c:	0000027d 	andeq	r0, r0, sp, ror r2
      70:	0000027d 	andeq	r0, r0, sp, ror r2
      74:	0000027d 	andeq	r0, r0, sp, ror r2
      78:	0000027d 	andeq	r0, r0, sp, ror r2
      7c:	0000027d 	andeq	r0, r0, sp, ror r2
      80:	0000027d 	andeq	r0, r0, sp, ror r2
      84:	0000027d 	andeq	r0, r0, sp, ror r2
      88:	0000027d 	andeq	r0, r0, sp, ror r2
      8c:	0000027d 	andeq	r0, r0, sp, ror r2
      90:	0000027d 	andeq	r0, r0, sp, ror r2
      94:	0000027d 	andeq	r0, r0, sp, ror r2
      98:	0000027d 	andeq	r0, r0, sp, ror r2
      9c:	0000027d 	andeq	r0, r0, sp, ror r2
      a0:	0000027d 	andeq	r0, r0, sp, ror r2
      a4:	0000027d 	andeq	r0, r0, sp, ror r2
      a8:	0000027d 	andeq	r0, r0, sp, ror r2
      ac:	0000027d 	andeq	r0, r0, sp, ror r2
      b0:	0000027d 	andeq	r0, r0, sp, ror r2
      b4:	0000027d 	andeq	r0, r0, sp, ror r2
      b8:	0000027d 	andeq	r0, r0, sp, ror r2
      bc:	0000027d 	andeq	r0, r0, sp, ror r2
      c0:	0000027d 	andeq	r0, r0, sp, ror r2
      c4:	0000027d 	andeq	r0, r0, sp, ror r2
      c8:	0000027d 	andeq	r0, r0, sp, ror r2
      cc:	0000027d 	andeq	r0, r0, sp, ror r2
      d0:	0000027d 	andeq	r0, r0, sp, ror r2
      d4:	0000027d 	andeq	r0, r0, sp, ror r2
      d8:	0000027d 	andeq	r0, r0, sp, ror r2
      dc:	0000027d 	andeq	r0, r0, sp, ror r2
      e0:	0000027d 	andeq	r0, r0, sp, ror r2
      e4:	0000027d 	andeq	r0, r0, sp, ror r2
      e8:	0000027d 	andeq	r0, r0, sp, ror r2
      ec:	0000027d 	andeq	r0, r0, sp, ror r2
      f0:	0000027d 	andeq	r0, r0, sp, ror r2
      f4:	0000027d 	andeq	r0, r0, sp, ror r2
      f8:	0000027d 	andeq	r0, r0, sp, ror r2
      fc:	0000027d 	andeq	r0, r0, sp, ror r2
     100:	0000027d 	andeq	r0, r0, sp, ror r2
     104:	0000027d 	andeq	r0, r0, sp, ror r2
     108:	0000027d 	andeq	r0, r0, sp, ror r2
     10c:	0000027d 	andeq	r0, r0, sp, ror r2
     110:	0000027d 	andeq	r0, r0, sp, ror r2
     114:	0000027d 	andeq	r0, r0, sp, ror r2
     118:	0000027d 	andeq	r0, r0, sp, ror r2
     11c:	0000027d 	andeq	r0, r0, sp, ror r2
     120:	0000027d 	andeq	r0, r0, sp, ror r2
     124:	0000027d 	andeq	r0, r0, sp, ror r2
     128:	0000027d 	andeq	r0, r0, sp, ror r2
     12c:	0000027d 	andeq	r0, r0, sp, ror r2
     130:	0000027d 	andeq	r0, r0, sp, ror r2
     134:	0000027d 	andeq	r0, r0, sp, ror r2
     138:	0000027d 	andeq	r0, r0, sp, ror r2
     13c:	0000027d 	andeq	r0, r0, sp, ror r2
	...
     150:	0000027d 	andeq	r0, r0, sp, ror r2
     154:	0000027d 	andeq	r0, r0, sp, ror r2
     158:	0000027d 	andeq	r0, r0, sp, ror r2
     15c:	0000027d 	andeq	r0, r0, sp, ror r2
	...
     1b0:	0000027d 	andeq	r0, r0, sp, ror r2
     1b4:	0000027d 	andeq	r0, r0, sp, ror r2
     1b8:	0000027d 	andeq	r0, r0, sp, ror r2
     1bc:	0000027d 	andeq	r0, r0, sp, ror r2
     1c0:	0000027d 	andeq	r0, r0, sp, ror r2
     1c4:	0000027d 	andeq	r0, r0, sp, ror r2
     1c8:	0000027d 	andeq	r0, r0, sp, ror r2
     1cc:	0000027d 	andeq	r0, r0, sp, ror r2
     1d0:	0000027d 	andeq	r0, r0, sp, ror r2
     1d4:	0000027d 	andeq	r0, r0, sp, ror r2
     1d8:	0000027d 	andeq	r0, r0, sp, ror r2
     1dc:	0000027d 	andeq	r0, r0, sp, ror r2
     1e0:	0000027d 	andeq	r0, r0, sp, ror r2
     1e4:	0000027d 	andeq	r0, r0, sp, ror r2
     1e8:	0000027d 	andeq	r0, r0, sp, ror r2
     1ec:	0000027d 	andeq	r0, r0, sp, ror r2
     1f0:	0000027d 	andeq	r0, r0, sp, ror r2
     1f4:	0000027d 	andeq	r0, r0, sp, ror r2
     1f8:	0000027d 	andeq	r0, r0, sp, ror r2
     1fc:	0000027d 	andeq	r0, r0, sp, ror r2
     200:	0000027d 	andeq	r0, r0, sp, ror r2
     204:	0000027d 	andeq	r0, r0, sp, ror r2
     208:	0000027d 	andeq	r0, r0, sp, ror r2
     20c:	00000000 	andeq	r0, r0, r0
     210:	0000027d 	andeq	r0, r0, sp, ror r2
     214:	0000027d 	andeq	r0, r0, sp, ror r2
     218:	0000027d 	andeq	r0, r0, sp, ror r2
     21c:	0000027d 	andeq	r0, r0, sp, ror r2
     220:	0000027d 	andeq	r0, r0, sp, ror r2
     224:	0000027d 	andeq	r0, r0, sp, ror r2
     228:	0000027d 	andeq	r0, r0, sp, ror r2
     22c:	0000027d 	andeq	r0, r0, sp, ror r2
     230:	0000027d 	andeq	r0, r0, sp, ror r2
     234:	0000027d 	andeq	r0, r0, sp, ror r2
     238:	0000027d 	andeq	r0, r0, sp, ror r2
     23c:	0000027d 	andeq	r0, r0, sp, ror r2
     240:	0000027d 	andeq	r0, r0, sp, ror r2
     244:	0000027d 	andeq	r0, r0, sp, ror r2
     248:	0000027d 	andeq	r0, r0, sp, ror r2
     24c:	0000027d 	andeq	r0, r0, sp, ror r2
     250:	0000027d 	andeq	r0, r0, sp, ror r2
     254:	0000027d 	andeq	r0, r0, sp, ror r2
     258:	0000027d 	andeq	r0, r0, sp, ror r2
     25c:	0000027d 	andeq	r0, r0, sp, ror r2
     260:	0000027d 	andeq	r0, r0, sp, ror r2
     264:	0000027d 	andeq	r0, r0, sp, ror r2
     268:	0000027d 	andeq	r0, r0, sp, ror r2

0000026c <NmiSR>:
     26c:	b480      	push	{r7}
     26e:	af00      	add	r7, sp, #0
     270:	e7fe      	b.n	270 <NmiSR+0x4>
     272:	bf00      	nop

00000274 <FaultISR>:
     274:	b480      	push	{r7}
     276:	af00      	add	r7, sp, #0
     278:	e7fe      	b.n	278 <FaultISR+0x4>
     27a:	bf00      	nop

0000027c <IntDefaultHandler>:
     27c:	b580      	push	{r7, lr}
     27e:	af00      	add	r7, sp, #0
     280:	4801      	ldr	r0, [pc, #4]	; (288 <IntDefaultHandler+0xc>)
     282:	f000 fbab 	bl	9dc <printk>
     286:	e7fe      	b.n	286 <IntDefaultHandler+0xa>
     288:	0000248c 	andeq	r2, r0, ip, lsl #9

0000028c <clear_bss>:
     28c:	b480      	push	{r7}
     28e:	b083      	sub	sp, #12
     290:	af00      	add	r7, sp, #0
     292:	4b0a      	ldr	r3, [pc, #40]	; (2bc <clear_bss+0x30>)
     294:	681b      	ldr	r3, [r3, #0]
     296:	607b      	str	r3, [r7, #4]
     298:	e005      	b.n	2a6 <clear_bss+0x1a>
     29a:	687b      	ldr	r3, [r7, #4]
     29c:	2200      	movs	r2, #0
     29e:	701a      	strb	r2, [r3, #0]
     2a0:	687b      	ldr	r3, [r7, #4]
     2a2:	3301      	adds	r3, #1
     2a4:	607b      	str	r3, [r7, #4]
     2a6:	687a      	ldr	r2, [r7, #4]
     2a8:	4b05      	ldr	r3, [pc, #20]	; (2c0 <clear_bss+0x34>)
     2aa:	681b      	ldr	r3, [r3, #0]
     2ac:	429a      	cmp	r2, r3
     2ae:	d3f4      	bcc.n	29a <clear_bss+0xe>
     2b0:	370c      	adds	r7, #12
     2b2:	46bd      	mov	sp, r7
     2b4:	f85d 7b04 	ldr.w	r7, [sp], #4
     2b8:	4770      	bx	lr
     2ba:	bf00      	nop
     2bc:	20000000 	andcs	r0, r0, r0
     2c0:	20005adc 	ldrdcs	r5, [r0], -ip

000002c4 <task1_entry>:
     2c4:	b580      	push	{r7, lr}
     2c6:	b098      	sub	sp, #96	; 0x60
     2c8:	af00      	add	r7, sp, #0
     2ca:	6078      	str	r0, [r7, #4]
     2cc:	200a      	movs	r0, #10
     2ce:	f000 f8f1 	bl	4b4 <init_systick>
     2d2:	4824      	ldr	r0, [pc, #144]	; (364 <task1_entry+0xa0>)
     2d4:	4924      	ldr	r1, [pc, #144]	; (368 <task1_entry+0xa4>)
     2d6:	2264      	movs	r2, #100	; 0x64
     2d8:	2314      	movs	r3, #20
     2da:	f001 ffc5 	bl	2268 <mem_block_init>
     2de:	4823      	ldr	r0, [pc, #140]	; (36c <task1_entry+0xa8>)
     2e0:	4923      	ldr	r1, [pc, #140]	; (370 <task1_entry+0xac>)
     2e2:	f000 fb7b 	bl	9dc <printk>
     2e6:	2300      	movs	r3, #0
     2e8:	f887 305f 	strb.w	r3, [r7, #95]	; 0x5f
     2ec:	e00f      	b.n	30e <task1_entry+0x4a>
     2ee:	f897 305f 	ldrb.w	r3, [r7, #95]	; 0x5f
     2f2:	f107 020c 	add.w	r2, r7, #12
     2f6:	009b      	lsls	r3, r3, #2
     2f8:	4413      	add	r3, r2
     2fa:	481a      	ldr	r0, [pc, #104]	; (364 <task1_entry+0xa0>)
     2fc:	4619      	mov	r1, r3
     2fe:	2200      	movs	r2, #0
     300:	f001 fff0 	bl	22e4 <mem_block_alloc>
     304:	f897 305f 	ldrb.w	r3, [r7, #95]	; 0x5f
     308:	3301      	adds	r3, #1
     30a:	f887 305f 	strb.w	r3, [r7, #95]	; 0x5f
     30e:	f897 305f 	ldrb.w	r3, [r7, #95]	; 0x5f
     312:	2b13      	cmp	r3, #19
     314:	d9eb      	bls.n	2ee <task1_entry+0x2a>
     316:	2002      	movs	r0, #2
     318:	f000 ff2e 	bl	1178 <task_delay_s>
     31c:	4815      	ldr	r0, [pc, #84]	; (374 <task1_entry+0xb0>)
     31e:	4914      	ldr	r1, [pc, #80]	; (370 <task1_entry+0xac>)
     320:	f000 fb5c 	bl	9dc <printk>
     324:	2300      	movs	r3, #0
     326:	f887 305f 	strb.w	r3, [r7, #95]	; 0x5f
     32a:	e00e      	b.n	34a <task1_entry+0x86>
     32c:	f897 305f 	ldrb.w	r3, [r7, #95]	; 0x5f
     330:	f107 020c 	add.w	r2, r7, #12
     334:	009b      	lsls	r3, r3, #2
     336:	4413      	add	r3, r2
     338:	480a      	ldr	r0, [pc, #40]	; (364 <task1_entry+0xa0>)
     33a:	4619      	mov	r1, r3
     33c:	f002 f834 	bl	23a8 <mem_block_free>
     340:	f897 305f 	ldrb.w	r3, [r7, #95]	; 0x5f
     344:	3301      	adds	r3, #1
     346:	f887 305f 	strb.w	r3, [r7, #95]	; 0x5f
     34a:	f897 305f 	ldrb.w	r3, [r7, #95]	; 0x5f
     34e:	2b13      	cmp	r3, #19
     350:	d9ec      	bls.n	32c <task1_entry+0x68>
     352:	4809      	ldr	r0, [pc, #36]	; (378 <task1_entry+0xb4>)
     354:	4906      	ldr	r1, [pc, #24]	; (370 <task1_entry+0xac>)
     356:	f000 fb41 	bl	9dc <printk>
     35a:	2001      	movs	r0, #1
     35c:	f000 ff0c 	bl	1178 <task_delay_s>
     360:	e7bd      	b.n	2de <task1_entry+0x1a>
     362:	bf00      	nop
     364:	20002098 	mulcs	r0, r8, r0
     368:	20003140 	andcs	r3, r0, r0, asr #2
     36c:	000024a0 	andeq	r2, r0, r0, lsr #9
     370:	000024f8 	strdeq	r2, [r0], -r8
     374:	000024ac 	andeq	r2, r0, ip, lsr #9
     378:	000024b8 			; <UNDEFINED> instruction: 0x000024b8

0000037c <task2_entry>:
     37c:	b580      	push	{r7, lr}
     37e:	b084      	sub	sp, #16
     380:	af00      	add	r7, sp, #0
     382:	6078      	str	r0, [r7, #4]
     384:	f107 030c 	add.w	r3, r7, #12
     388:	4805      	ldr	r0, [pc, #20]	; (3a0 <task2_entry+0x24>)
     38a:	4619      	mov	r1, r3
     38c:	2200      	movs	r2, #0
     38e:	f001 ffa9 	bl	22e4 <mem_block_alloc>
     392:	68fb      	ldr	r3, [r7, #12]
     394:	4803      	ldr	r0, [pc, #12]	; (3a4 <task2_entry+0x28>)
     396:	4904      	ldr	r1, [pc, #16]	; (3a8 <task2_entry+0x2c>)
     398:	461a      	mov	r2, r3
     39a:	f000 fb1f 	bl	9dc <printk>
     39e:	e7f1      	b.n	384 <task2_entry+0x8>
     3a0:	20002098 	mulcs	r0, r8, r0
     3a4:	000024bc 			; <UNDEFINED> instruction: 0x000024bc
     3a8:	00002504 	andeq	r2, r0, r4, lsl #10

000003ac <task3_entry>:
     3ac:	b580      	push	{r7, lr}
     3ae:	b082      	sub	sp, #8
     3b0:	af00      	add	r7, sp, #0
     3b2:	6078      	str	r0, [r7, #4]
     3b4:	4803      	ldr	r0, [pc, #12]	; (3c4 <task3_entry+0x18>)
     3b6:	4904      	ldr	r1, [pc, #16]	; (3c8 <task3_entry+0x1c>)
     3b8:	f000 fb10 	bl	9dc <printk>
     3bc:	2001      	movs	r0, #1
     3be:	f000 fedb 	bl	1178 <task_delay_s>
     3c2:	e7f7      	b.n	3b4 <task3_entry+0x8>
     3c4:	000024b8 			; <UNDEFINED> instruction: 0x000024b8
     3c8:	00002510 	andeq	r2, r0, r0, lsl r5

000003cc <task4_entry>:
     3cc:	b580      	push	{r7, lr}
     3ce:	b082      	sub	sp, #8
     3d0:	af00      	add	r7, sp, #0
     3d2:	6078      	str	r0, [r7, #4]
     3d4:	4803      	ldr	r0, [pc, #12]	; (3e4 <task4_entry+0x18>)
     3d6:	4904      	ldr	r1, [pc, #16]	; (3e8 <task4_entry+0x1c>)
     3d8:	f000 fb00 	bl	9dc <printk>
     3dc:	2001      	movs	r0, #1
     3de:	f000 fecb 	bl	1178 <task_delay_s>
     3e2:	e7f7      	b.n	3d4 <task4_entry+0x8>
     3e4:	000024b8 			; <UNDEFINED> instruction: 0x000024b8
     3e8:	0000251c 	andeq	r2, r0, ip, lsl r5

000003ec <main>:
     3ec:	b580      	push	{r7, lr}
     3ee:	b082      	sub	sp, #8
     3f0:	af02      	add	r7, sp, #8
     3f2:	f7ff ff4b 	bl	28c <clear_bss>
     3f6:	481f      	ldr	r0, [pc, #124]	; (474 <main+0x88>)
     3f8:	f000 faf0 	bl	9dc <printk>
     3fc:	f000 fd63 	bl	ec6 <get_psp>
     400:	4603      	mov	r3, r0
     402:	481d      	ldr	r0, [pc, #116]	; (478 <main+0x8c>)
     404:	4619      	mov	r1, r3
     406:	f000 fae9 	bl	9dc <printk>
     40a:	f000 fd62 	bl	ed2 <get_msp>
     40e:	4603      	mov	r3, r0
     410:	481a      	ldr	r0, [pc, #104]	; (47c <main+0x90>)
     412:	4619      	mov	r1, r3
     414:	f000 fae2 	bl	9dc <printk>
     418:	f000 ff36 	bl	1288 <init_task_module>
     41c:	4b18      	ldr	r3, [pc, #96]	; (480 <main+0x94>)
     41e:	9300      	str	r3, [sp, #0]
     420:	4818      	ldr	r0, [pc, #96]	; (484 <main+0x98>)
     422:	4919      	ldr	r1, [pc, #100]	; (488 <main+0x9c>)
     424:	f04f 3211 	mov.w	r2, #286331153	; 0x11111111
     428:	2300      	movs	r3, #0
     42a:	f000 fd85 	bl	f38 <task_init>
     42e:	4b17      	ldr	r3, [pc, #92]	; (48c <main+0xa0>)
     430:	9300      	str	r3, [sp, #0]
     432:	4817      	ldr	r0, [pc, #92]	; (490 <main+0xa4>)
     434:	4917      	ldr	r1, [pc, #92]	; (494 <main+0xa8>)
     436:	f04f 3222 	mov.w	r2, #572662306	; 0x22222222
     43a:	2301      	movs	r3, #1
     43c:	f000 fd7c 	bl	f38 <task_init>
     440:	4b15      	ldr	r3, [pc, #84]	; (498 <main+0xac>)
     442:	9300      	str	r3, [sp, #0]
     444:	4815      	ldr	r0, [pc, #84]	; (49c <main+0xb0>)
     446:	4916      	ldr	r1, [pc, #88]	; (4a0 <main+0xb4>)
     448:	f04f 3233 	mov.w	r2, #858993459	; 0x33333333
     44c:	2300      	movs	r3, #0
     44e:	f000 fd73 	bl	f38 <task_init>
     452:	4b14      	ldr	r3, [pc, #80]	; (4a4 <main+0xb8>)
     454:	9300      	str	r3, [sp, #0]
     456:	4814      	ldr	r0, [pc, #80]	; (4a8 <main+0xbc>)
     458:	4914      	ldr	r1, [pc, #80]	; (4ac <main+0xc0>)
     45a:	f04f 3244 	mov.w	r2, #1145324612	; 0x44444444
     45e:	2301      	movs	r3, #1
     460:	f000 fd6a 	bl	f38 <task_init>
     464:	f000 ffa0 	bl	13a8 <task_highest_ready>
     468:	4602      	mov	r2, r0
     46a:	4b11      	ldr	r3, [pc, #68]	; (4b0 <main+0xc4>)
     46c:	601a      	str	r2, [r3, #0]
     46e:	f000 fe4d 	bl	110c <task_run_first>
     472:	e7fe      	b.n	472 <main+0x86>
     474:	000024c4 	andeq	r2, r0, r4, asr #9
     478:	000024e0 	andeq	r2, r0, r0, ror #9
     47c:	000024ec 	andeq	r2, r0, ip, ror #9
     480:	20002058 	andcs	r2, r0, r8, asr r0
     484:	200030c0 	andcs	r3, r0, r0, asr #1
     488:	000002c5 	andeq	r0, r0, r5, asr #5
     48c:	20004910 	andcs	r4, r0, r0, lsl r9
     490:	20003100 	andcs	r3, r0, r0, lsl #2
     494:	0000037d 	andeq	r0, r0, sp, ror r3
     498:	20005910 	andcs	r5, r0, r0, lsl r9
     49c:	20005910 	andcs	r5, r0, r0, lsl r9
     4a0:	000003ad 	andeq	r0, r0, sp, lsr #7
     4a4:	200030c0 	andcs	r3, r0, r0, asr #1
     4a8:	20002058 	andcs	r2, r0, r8, asr r0
     4ac:	000003cd 	andeq	r0, r0, sp, asr #7
     4b0:	20005950 	andcs	r5, r0, r0, asr r9

000004b4 <init_systick>:
     4b4:	b480      	push	{r7}
     4b6:	b085      	sub	sp, #20
     4b8:	af00      	add	r7, sp, #0
     4ba:	6078      	str	r0, [r7, #4]
     4bc:	4b0c      	ldr	r3, [pc, #48]	; (4f0 <init_systick+0x3c>)
     4be:	60fb      	str	r3, [r7, #12]
     4c0:	4b0c      	ldr	r3, [pc, #48]	; (4f4 <init_systick+0x40>)
     4c2:	60bb      	str	r3, [r7, #8]
     4c4:	68bb      	ldr	r3, [r7, #8]
     4c6:	22f0      	movs	r2, #240	; 0xf0
     4c8:	701a      	strb	r2, [r3, #0]
     4ca:	687b      	ldr	r3, [r7, #4]
     4cc:	f642 62e0 	movw	r2, #12000	; 0x2ee0
     4d0:	fb02 f303 	mul.w	r3, r2, r3
     4d4:	1e5a      	subs	r2, r3, #1
     4d6:	68fb      	ldr	r3, [r7, #12]
     4d8:	605a      	str	r2, [r3, #4]
     4da:	68fb      	ldr	r3, [r7, #12]
     4dc:	2200      	movs	r2, #0
     4de:	609a      	str	r2, [r3, #8]
     4e0:	68fb      	ldr	r3, [r7, #12]
     4e2:	2207      	movs	r2, #7
     4e4:	601a      	str	r2, [r3, #0]
     4e6:	3714      	adds	r7, #20
     4e8:	46bd      	mov	sp, r7
     4ea:	f85d 7b04 	ldr.w	r7, [sp], #4
     4ee:	4770      	bx	lr
     4f0:	e000e010 	and	lr, r0, r0, lsl r0
     4f4:	e000ed23 	and	lr, r0, r3, lsr #26

000004f8 <systick_handler>:
     4f8:	b580      	push	{r7, lr}
     4fa:	af00      	add	r7, sp, #0
     4fc:	f000 fe4a 	bl	1194 <task_system_tick_handler>
     500:	bd80      	pop	{r7, pc}
     502:	bf00      	nop

00000504 <trigger_pend_sv>:
     504:	b480      	push	{r7}
     506:	af00      	add	r7, sp, #0
     508:	4b05      	ldr	r3, [pc, #20]	; (520 <trigger_pend_sv+0x1c>)
     50a:	22ff      	movs	r2, #255	; 0xff
     50c:	701a      	strb	r2, [r3, #0]
     50e:	4b05      	ldr	r3, [pc, #20]	; (524 <trigger_pend_sv+0x20>)
     510:	f04f 5280 	mov.w	r2, #268435456	; 0x10000000
     514:	601a      	str	r2, [r3, #0]
     516:	46bd      	mov	sp, r7
     518:	f85d 7b04 	ldr.w	r7, [sp], #4
     51c:	4770      	bx	lr
     51e:	bf00      	nop
     520:	e000ed22 	and	lr, r0, r2, lsr #26
     524:	e000ed04 	and	lr, r0, r4, lsl #26

00000528 <send_char>:
     528:	b480      	push	{r7}
     52a:	b083      	sub	sp, #12
     52c:	af00      	add	r7, sp, #0
     52e:	6078      	str	r0, [r7, #4]
     530:	4a05      	ldr	r2, [pc, #20]	; (548 <send_char+0x20>)
     532:	687b      	ldr	r3, [r7, #4]
     534:	781b      	ldrb	r3, [r3, #0]
     536:	6013      	str	r3, [r2, #0]
     538:	687b      	ldr	r3, [r7, #4]
     53a:	781b      	ldrb	r3, [r3, #0]
     53c:	4618      	mov	r0, r3
     53e:	370c      	adds	r7, #12
     540:	46bd      	mov	sp, r7
     542:	f85d 7b04 	ldr.w	r7, [sp], #4
     546:	4770      	bx	lr
     548:	4000c000 	andmi	ip, r0, r0

0000054c <is_dec_asc>:
     54c:	b480      	push	{r7}
     54e:	b085      	sub	sp, #20
     550:	af00      	add	r7, sp, #0
     552:	4603      	mov	r3, r0
     554:	71fb      	strb	r3, [r7, #7]
     556:	2300      	movs	r3, #0
     558:	60fb      	str	r3, [r7, #12]
     55a:	e00b      	b.n	574 <is_dec_asc+0x28>
     55c:	4a0a      	ldr	r2, [pc, #40]	; (588 <is_dec_asc+0x3c>)
     55e:	68fb      	ldr	r3, [r7, #12]
     560:	4413      	add	r3, r2
     562:	781b      	ldrb	r3, [r3, #0]
     564:	79fa      	ldrb	r2, [r7, #7]
     566:	429a      	cmp	r2, r3
     568:	d101      	bne.n	56e <is_dec_asc+0x22>
     56a:	2301      	movs	r3, #1
     56c:	e006      	b.n	57c <is_dec_asc+0x30>
     56e:	68fb      	ldr	r3, [r7, #12]
     570:	3301      	adds	r3, #1
     572:	60fb      	str	r3, [r7, #12]
     574:	68fb      	ldr	r3, [r7, #12]
     576:	2b09      	cmp	r3, #9
     578:	d9f0      	bls.n	55c <is_dec_asc+0x10>
     57a:	2300      	movs	r3, #0
     57c:	4618      	mov	r0, r3
     57e:	3714      	adds	r7, #20
     580:	46bd      	mov	sp, r7
     582:	f85d 7b04 	ldr.w	r7, [sp], #4
     586:	4770      	bx	lr
     588:	0000252c 	andeq	r2, r0, ip, lsr #10

0000058c <is_asc>:
     58c:	b480      	push	{r7}
     58e:	b083      	sub	sp, #12
     590:	af00      	add	r7, sp, #0
     592:	4603      	mov	r3, r0
     594:	71fb      	strb	r3, [r7, #7]
     596:	79fb      	ldrb	r3, [r7, #7]
     598:	2b40      	cmp	r3, #64	; 0x40
     59a:	d902      	bls.n	5a2 <is_asc+0x16>
     59c:	79fb      	ldrb	r3, [r7, #7]
     59e:	2b5a      	cmp	r3, #90	; 0x5a
     5a0:	d905      	bls.n	5ae <is_asc+0x22>
     5a2:	79fb      	ldrb	r3, [r7, #7]
     5a4:	2b60      	cmp	r3, #96	; 0x60
     5a6:	d904      	bls.n	5b2 <is_asc+0x26>
     5a8:	79fb      	ldrb	r3, [r7, #7]
     5aa:	2b7a      	cmp	r3, #122	; 0x7a
     5ac:	d801      	bhi.n	5b2 <is_asc+0x26>
     5ae:	2301      	movs	r3, #1
     5b0:	e000      	b.n	5b4 <is_asc+0x28>
     5b2:	2300      	movs	r3, #0
     5b4:	4618      	mov	r0, r3
     5b6:	370c      	adds	r7, #12
     5b8:	46bd      	mov	sp, r7
     5ba:	f85d 7b04 	ldr.w	r7, [sp], #4
     5be:	4770      	bx	lr

000005c0 <is_hex_asc>:
     5c0:	b480      	push	{r7}
     5c2:	b083      	sub	sp, #12
     5c4:	af00      	add	r7, sp, #0
     5c6:	4603      	mov	r3, r0
     5c8:	71fb      	strb	r3, [r7, #7]
     5ca:	79fb      	ldrb	r3, [r7, #7]
     5cc:	2b2f      	cmp	r3, #47	; 0x2f
     5ce:	d902      	bls.n	5d6 <is_hex_asc+0x16>
     5d0:	79fb      	ldrb	r3, [r7, #7]
     5d2:	2b39      	cmp	r3, #57	; 0x39
     5d4:	d90b      	bls.n	5ee <is_hex_asc+0x2e>
     5d6:	79fb      	ldrb	r3, [r7, #7]
     5d8:	2b40      	cmp	r3, #64	; 0x40
     5da:	d902      	bls.n	5e2 <is_hex_asc+0x22>
     5dc:	79fb      	ldrb	r3, [r7, #7]
     5de:	2b46      	cmp	r3, #70	; 0x46
     5e0:	d905      	bls.n	5ee <is_hex_asc+0x2e>
     5e2:	79fb      	ldrb	r3, [r7, #7]
     5e4:	2b60      	cmp	r3, #96	; 0x60
     5e6:	d904      	bls.n	5f2 <is_hex_asc+0x32>
     5e8:	79fb      	ldrb	r3, [r7, #7]
     5ea:	2b66      	cmp	r3, #102	; 0x66
     5ec:	d801      	bhi.n	5f2 <is_hex_asc+0x32>
     5ee:	2301      	movs	r3, #1
     5f0:	e000      	b.n	5f4 <is_hex_asc+0x34>
     5f2:	2300      	movs	r3, #0
     5f4:	4618      	mov	r0, r3
     5f6:	370c      	adds	r7, #12
     5f8:	46bd      	mov	sp, r7
     5fa:	f85d 7b04 	ldr.w	r7, [sp], #4
     5fe:	4770      	bx	lr

00000600 <printf_char>:
     600:	b580      	push	{r7, lr}
     602:	b084      	sub	sp, #16
     604:	af00      	add	r7, sp, #0
     606:	4603      	mov	r3, r0
     608:	71fb      	strb	r3, [r7, #7]
     60a:	230d      	movs	r3, #13
     60c:	73fb      	strb	r3, [r7, #15]
     60e:	2300      	movs	r3, #0
     610:	73bb      	strb	r3, [r7, #14]
     612:	79fb      	ldrb	r3, [r7, #7]
     614:	73bb      	strb	r3, [r7, #14]
     616:	f107 030e 	add.w	r3, r7, #14
     61a:	4618      	mov	r0, r3
     61c:	f7ff ff84 	bl	528 <send_char>
     620:	7bbb      	ldrb	r3, [r7, #14]
     622:	2b0a      	cmp	r3, #10
     624:	d104      	bne.n	630 <printf_char+0x30>
     626:	f107 030f 	add.w	r3, r7, #15
     62a:	4618      	mov	r0, r3
     62c:	f7ff ff7c 	bl	528 <send_char>
     630:	2300      	movs	r3, #0
     632:	4618      	mov	r0, r3
     634:	3710      	adds	r7, #16
     636:	46bd      	mov	sp, r7
     638:	bd80      	pop	{r7, pc}
     63a:	bf00      	nop

0000063c <printf_str>:
     63c:	b580      	push	{r7, lr}
     63e:	b082      	sub	sp, #8
     640:	af00      	add	r7, sp, #0
     642:	6078      	str	r0, [r7, #4]
     644:	e007      	b.n	656 <printf_str+0x1a>
     646:	687b      	ldr	r3, [r7, #4]
     648:	781b      	ldrb	r3, [r3, #0]
     64a:	4618      	mov	r0, r3
     64c:	f7ff ffd8 	bl	600 <printf_char>
     650:	687b      	ldr	r3, [r7, #4]
     652:	3301      	adds	r3, #1
     654:	607b      	str	r3, [r7, #4]
     656:	687b      	ldr	r3, [r7, #4]
     658:	2b00      	cmp	r3, #0
     65a:	d003      	beq.n	664 <printf_str+0x28>
     65c:	687b      	ldr	r3, [r7, #4]
     65e:	781b      	ldrb	r3, [r3, #0]
     660:	2b00      	cmp	r3, #0
     662:	d1f0      	bne.n	646 <printf_str+0xa>
     664:	2300      	movs	r3, #0
     666:	4618      	mov	r0, r3
     668:	3708      	adds	r7, #8
     66a:	46bd      	mov	sp, r7
     66c:	bd80      	pop	{r7, pc}
     66e:	bf00      	nop

00000670 <printf_hex>:
     670:	b580      	push	{r7, lr}
     672:	b084      	sub	sp, #16
     674:	af00      	add	r7, sp, #0
     676:	6078      	str	r0, [r7, #4]
     678:	6039      	str	r1, [r7, #0]
     67a:	2300      	movs	r3, #0
     67c:	60fb      	str	r3, [r7, #12]
     67e:	2300      	movs	r3, #0
     680:	72fb      	strb	r3, [r7, #11]
     682:	2300      	movs	r3, #0
     684:	72bb      	strb	r3, [r7, #10]
     686:	683b      	ldr	r3, [r7, #0]
     688:	2b08      	cmp	r3, #8
     68a:	d802      	bhi.n	692 <printf_hex+0x22>
     68c:	683b      	ldr	r3, [r7, #0]
     68e:	2b00      	cmp	r3, #0
     690:	d101      	bne.n	696 <printf_hex+0x26>
     692:	2308      	movs	r3, #8
     694:	603b      	str	r3, [r7, #0]
     696:	683b      	ldr	r3, [r7, #0]
     698:	3b01      	subs	r3, #1
     69a:	60fb      	str	r3, [r7, #12]
     69c:	e017      	b.n	6ce <printf_hex+0x5e>
     69e:	68fb      	ldr	r3, [r7, #12]
     6a0:	009b      	lsls	r3, r3, #2
     6a2:	220f      	movs	r2, #15
     6a4:	fa02 f303 	lsl.w	r3, r2, r3
     6a8:	461a      	mov	r2, r3
     6aa:	687b      	ldr	r3, [r7, #4]
     6ac:	401a      	ands	r2, r3
     6ae:	68fb      	ldr	r3, [r7, #12]
     6b0:	009b      	lsls	r3, r3, #2
     6b2:	fa22 f303 	lsr.w	r3, r2, r3
     6b6:	72fb      	strb	r3, [r7, #11]
     6b8:	7afb      	ldrb	r3, [r7, #11]
     6ba:	4a09      	ldr	r2, [pc, #36]	; (6e0 <printf_hex+0x70>)
     6bc:	5cd3      	ldrb	r3, [r2, r3]
     6be:	72bb      	strb	r3, [r7, #10]
     6c0:	7abb      	ldrb	r3, [r7, #10]
     6c2:	4618      	mov	r0, r3
     6c4:	f7ff ff9c 	bl	600 <printf_char>
     6c8:	68fb      	ldr	r3, [r7, #12]
     6ca:	3b01      	subs	r3, #1
     6cc:	60fb      	str	r3, [r7, #12]
     6ce:	68fb      	ldr	r3, [r7, #12]
     6d0:	2b00      	cmp	r3, #0
     6d2:	dae4      	bge.n	69e <printf_hex+0x2e>
     6d4:	2300      	movs	r3, #0
     6d6:	4618      	mov	r0, r3
     6d8:	3710      	adds	r7, #16
     6da:	46bd      	mov	sp, r7
     6dc:	bd80      	pop	{r7, pc}
     6de:	bf00      	nop
     6e0:	0000252c 	andeq	r2, r0, ip, lsr #10

000006e4 <printf_hex_upper>:
     6e4:	b580      	push	{r7, lr}
     6e6:	b084      	sub	sp, #16
     6e8:	af00      	add	r7, sp, #0
     6ea:	6078      	str	r0, [r7, #4]
     6ec:	6039      	str	r1, [r7, #0]
     6ee:	2300      	movs	r3, #0
     6f0:	60fb      	str	r3, [r7, #12]
     6f2:	2300      	movs	r3, #0
     6f4:	72fb      	strb	r3, [r7, #11]
     6f6:	2300      	movs	r3, #0
     6f8:	72bb      	strb	r3, [r7, #10]
     6fa:	683b      	ldr	r3, [r7, #0]
     6fc:	2b08      	cmp	r3, #8
     6fe:	d802      	bhi.n	706 <printf_hex_upper+0x22>
     700:	683b      	ldr	r3, [r7, #0]
     702:	2b00      	cmp	r3, #0
     704:	d101      	bne.n	70a <printf_hex_upper+0x26>
     706:	2308      	movs	r3, #8
     708:	603b      	str	r3, [r7, #0]
     70a:	683b      	ldr	r3, [r7, #0]
     70c:	3b01      	subs	r3, #1
     70e:	60fb      	str	r3, [r7, #12]
     710:	e017      	b.n	742 <printf_hex_upper+0x5e>
     712:	68fb      	ldr	r3, [r7, #12]
     714:	009b      	lsls	r3, r3, #2
     716:	220f      	movs	r2, #15
     718:	fa02 f303 	lsl.w	r3, r2, r3
     71c:	461a      	mov	r2, r3
     71e:	687b      	ldr	r3, [r7, #4]
     720:	401a      	ands	r2, r3
     722:	68fb      	ldr	r3, [r7, #12]
     724:	009b      	lsls	r3, r3, #2
     726:	fa22 f303 	lsr.w	r3, r2, r3
     72a:	72fb      	strb	r3, [r7, #11]
     72c:	7afb      	ldrb	r3, [r7, #11]
     72e:	4a09      	ldr	r2, [pc, #36]	; (754 <printf_hex_upper+0x70>)
     730:	5cd3      	ldrb	r3, [r2, r3]
     732:	72bb      	strb	r3, [r7, #10]
     734:	7abb      	ldrb	r3, [r7, #10]
     736:	4618      	mov	r0, r3
     738:	f7ff ff62 	bl	600 <printf_char>
     73c:	68fb      	ldr	r3, [r7, #12]
     73e:	3b01      	subs	r3, #1
     740:	60fb      	str	r3, [r7, #12]
     742:	68fb      	ldr	r3, [r7, #12]
     744:	2b00      	cmp	r3, #0
     746:	dae4      	bge.n	712 <printf_hex_upper+0x2e>
     748:	2300      	movs	r3, #0
     74a:	4618      	mov	r0, r3
     74c:	3710      	adds	r7, #16
     74e:	46bd      	mov	sp, r7
     750:	bd80      	pop	{r7, pc}
     752:	bf00      	nop
     754:	0000253c 	andeq	r2, r0, ip, lsr r5

00000758 <printf_dec>:
     758:	b580      	push	{r7, lr}
     75a:	b086      	sub	sp, #24
     75c:	af00      	add	r7, sp, #0
     75e:	6078      	str	r0, [r7, #4]
     760:	2300      	movs	r3, #0
     762:	617b      	str	r3, [r7, #20]
     764:	2301      	movs	r3, #1
     766:	613b      	str	r3, [r7, #16]
     768:	2301      	movs	r3, #1
     76a:	60fb      	str	r3, [r7, #12]
     76c:	2300      	movs	r3, #0
     76e:	72fb      	strb	r3, [r7, #11]
     770:	693b      	ldr	r3, [r7, #16]
     772:	00da      	lsls	r2, r3, #3
     774:	693b      	ldr	r3, [r7, #16]
     776:	005b      	lsls	r3, r3, #1
     778:	4413      	add	r3, r2
     77a:	613b      	str	r3, [r7, #16]
     77c:	697b      	ldr	r3, [r7, #20]
     77e:	3301      	adds	r3, #1
     780:	617b      	str	r3, [r7, #20]
     782:	693a      	ldr	r2, [r7, #16]
     784:	687b      	ldr	r3, [r7, #4]
     786:	429a      	cmp	r2, r3
     788:	d904      	bls.n	794 <printf_dec+0x3c>
     78a:	bf00      	nop
     78c:	697b      	ldr	r3, [r7, #20]
     78e:	2b08      	cmp	r3, #8
     790:	d904      	bls.n	79c <printf_dec+0x44>
     792:	e000      	b.n	796 <printf_dec+0x3e>
     794:	e7ec      	b.n	770 <printf_dec+0x18>
     796:	f04f 33ff 	mov.w	r3, #4294967295	; 0xffffffff
     79a:	e10e      	b.n	9ba <printf_dec+0x262>
     79c:	e108      	b.n	9b0 <printf_dec+0x258>
     79e:	697b      	ldr	r3, [r7, #20]
     7a0:	3b01      	subs	r3, #1
     7a2:	4a88      	ldr	r2, [pc, #544]	; (9c4 <printf_dec+0x26c>)
     7a4:	f852 3023 	ldr.w	r3, [r2, r3, lsl #2]
     7a8:	00da      	lsls	r2, r3, #3
     7aa:	697b      	ldr	r3, [r7, #20]
     7ac:	3b01      	subs	r3, #1
     7ae:	4985      	ldr	r1, [pc, #532]	; (9c4 <printf_dec+0x26c>)
     7b0:	f851 3023 	ldr.w	r3, [r1, r3, lsl #2]
     7b4:	441a      	add	r2, r3
     7b6:	687b      	ldr	r3, [r7, #4]
     7b8:	429a      	cmp	r2, r3
     7ba:	d80f      	bhi.n	7dc <printf_dec+0x84>
     7bc:	2309      	movs	r3, #9
     7be:	613b      	str	r3, [r7, #16]
     7c0:	697b      	ldr	r3, [r7, #20]
     7c2:	3b01      	subs	r3, #1
     7c4:	4a7f      	ldr	r2, [pc, #508]	; (9c4 <printf_dec+0x26c>)
     7c6:	f852 3023 	ldr.w	r3, [r2, r3, lsl #2]
     7ca:	00da      	lsls	r2, r3, #3
     7cc:	697b      	ldr	r3, [r7, #20]
     7ce:	3b01      	subs	r3, #1
     7d0:	497c      	ldr	r1, [pc, #496]	; (9c4 <printf_dec+0x26c>)
     7d2:	f851 3023 	ldr.w	r3, [r1, r3, lsl #2]
     7d6:	4413      	add	r3, r2
     7d8:	60fb      	str	r3, [r7, #12]
     7da:	e0d9      	b.n	990 <printf_dec+0x238>
     7dc:	697b      	ldr	r3, [r7, #20]
     7de:	3b01      	subs	r3, #1
     7e0:	4a78      	ldr	r2, [pc, #480]	; (9c4 <printf_dec+0x26c>)
     7e2:	f852 3023 	ldr.w	r3, [r2, r3, lsl #2]
     7e6:	00da      	lsls	r2, r3, #3
     7e8:	687b      	ldr	r3, [r7, #4]
     7ea:	429a      	cmp	r2, r3
     7ec:	d809      	bhi.n	802 <printf_dec+0xaa>
     7ee:	2308      	movs	r3, #8
     7f0:	613b      	str	r3, [r7, #16]
     7f2:	697b      	ldr	r3, [r7, #20]
     7f4:	3b01      	subs	r3, #1
     7f6:	4a73      	ldr	r2, [pc, #460]	; (9c4 <printf_dec+0x26c>)
     7f8:	f852 3023 	ldr.w	r3, [r2, r3, lsl #2]
     7fc:	00db      	lsls	r3, r3, #3
     7fe:	60fb      	str	r3, [r7, #12]
     800:	e0c6      	b.n	990 <printf_dec+0x238>
     802:	697b      	ldr	r3, [r7, #20]
     804:	3b01      	subs	r3, #1
     806:	4a6f      	ldr	r2, [pc, #444]	; (9c4 <printf_dec+0x26c>)
     808:	f852 3023 	ldr.w	r3, [r2, r3, lsl #2]
     80c:	009a      	lsls	r2, r3, #2
     80e:	697b      	ldr	r3, [r7, #20]
     810:	3b01      	subs	r3, #1
     812:	496c      	ldr	r1, [pc, #432]	; (9c4 <printf_dec+0x26c>)
     814:	f851 3023 	ldr.w	r3, [r1, r3, lsl #2]
     818:	005b      	lsls	r3, r3, #1
     81a:	441a      	add	r2, r3
     81c:	697b      	ldr	r3, [r7, #20]
     81e:	3b01      	subs	r3, #1
     820:	4968      	ldr	r1, [pc, #416]	; (9c4 <printf_dec+0x26c>)
     822:	f851 3023 	ldr.w	r3, [r1, r3, lsl #2]
     826:	441a      	add	r2, r3
     828:	687b      	ldr	r3, [r7, #4]
     82a:	429a      	cmp	r2, r3
     82c:	d816      	bhi.n	85c <printf_dec+0x104>
     82e:	2307      	movs	r3, #7
     830:	613b      	str	r3, [r7, #16]
     832:	697b      	ldr	r3, [r7, #20]
     834:	3b01      	subs	r3, #1
     836:	4a63      	ldr	r2, [pc, #396]	; (9c4 <printf_dec+0x26c>)
     838:	f852 3023 	ldr.w	r3, [r2, r3, lsl #2]
     83c:	009a      	lsls	r2, r3, #2
     83e:	697b      	ldr	r3, [r7, #20]
     840:	3b01      	subs	r3, #1
     842:	4960      	ldr	r1, [pc, #384]	; (9c4 <printf_dec+0x26c>)
     844:	f851 3023 	ldr.w	r3, [r1, r3, lsl #2]
     848:	005b      	lsls	r3, r3, #1
     84a:	441a      	add	r2, r3
     84c:	697b      	ldr	r3, [r7, #20]
     84e:	3b01      	subs	r3, #1
     850:	495c      	ldr	r1, [pc, #368]	; (9c4 <printf_dec+0x26c>)
     852:	f851 3023 	ldr.w	r3, [r1, r3, lsl #2]
     856:	4413      	add	r3, r2
     858:	60fb      	str	r3, [r7, #12]
     85a:	e099      	b.n	990 <printf_dec+0x238>
     85c:	697b      	ldr	r3, [r7, #20]
     85e:	3b01      	subs	r3, #1
     860:	4a58      	ldr	r2, [pc, #352]	; (9c4 <printf_dec+0x26c>)
     862:	f852 3023 	ldr.w	r3, [r2, r3, lsl #2]
     866:	009a      	lsls	r2, r3, #2
     868:	697b      	ldr	r3, [r7, #20]
     86a:	3b01      	subs	r3, #1
     86c:	4955      	ldr	r1, [pc, #340]	; (9c4 <printf_dec+0x26c>)
     86e:	f851 3023 	ldr.w	r3, [r1, r3, lsl #2]
     872:	005b      	lsls	r3, r3, #1
     874:	441a      	add	r2, r3
     876:	687b      	ldr	r3, [r7, #4]
     878:	429a      	cmp	r2, r3
     87a:	d810      	bhi.n	89e <printf_dec+0x146>
     87c:	2306      	movs	r3, #6
     87e:	613b      	str	r3, [r7, #16]
     880:	697b      	ldr	r3, [r7, #20]
     882:	3b01      	subs	r3, #1
     884:	4a4f      	ldr	r2, [pc, #316]	; (9c4 <printf_dec+0x26c>)
     886:	f852 3023 	ldr.w	r3, [r2, r3, lsl #2]
     88a:	009a      	lsls	r2, r3, #2
     88c:	697b      	ldr	r3, [r7, #20]
     88e:	3b01      	subs	r3, #1
     890:	494c      	ldr	r1, [pc, #304]	; (9c4 <printf_dec+0x26c>)
     892:	f851 3023 	ldr.w	r3, [r1, r3, lsl #2]
     896:	005b      	lsls	r3, r3, #1
     898:	4413      	add	r3, r2
     89a:	60fb      	str	r3, [r7, #12]
     89c:	e078      	b.n	990 <printf_dec+0x238>
     89e:	697b      	ldr	r3, [r7, #20]
     8a0:	3b01      	subs	r3, #1
     8a2:	4a48      	ldr	r2, [pc, #288]	; (9c4 <printf_dec+0x26c>)
     8a4:	f852 3023 	ldr.w	r3, [r2, r3, lsl #2]
     8a8:	009a      	lsls	r2, r3, #2
     8aa:	697b      	ldr	r3, [r7, #20]
     8ac:	3b01      	subs	r3, #1
     8ae:	4945      	ldr	r1, [pc, #276]	; (9c4 <printf_dec+0x26c>)
     8b0:	f851 3023 	ldr.w	r3, [r1, r3, lsl #2]
     8b4:	441a      	add	r2, r3
     8b6:	687b      	ldr	r3, [r7, #4]
     8b8:	429a      	cmp	r2, r3
     8ba:	d80f      	bhi.n	8dc <printf_dec+0x184>
     8bc:	2305      	movs	r3, #5
     8be:	613b      	str	r3, [r7, #16]
     8c0:	697b      	ldr	r3, [r7, #20]
     8c2:	3b01      	subs	r3, #1
     8c4:	4a3f      	ldr	r2, [pc, #252]	; (9c4 <printf_dec+0x26c>)
     8c6:	f852 3023 	ldr.w	r3, [r2, r3, lsl #2]
     8ca:	009a      	lsls	r2, r3, #2
     8cc:	697b      	ldr	r3, [r7, #20]
     8ce:	3b01      	subs	r3, #1
     8d0:	493c      	ldr	r1, [pc, #240]	; (9c4 <printf_dec+0x26c>)
     8d2:	f851 3023 	ldr.w	r3, [r1, r3, lsl #2]
     8d6:	4413      	add	r3, r2
     8d8:	60fb      	str	r3, [r7, #12]
     8da:	e059      	b.n	990 <printf_dec+0x238>
     8dc:	697b      	ldr	r3, [r7, #20]
     8de:	3b01      	subs	r3, #1
     8e0:	4a38      	ldr	r2, [pc, #224]	; (9c4 <printf_dec+0x26c>)
     8e2:	f852 3023 	ldr.w	r3, [r2, r3, lsl #2]
     8e6:	009a      	lsls	r2, r3, #2
     8e8:	687b      	ldr	r3, [r7, #4]
     8ea:	429a      	cmp	r2, r3
     8ec:	d809      	bhi.n	902 <printf_dec+0x1aa>
     8ee:	2304      	movs	r3, #4
     8f0:	613b      	str	r3, [r7, #16]
     8f2:	697b      	ldr	r3, [r7, #20]
     8f4:	3b01      	subs	r3, #1
     8f6:	4a33      	ldr	r2, [pc, #204]	; (9c4 <printf_dec+0x26c>)
     8f8:	f852 3023 	ldr.w	r3, [r2, r3, lsl #2]
     8fc:	009b      	lsls	r3, r3, #2
     8fe:	60fb      	str	r3, [r7, #12]
     900:	e046      	b.n	990 <printf_dec+0x238>
     902:	697b      	ldr	r3, [r7, #20]
     904:	3b01      	subs	r3, #1
     906:	4a2f      	ldr	r2, [pc, #188]	; (9c4 <printf_dec+0x26c>)
     908:	f852 3023 	ldr.w	r3, [r2, r3, lsl #2]
     90c:	005a      	lsls	r2, r3, #1
     90e:	697b      	ldr	r3, [r7, #20]
     910:	3b01      	subs	r3, #1
     912:	492c      	ldr	r1, [pc, #176]	; (9c4 <printf_dec+0x26c>)
     914:	f851 3023 	ldr.w	r3, [r1, r3, lsl #2]
     918:	441a      	add	r2, r3
     91a:	687b      	ldr	r3, [r7, #4]
     91c:	429a      	cmp	r2, r3
     91e:	d80f      	bhi.n	940 <printf_dec+0x1e8>
     920:	2303      	movs	r3, #3
     922:	613b      	str	r3, [r7, #16]
     924:	697b      	ldr	r3, [r7, #20]
     926:	3b01      	subs	r3, #1
     928:	4a26      	ldr	r2, [pc, #152]	; (9c4 <printf_dec+0x26c>)
     92a:	f852 3023 	ldr.w	r3, [r2, r3, lsl #2]
     92e:	005a      	lsls	r2, r3, #1
     930:	697b      	ldr	r3, [r7, #20]
     932:	3b01      	subs	r3, #1
     934:	4923      	ldr	r1, [pc, #140]	; (9c4 <printf_dec+0x26c>)
     936:	f851 3023 	ldr.w	r3, [r1, r3, lsl #2]
     93a:	4413      	add	r3, r2
     93c:	60fb      	str	r3, [r7, #12]
     93e:	e027      	b.n	990 <printf_dec+0x238>
     940:	697b      	ldr	r3, [r7, #20]
     942:	3b01      	subs	r3, #1
     944:	4a1f      	ldr	r2, [pc, #124]	; (9c4 <printf_dec+0x26c>)
     946:	f852 3023 	ldr.w	r3, [r2, r3, lsl #2]
     94a:	005a      	lsls	r2, r3, #1
     94c:	687b      	ldr	r3, [r7, #4]
     94e:	429a      	cmp	r2, r3
     950:	d809      	bhi.n	966 <printf_dec+0x20e>
     952:	2302      	movs	r3, #2
     954:	613b      	str	r3, [r7, #16]
     956:	697b      	ldr	r3, [r7, #20]
     958:	3b01      	subs	r3, #1
     95a:	4a1a      	ldr	r2, [pc, #104]	; (9c4 <printf_dec+0x26c>)
     95c:	f852 3023 	ldr.w	r3, [r2, r3, lsl #2]
     960:	005b      	lsls	r3, r3, #1
     962:	60fb      	str	r3, [r7, #12]
     964:	e014      	b.n	990 <printf_dec+0x238>
     966:	697b      	ldr	r3, [r7, #20]
     968:	3b01      	subs	r3, #1
     96a:	4a16      	ldr	r2, [pc, #88]	; (9c4 <printf_dec+0x26c>)
     96c:	f852 2023 	ldr.w	r2, [r2, r3, lsl #2]
     970:	687b      	ldr	r3, [r7, #4]
     972:	429a      	cmp	r2, r3
     974:	d808      	bhi.n	988 <printf_dec+0x230>
     976:	2301      	movs	r3, #1
     978:	613b      	str	r3, [r7, #16]
     97a:	697b      	ldr	r3, [r7, #20]
     97c:	3b01      	subs	r3, #1
     97e:	4a11      	ldr	r2, [pc, #68]	; (9c4 <printf_dec+0x26c>)
     980:	f852 3023 	ldr.w	r3, [r2, r3, lsl #2]
     984:	60fb      	str	r3, [r7, #12]
     986:	e003      	b.n	990 <printf_dec+0x238>
     988:	2300      	movs	r3, #0
     98a:	613b      	str	r3, [r7, #16]
     98c:	2300      	movs	r3, #0
     98e:	60fb      	str	r3, [r7, #12]
     990:	4a0d      	ldr	r2, [pc, #52]	; (9c8 <printf_dec+0x270>)
     992:	693b      	ldr	r3, [r7, #16]
     994:	4413      	add	r3, r2
     996:	781b      	ldrb	r3, [r3, #0]
     998:	72fb      	strb	r3, [r7, #11]
     99a:	7afb      	ldrb	r3, [r7, #11]
     99c:	4618      	mov	r0, r3
     99e:	f7ff fe2f 	bl	600 <printf_char>
     9a2:	697b      	ldr	r3, [r7, #20]
     9a4:	3b01      	subs	r3, #1
     9a6:	617b      	str	r3, [r7, #20]
     9a8:	687a      	ldr	r2, [r7, #4]
     9aa:	68fb      	ldr	r3, [r7, #12]
     9ac:	1ad3      	subs	r3, r2, r3
     9ae:	607b      	str	r3, [r7, #4]
     9b0:	697b      	ldr	r3, [r7, #20]
     9b2:	2b00      	cmp	r3, #0
     9b4:	f47f aef3 	bne.w	79e <printf_dec+0x46>
     9b8:	2300      	movs	r3, #0
     9ba:	4618      	mov	r0, r3
     9bc:	3718      	adds	r7, #24
     9be:	46bd      	mov	sp, r7
     9c0:	bd80      	pop	{r7, pc}
     9c2:	bf00      	nop
     9c4:	0000254c 	andeq	r2, r0, ip, asr #10
     9c8:	0000252c 	andeq	r2, r0, ip, lsr #10

000009cc <no_printk>:
     9cc:	b40f      	push	{r0, r1, r2, r3}
     9ce:	b480      	push	{r7}
     9d0:	af00      	add	r7, sp, #0
     9d2:	46bd      	mov	sp, r7
     9d4:	f85d 7b04 	ldr.w	r7, [sp], #4
     9d8:	b004      	add	sp, #16
     9da:	4770      	bx	lr

000009dc <printk>:
     9dc:	b40f      	push	{r0, r1, r2, r3}
     9de:	b580      	push	{r7, lr}
     9e0:	b084      	sub	sp, #16
     9e2:	af00      	add	r7, sp, #0
     9e4:	2300      	movs	r3, #0
     9e6:	60fb      	str	r3, [r7, #12]
     9e8:	f107 031c 	add.w	r3, r7, #28
     9ec:	607b      	str	r3, [r7, #4]
     9ee:	69bb      	ldr	r3, [r7, #24]
     9f0:	781b      	ldrb	r3, [r3, #0]
     9f2:	72fb      	strb	r3, [r7, #11]
     9f4:	7afb      	ldrb	r3, [r7, #11]
     9f6:	2b25      	cmp	r3, #37	; 0x25
     9f8:	d004      	beq.n	a04 <printk+0x28>
     9fa:	7afb      	ldrb	r3, [r7, #11]
     9fc:	4618      	mov	r0, r3
     9fe:	f7ff fdff 	bl	600 <printf_char>
     a02:	e09f      	b.n	b44 <printk+0x168>
     a04:	69bb      	ldr	r3, [r7, #24]
     a06:	3301      	adds	r3, #1
     a08:	61bb      	str	r3, [r7, #24]
     a0a:	69bb      	ldr	r3, [r7, #24]
     a0c:	781b      	ldrb	r3, [r3, #0]
     a0e:	72fb      	strb	r3, [r7, #11]
     a10:	7afb      	ldrb	r3, [r7, #11]
     a12:	2b64      	cmp	r3, #100	; 0x64
     a14:	d00b      	beq.n	a2e <printk+0x52>
     a16:	7afb      	ldrb	r3, [r7, #11]
     a18:	2b78      	cmp	r3, #120	; 0x78
     a1a:	d008      	beq.n	a2e <printk+0x52>
     a1c:	7afb      	ldrb	r3, [r7, #11]
     a1e:	2b58      	cmp	r3, #88	; 0x58
     a20:	d005      	beq.n	a2e <printk+0x52>
     a22:	7afb      	ldrb	r3, [r7, #11]
     a24:	2b73      	cmp	r3, #115	; 0x73
     a26:	d002      	beq.n	a2e <printk+0x52>
     a28:	7afb      	ldrb	r3, [r7, #11]
     a2a:	2b63      	cmp	r3, #99	; 0x63
     a2c:	d114      	bne.n	a58 <printk+0x7c>
     a2e:	7afb      	ldrb	r3, [r7, #11]
     a30:	2b78      	cmp	r3, #120	; 0x78
     a32:	d002      	beq.n	a3a <printk+0x5e>
     a34:	7afb      	ldrb	r3, [r7, #11]
     a36:	2b58      	cmp	r3, #88	; 0x58
     a38:	d10d      	bne.n	a56 <printk+0x7a>
     a3a:	69bb      	ldr	r3, [r7, #24]
     a3c:	3b01      	subs	r3, #1
     a3e:	781b      	ldrb	r3, [r3, #0]
     a40:	2b25      	cmp	r3, #37	; 0x25
     a42:	d102      	bne.n	a4a <printk+0x6e>
     a44:	2308      	movs	r3, #8
     a46:	60fb      	str	r3, [r7, #12]
     a48:	e005      	b.n	a56 <printk+0x7a>
     a4a:	69bb      	ldr	r3, [r7, #24]
     a4c:	3b01      	subs	r3, #1
     a4e:	781b      	ldrb	r3, [r3, #0]
     a50:	3b30      	subs	r3, #48	; 0x30
     a52:	60fb      	str	r3, [r7, #12]
     a54:	e001      	b.n	a5a <printk+0x7e>
     a56:	e000      	b.n	a5a <printk+0x7e>
     a58:	e7d4      	b.n	a04 <printk+0x28>
     a5a:	7afb      	ldrb	r3, [r7, #11]
     a5c:	3b58      	subs	r3, #88	; 0x58
     a5e:	2b20      	cmp	r3, #32
     a60:	d86f      	bhi.n	b42 <printk+0x166>
     a62:	a201      	add	r2, pc, #4	; (adr r2, a68 <printk+0x8c>)
     a64:	f852 f023 	ldr.w	pc, [r2, r3, lsl #2]
     a68:	00000b0f 	andeq	r0, r0, pc, lsl #22
     a6c:	00000b43 	andeq	r0, r0, r3, asr #22
     a70:	00000b43 	andeq	r0, r0, r3, asr #22
     a74:	00000b43 	andeq	r0, r0, r3, asr #22
     a78:	00000b43 	andeq	r0, r0, r3, asr #22
     a7c:	00000b43 	andeq	r0, r0, r3, asr #22
     a80:	00000b43 	andeq	r0, r0, r3, asr #22
     a84:	00000b43 	andeq	r0, r0, r3, asr #22
     a88:	00000b43 	andeq	r0, r0, r3, asr #22
     a8c:	00000b43 	andeq	r0, r0, r3, asr #22
     a90:	00000b43 	andeq	r0, r0, r3, asr #22
     a94:	00000b31 	andeq	r0, r0, r1, lsr fp
     a98:	00000aed 	andeq	r0, r0, sp, ror #21
     a9c:	00000b43 	andeq	r0, r0, r3, asr #22
     aa0:	00000b43 	andeq	r0, r0, r3, asr #22
     aa4:	00000b43 	andeq	r0, r0, r3, asr #22
     aa8:	00000b43 	andeq	r0, r0, r3, asr #22
     aac:	00000b43 	andeq	r0, r0, r3, asr #22
     ab0:	00000b43 	andeq	r0, r0, r3, asr #22
     ab4:	00000b43 	andeq	r0, r0, r3, asr #22
     ab8:	00000b43 	andeq	r0, r0, r3, asr #22
     abc:	00000b43 	andeq	r0, r0, r3, asr #22
     ac0:	00000b43 	andeq	r0, r0, r3, asr #22
     ac4:	00000b43 	andeq	r0, r0, r3, asr #22
     ac8:	00000b43 	andeq	r0, r0, r3, asr #22
     acc:	00000b43 	andeq	r0, r0, r3, asr #22
     ad0:	00000b43 	andeq	r0, r0, r3, asr #22
     ad4:	00000b21 	andeq	r0, r0, r1, lsr #22
     ad8:	00000b43 	andeq	r0, r0, r3, asr #22
     adc:	00000b43 	andeq	r0, r0, r3, asr #22
     ae0:	00000b43 	andeq	r0, r0, r3, asr #22
     ae4:	00000b43 	andeq	r0, r0, r3, asr #22
     ae8:	00000afd 	strdeq	r0, [r0], -sp
     aec:	687b      	ldr	r3, [r7, #4]
     aee:	1d1a      	adds	r2, r3, #4
     af0:	607a      	str	r2, [r7, #4]
     af2:	681b      	ldr	r3, [r3, #0]
     af4:	4618      	mov	r0, r3
     af6:	f7ff fe2f 	bl	758 <printf_dec>
     afa:	e023      	b.n	b44 <printk+0x168>
     afc:	687b      	ldr	r3, [r7, #4]
     afe:	1d1a      	adds	r2, r3, #4
     b00:	607a      	str	r2, [r7, #4]
     b02:	681b      	ldr	r3, [r3, #0]
     b04:	4618      	mov	r0, r3
     b06:	68f9      	ldr	r1, [r7, #12]
     b08:	f7ff fdb2 	bl	670 <printf_hex>
     b0c:	e01a      	b.n	b44 <printk+0x168>
     b0e:	687b      	ldr	r3, [r7, #4]
     b10:	1d1a      	adds	r2, r3, #4
     b12:	607a      	str	r2, [r7, #4]
     b14:	681b      	ldr	r3, [r3, #0]
     b16:	4618      	mov	r0, r3
     b18:	68f9      	ldr	r1, [r7, #12]
     b1a:	f7ff fde3 	bl	6e4 <printf_hex_upper>
     b1e:	e011      	b.n	b44 <printk+0x168>
     b20:	687b      	ldr	r3, [r7, #4]
     b22:	1d1a      	adds	r2, r3, #4
     b24:	607a      	str	r2, [r7, #4]
     b26:	681b      	ldr	r3, [r3, #0]
     b28:	4618      	mov	r0, r3
     b2a:	f7ff fd87 	bl	63c <printf_str>
     b2e:	e009      	b.n	b44 <printk+0x168>
     b30:	687b      	ldr	r3, [r7, #4]
     b32:	1d1a      	adds	r2, r3, #4
     b34:	607a      	str	r2, [r7, #4]
     b36:	681b      	ldr	r3, [r3, #0]
     b38:	b2db      	uxtb	r3, r3
     b3a:	4618      	mov	r0, r3
     b3c:	f7ff fd60 	bl	600 <printf_char>
     b40:	e000      	b.n	b44 <printk+0x168>
     b42:	bf00      	nop
     b44:	69bb      	ldr	r3, [r7, #24]
     b46:	3301      	adds	r3, #1
     b48:	61bb      	str	r3, [r7, #24]
     b4a:	69bb      	ldr	r3, [r7, #24]
     b4c:	781b      	ldrb	r3, [r3, #0]
     b4e:	2b00      	cmp	r3, #0
     b50:	f47f af4d 	bne.w	9ee <printk+0x12>
     b54:	3710      	adds	r7, #16
     b56:	46bd      	mov	sp, r7
     b58:	e8bd 4080 	ldmia.w	sp!, {r7, lr}
     b5c:	b004      	add	sp, #16
     b5e:	4770      	bx	lr

00000b60 <memset>:
     b60:	b480      	push	{r7}
     b62:	b087      	sub	sp, #28
     b64:	af00      	add	r7, sp, #0
     b66:	60f8      	str	r0, [r7, #12]
     b68:	460b      	mov	r3, r1
     b6a:	607a      	str	r2, [r7, #4]
     b6c:	72fb      	strb	r3, [r7, #11]
     b6e:	68fb      	ldr	r3, [r7, #12]
     b70:	617b      	str	r3, [r7, #20]
     b72:	2300      	movs	r3, #0
     b74:	613b      	str	r3, [r7, #16]
     b76:	2300      	movs	r3, #0
     b78:	613b      	str	r3, [r7, #16]
     b7a:	e007      	b.n	b8c <memset+0x2c>
     b7c:	693b      	ldr	r3, [r7, #16]
     b7e:	3301      	adds	r3, #1
     b80:	613b      	str	r3, [r7, #16]
     b82:	697b      	ldr	r3, [r7, #20]
     b84:	1c5a      	adds	r2, r3, #1
     b86:	617a      	str	r2, [r7, #20]
     b88:	7afa      	ldrb	r2, [r7, #11]
     b8a:	701a      	strb	r2, [r3, #0]
     b8c:	693a      	ldr	r2, [r7, #16]
     b8e:	687b      	ldr	r3, [r7, #4]
     b90:	429a      	cmp	r2, r3
     b92:	d3f3      	bcc.n	b7c <memset+0x1c>
     b94:	2300      	movs	r3, #0
     b96:	4618      	mov	r0, r3
     b98:	371c      	adds	r7, #28
     b9a:	46bd      	mov	sp, r7
     b9c:	f85d 7b04 	ldr.w	r7, [sp], #4
     ba0:	4770      	bx	lr
     ba2:	bf00      	nop

00000ba4 <memcpy>:
     ba4:	b480      	push	{r7}
     ba6:	b089      	sub	sp, #36	; 0x24
     ba8:	af00      	add	r7, sp, #0
     baa:	60f8      	str	r0, [r7, #12]
     bac:	60b9      	str	r1, [r7, #8]
     bae:	607a      	str	r2, [r7, #4]
     bb0:	68fb      	ldr	r3, [r7, #12]
     bb2:	61fb      	str	r3, [r7, #28]
     bb4:	68bb      	ldr	r3, [r7, #8]
     bb6:	61bb      	str	r3, [r7, #24]
     bb8:	2300      	movs	r3, #0
     bba:	617b      	str	r3, [r7, #20]
     bbc:	2300      	movs	r3, #0
     bbe:	617b      	str	r3, [r7, #20]
     bc0:	e00a      	b.n	bd8 <memcpy+0x34>
     bc2:	697b      	ldr	r3, [r7, #20]
     bc4:	3301      	adds	r3, #1
     bc6:	617b      	str	r3, [r7, #20]
     bc8:	69fb      	ldr	r3, [r7, #28]
     bca:	1c5a      	adds	r2, r3, #1
     bcc:	61fa      	str	r2, [r7, #28]
     bce:	69ba      	ldr	r2, [r7, #24]
     bd0:	1c51      	adds	r1, r2, #1
     bd2:	61b9      	str	r1, [r7, #24]
     bd4:	7812      	ldrb	r2, [r2, #0]
     bd6:	701a      	strb	r2, [r3, #0]
     bd8:	697a      	ldr	r2, [r7, #20]
     bda:	687b      	ldr	r3, [r7, #4]
     bdc:	429a      	cmp	r2, r3
     bde:	d3f0      	bcc.n	bc2 <memcpy+0x1e>
     be0:	2300      	movs	r3, #0
     be2:	4618      	mov	r0, r3
     be4:	3724      	adds	r7, #36	; 0x24
     be6:	46bd      	mov	sp, r7
     be8:	f85d 7b04 	ldr.w	r7, [sp], #4
     bec:	4770      	bx	lr
     bee:	bf00      	nop

00000bf0 <memcmp>:
     bf0:	b480      	push	{r7}
     bf2:	b089      	sub	sp, #36	; 0x24
     bf4:	af00      	add	r7, sp, #0
     bf6:	60f8      	str	r0, [r7, #12]
     bf8:	60b9      	str	r1, [r7, #8]
     bfa:	607a      	str	r2, [r7, #4]
     bfc:	68fb      	ldr	r3, [r7, #12]
     bfe:	61fb      	str	r3, [r7, #28]
     c00:	68bb      	ldr	r3, [r7, #8]
     c02:	61bb      	str	r3, [r7, #24]
     c04:	2300      	movs	r3, #0
     c06:	617b      	str	r3, [r7, #20]
     c08:	2300      	movs	r3, #0
     c0a:	617b      	str	r3, [r7, #20]
     c0c:	e00f      	b.n	c2e <memcmp+0x3e>
     c0e:	69fb      	ldr	r3, [r7, #28]
     c10:	781a      	ldrb	r2, [r3, #0]
     c12:	69bb      	ldr	r3, [r7, #24]
     c14:	781b      	ldrb	r3, [r3, #0]
     c16:	429a      	cmp	r2, r3
     c18:	d000      	beq.n	c1c <memcmp+0x2c>
     c1a:	e00c      	b.n	c36 <memcmp+0x46>
     c1c:	697b      	ldr	r3, [r7, #20]
     c1e:	3301      	adds	r3, #1
     c20:	617b      	str	r3, [r7, #20]
     c22:	69fb      	ldr	r3, [r7, #28]
     c24:	3301      	adds	r3, #1
     c26:	61fb      	str	r3, [r7, #28]
     c28:	69bb      	ldr	r3, [r7, #24]
     c2a:	3301      	adds	r3, #1
     c2c:	61bb      	str	r3, [r7, #24]
     c2e:	697a      	ldr	r2, [r7, #20]
     c30:	687b      	ldr	r3, [r7, #4]
     c32:	429a      	cmp	r2, r3
     c34:	d3eb      	bcc.n	c0e <memcmp+0x1e>
     c36:	697a      	ldr	r2, [r7, #20]
     c38:	687b      	ldr	r3, [r7, #4]
     c3a:	429a      	cmp	r2, r3
     c3c:	d201      	bcs.n	c42 <memcmp+0x52>
     c3e:	2301      	movs	r3, #1
     c40:	e000      	b.n	c44 <memcmp+0x54>
     c42:	2300      	movs	r3, #0
     c44:	4618      	mov	r0, r3
     c46:	3724      	adds	r7, #36	; 0x24
     c48:	46bd      	mov	sp, r7
     c4a:	f85d 7b04 	ldr.w	r7, [sp], #4
     c4e:	4770      	bx	lr

00000c50 <strcmp>:
     c50:	b480      	push	{r7}
     c52:	b085      	sub	sp, #20
     c54:	af00      	add	r7, sp, #0
     c56:	6078      	str	r0, [r7, #4]
     c58:	6039      	str	r1, [r7, #0]
     c5a:	687b      	ldr	r3, [r7, #4]
     c5c:	60fb      	str	r3, [r7, #12]
     c5e:	683b      	ldr	r3, [r7, #0]
     c60:	60bb      	str	r3, [r7, #8]
     c62:	e005      	b.n	c70 <strcmp+0x20>
     c64:	68fb      	ldr	r3, [r7, #12]
     c66:	3301      	adds	r3, #1
     c68:	60fb      	str	r3, [r7, #12]
     c6a:	68bb      	ldr	r3, [r7, #8]
     c6c:	3301      	adds	r3, #1
     c6e:	60bb      	str	r3, [r7, #8]
     c70:	68fb      	ldr	r3, [r7, #12]
     c72:	781b      	ldrb	r3, [r3, #0]
     c74:	2b00      	cmp	r3, #0
     c76:	d009      	beq.n	c8c <strcmp+0x3c>
     c78:	68bb      	ldr	r3, [r7, #8]
     c7a:	781b      	ldrb	r3, [r3, #0]
     c7c:	2b00      	cmp	r3, #0
     c7e:	d005      	beq.n	c8c <strcmp+0x3c>
     c80:	68fb      	ldr	r3, [r7, #12]
     c82:	781a      	ldrb	r2, [r3, #0]
     c84:	68bb      	ldr	r3, [r7, #8]
     c86:	781b      	ldrb	r3, [r3, #0]
     c88:	429a      	cmp	r2, r3
     c8a:	d0eb      	beq.n	c64 <strcmp+0x14>
     c8c:	68fb      	ldr	r3, [r7, #12]
     c8e:	781b      	ldrb	r3, [r3, #0]
     c90:	461a      	mov	r2, r3
     c92:	68bb      	ldr	r3, [r7, #8]
     c94:	781b      	ldrb	r3, [r3, #0]
     c96:	1ad3      	subs	r3, r2, r3
     c98:	4618      	mov	r0, r3
     c9a:	3714      	adds	r7, #20
     c9c:	46bd      	mov	sp, r7
     c9e:	f85d 7b04 	ldr.w	r7, [sp], #4
     ca2:	4770      	bx	lr

00000ca4 <strncmp>:
     ca4:	b480      	push	{r7}
     ca6:	b089      	sub	sp, #36	; 0x24
     ca8:	af00      	add	r7, sp, #0
     caa:	60f8      	str	r0, [r7, #12]
     cac:	60b9      	str	r1, [r7, #8]
     cae:	607a      	str	r2, [r7, #4]
     cb0:	68fb      	ldr	r3, [r7, #12]
     cb2:	61fb      	str	r3, [r7, #28]
     cb4:	68bb      	ldr	r3, [r7, #8]
     cb6:	61bb      	str	r3, [r7, #24]
     cb8:	2300      	movs	r3, #0
     cba:	617b      	str	r3, [r7, #20]
     cbc:	e019      	b.n	cf2 <strncmp+0x4e>
     cbe:	69fb      	ldr	r3, [r7, #28]
     cc0:	781a      	ldrb	r2, [r3, #0]
     cc2:	69bb      	ldr	r3, [r7, #24]
     cc4:	781b      	ldrb	r3, [r3, #0]
     cc6:	429a      	cmp	r2, r3
     cc8:	d901      	bls.n	cce <strncmp+0x2a>
     cca:	2301      	movs	r3, #1
     ccc:	e016      	b.n	cfc <strncmp+0x58>
     cce:	69fb      	ldr	r3, [r7, #28]
     cd0:	781a      	ldrb	r2, [r3, #0]
     cd2:	69bb      	ldr	r3, [r7, #24]
     cd4:	781b      	ldrb	r3, [r3, #0]
     cd6:	429a      	cmp	r2, r3
     cd8:	d202      	bcs.n	ce0 <strncmp+0x3c>
     cda:	f04f 33ff 	mov.w	r3, #4294967295	; 0xffffffff
     cde:	e00d      	b.n	cfc <strncmp+0x58>
     ce0:	697b      	ldr	r3, [r7, #20]
     ce2:	3301      	adds	r3, #1
     ce4:	617b      	str	r3, [r7, #20]
     ce6:	69fb      	ldr	r3, [r7, #28]
     ce8:	3301      	adds	r3, #1
     cea:	61fb      	str	r3, [r7, #28]
     cec:	69bb      	ldr	r3, [r7, #24]
     cee:	3301      	adds	r3, #1
     cf0:	61bb      	str	r3, [r7, #24]
     cf2:	697a      	ldr	r2, [r7, #20]
     cf4:	687b      	ldr	r3, [r7, #4]
     cf6:	429a      	cmp	r2, r3
     cf8:	d3e1      	bcc.n	cbe <strncmp+0x1a>
     cfa:	2300      	movs	r3, #0
     cfc:	4618      	mov	r0, r3
     cfe:	3724      	adds	r7, #36	; 0x24
     d00:	46bd      	mov	sp, r7
     d02:	f85d 7b04 	ldr.w	r7, [sp], #4
     d06:	4770      	bx	lr

00000d08 <strtoul>:
     d08:	b580      	push	{r7, lr}
     d0a:	b086      	sub	sp, #24
     d0c:	af00      	add	r7, sp, #0
     d0e:	6078      	str	r0, [r7, #4]
     d10:	6039      	str	r1, [r7, #0]
     d12:	687b      	ldr	r3, [r7, #4]
     d14:	617b      	str	r3, [r7, #20]
     d16:	230a      	movs	r3, #10
     d18:	613b      	str	r3, [r7, #16]
     d1a:	2300      	movs	r3, #0
     d1c:	60fb      	str	r3, [r7, #12]
     d1e:	2300      	movs	r3, #0
     d20:	60bb      	str	r3, [r7, #8]
     d22:	697b      	ldr	r3, [r7, #20]
     d24:	781b      	ldrb	r3, [r3, #0]
     d26:	2b30      	cmp	r3, #48	; 0x30
     d28:	d10e      	bne.n	d48 <strtoul+0x40>
     d2a:	697b      	ldr	r3, [r7, #20]
     d2c:	3301      	adds	r3, #1
     d2e:	781b      	ldrb	r3, [r3, #0]
     d30:	2b78      	cmp	r3, #120	; 0x78
     d32:	d004      	beq.n	d3e <strtoul+0x36>
     d34:	697b      	ldr	r3, [r7, #20]
     d36:	3301      	adds	r3, #1
     d38:	781b      	ldrb	r3, [r3, #0]
     d3a:	2b58      	cmp	r3, #88	; 0x58
     d3c:	d104      	bne.n	d48 <strtoul+0x40>
     d3e:	697b      	ldr	r3, [r7, #20]
     d40:	3302      	adds	r3, #2
     d42:	617b      	str	r3, [r7, #20]
     d44:	2310      	movs	r3, #16
     d46:	613b      	str	r3, [r7, #16]
     d48:	e046      	b.n	dd8 <strtoul+0xd0>
     d4a:	693b      	ldr	r3, [r7, #16]
     d4c:	2b10      	cmp	r3, #16
     d4e:	d12a      	bne.n	da6 <strtoul+0x9e>
     d50:	697b      	ldr	r3, [r7, #20]
     d52:	781b      	ldrb	r3, [r3, #0]
     d54:	4618      	mov	r0, r3
     d56:	f7ff fc33 	bl	5c0 <is_hex_asc>
     d5a:	4603      	mov	r3, r0
     d5c:	2b00      	cmp	r3, #0
     d5e:	d102      	bne.n	d66 <strtoul+0x5e>
     d60:	f04f 33ff 	mov.w	r3, #4294967295	; 0xffffffff
     d64:	e040      	b.n	de8 <strtoul+0xe0>
     d66:	697b      	ldr	r3, [r7, #20]
     d68:	781b      	ldrb	r3, [r3, #0]
     d6a:	2b2f      	cmp	r3, #47	; 0x2f
     d6c:	d908      	bls.n	d80 <strtoul+0x78>
     d6e:	697b      	ldr	r3, [r7, #20]
     d70:	781b      	ldrb	r3, [r3, #0]
     d72:	2b39      	cmp	r3, #57	; 0x39
     d74:	d804      	bhi.n	d80 <strtoul+0x78>
     d76:	697b      	ldr	r3, [r7, #20]
     d78:	781b      	ldrb	r3, [r3, #0]
     d7a:	3b30      	subs	r3, #48	; 0x30
     d7c:	60bb      	str	r3, [r7, #8]
     d7e:	e011      	b.n	da4 <strtoul+0x9c>
     d80:	697b      	ldr	r3, [r7, #20]
     d82:	781b      	ldrb	r3, [r3, #0]
     d84:	2b60      	cmp	r3, #96	; 0x60
     d86:	d908      	bls.n	d9a <strtoul+0x92>
     d88:	697b      	ldr	r3, [r7, #20]
     d8a:	781b      	ldrb	r3, [r3, #0]
     d8c:	2b66      	cmp	r3, #102	; 0x66
     d8e:	d804      	bhi.n	d9a <strtoul+0x92>
     d90:	697b      	ldr	r3, [r7, #20]
     d92:	781b      	ldrb	r3, [r3, #0]
     d94:	3b57      	subs	r3, #87	; 0x57
     d96:	60bb      	str	r3, [r7, #8]
     d98:	e004      	b.n	da4 <strtoul+0x9c>
     d9a:	697b      	ldr	r3, [r7, #20]
     d9c:	781b      	ldrb	r3, [r3, #0]
     d9e:	3b37      	subs	r3, #55	; 0x37
     da0:	60bb      	str	r3, [r7, #8]
     da2:	e00f      	b.n	dc4 <strtoul+0xbc>
     da4:	e00e      	b.n	dc4 <strtoul+0xbc>
     da6:	697b      	ldr	r3, [r7, #20]
     da8:	781b      	ldrb	r3, [r3, #0]
     daa:	4618      	mov	r0, r3
     dac:	f7ff fbce 	bl	54c <is_dec_asc>
     db0:	4603      	mov	r3, r0
     db2:	2b00      	cmp	r3, #0
     db4:	d102      	bne.n	dbc <strtoul+0xb4>
     db6:	f06f 0301 	mvn.w	r3, #1
     dba:	e015      	b.n	de8 <strtoul+0xe0>
     dbc:	697b      	ldr	r3, [r7, #20]
     dbe:	781b      	ldrb	r3, [r3, #0]
     dc0:	3b30      	subs	r3, #48	; 0x30
     dc2:	60bb      	str	r3, [r7, #8]
     dc4:	68fb      	ldr	r3, [r7, #12]
     dc6:	693a      	ldr	r2, [r7, #16]
     dc8:	fb02 f203 	mul.w	r2, r2, r3
     dcc:	68bb      	ldr	r3, [r7, #8]
     dce:	4413      	add	r3, r2
     dd0:	60fb      	str	r3, [r7, #12]
     dd2:	697b      	ldr	r3, [r7, #20]
     dd4:	3301      	adds	r3, #1
     dd6:	617b      	str	r3, [r7, #20]
     dd8:	697b      	ldr	r3, [r7, #20]
     dda:	781b      	ldrb	r3, [r3, #0]
     ddc:	2b00      	cmp	r3, #0
     dde:	d1b4      	bne.n	d4a <strtoul+0x42>
     de0:	683b      	ldr	r3, [r7, #0]
     de2:	68fa      	ldr	r2, [r7, #12]
     de4:	601a      	str	r2, [r3, #0]
     de6:	2300      	movs	r3, #0
     de8:	4618      	mov	r0, r3
     dea:	3718      	adds	r7, #24
     dec:	46bd      	mov	sp, r7
     dee:	bd80      	pop	{r7, pc}

00000df0 <strtol>:
     df0:	b580      	push	{r7, lr}
     df2:	b084      	sub	sp, #16
     df4:	af00      	add	r7, sp, #0
     df6:	6078      	str	r0, [r7, #4]
     df8:	6039      	str	r1, [r7, #0]
     dfa:	687b      	ldr	r3, [r7, #4]
     dfc:	60fb      	str	r3, [r7, #12]
     dfe:	68fb      	ldr	r3, [r7, #12]
     e00:	781b      	ldrb	r3, [r3, #0]
     e02:	2b2d      	cmp	r3, #45	; 0x2d
     e04:	d10e      	bne.n	e24 <strtol+0x34>
     e06:	68fb      	ldr	r3, [r7, #12]
     e08:	3301      	adds	r3, #1
     e0a:	60fb      	str	r3, [r7, #12]
     e0c:	68f8      	ldr	r0, [r7, #12]
     e0e:	6839      	ldr	r1, [r7, #0]
     e10:	f7ff ff7a 	bl	d08 <strtoul>
     e14:	60b8      	str	r0, [r7, #8]
     e16:	683b      	ldr	r3, [r7, #0]
     e18:	681b      	ldr	r3, [r3, #0]
     e1a:	425a      	negs	r2, r3
     e1c:	683b      	ldr	r3, [r7, #0]
     e1e:	601a      	str	r2, [r3, #0]
     e20:	68bb      	ldr	r3, [r7, #8]
     e22:	e004      	b.n	e2e <strtol+0x3e>
     e24:	68f8      	ldr	r0, [r7, #12]
     e26:	6839      	ldr	r1, [r7, #0]
     e28:	f7ff ff6e 	bl	d08 <strtoul>
     e2c:	4603      	mov	r3, r0
     e2e:	4618      	mov	r0, r3
     e30:	3710      	adds	r7, #16
     e32:	46bd      	mov	sp, r7
     e34:	bd80      	pop	{r7, pc}
     e36:	bf00      	nop

00000e38 <strlen>:
     e38:	b480      	push	{r7}
     e3a:	b085      	sub	sp, #20
     e3c:	af00      	add	r7, sp, #0
     e3e:	6078      	str	r0, [r7, #4]
     e40:	687b      	ldr	r3, [r7, #4]
     e42:	60fb      	str	r3, [r7, #12]
     e44:	bf00      	nop
     e46:	68fb      	ldr	r3, [r7, #12]
     e48:	1c5a      	adds	r2, r3, #1
     e4a:	60fa      	str	r2, [r7, #12]
     e4c:	781b      	ldrb	r3, [r3, #0]
     e4e:	2b00      	cmp	r3, #0
     e50:	d1f9      	bne.n	e46 <strlen+0xe>
     e52:	68fa      	ldr	r2, [r7, #12]
     e54:	687b      	ldr	r3, [r7, #4]
     e56:	1ad3      	subs	r3, r2, r3
     e58:	4618      	mov	r0, r3
     e5a:	3714      	adds	r7, #20
     e5c:	46bd      	mov	sp, r7
     e5e:	f85d 7b04 	ldr.w	r7, [sp], #4
     e62:	4770      	bx	lr

00000e64 <strcpy>:
     e64:	b480      	push	{r7}
     e66:	b085      	sub	sp, #20
     e68:	af00      	add	r7, sp, #0
     e6a:	6078      	str	r0, [r7, #4]
     e6c:	6039      	str	r1, [r7, #0]
     e6e:	687b      	ldr	r3, [r7, #4]
     e70:	60fb      	str	r3, [r7, #12]
     e72:	683b      	ldr	r3, [r7, #0]
     e74:	60bb      	str	r3, [r7, #8]
     e76:	e009      	b.n	e8c <strcpy+0x28>
     e78:	68bb      	ldr	r3, [r7, #8]
     e7a:	781a      	ldrb	r2, [r3, #0]
     e7c:	68fb      	ldr	r3, [r7, #12]
     e7e:	701a      	strb	r2, [r3, #0]
     e80:	68fb      	ldr	r3, [r7, #12]
     e82:	3301      	adds	r3, #1
     e84:	60fb      	str	r3, [r7, #12]
     e86:	68bb      	ldr	r3, [r7, #8]
     e88:	3301      	adds	r3, #1
     e8a:	60bb      	str	r3, [r7, #8]
     e8c:	68bb      	ldr	r3, [r7, #8]
     e8e:	781b      	ldrb	r3, [r3, #0]
     e90:	2b00      	cmp	r3, #0
     e92:	d1f1      	bne.n	e78 <strcpy+0x14>
     e94:	68fb      	ldr	r3, [r7, #12]
     e96:	2200      	movs	r2, #0
     e98:	701a      	strb	r2, [r3, #0]
     e9a:	2300      	movs	r3, #0
     e9c:	4618      	mov	r0, r3
     e9e:	3714      	adds	r7, #20
     ea0:	46bd      	mov	sp, r7
     ea2:	f85d 7b04 	ldr.w	r7, [sp], #4
     ea6:	4770      	bx	lr

00000ea8 <reset_handler>:
     ea8:	f04f 0021 	mov.w	r0, #33	; 0x21
     eac:	f3ef 8014 	mrs	r0, CONTROL
     eb0:	f04f 0102 	mov.w	r1, #2
     eb4:	ea40 0001 	orr.w	r0, r0, r1
     eb8:	f380 8814 	msr	CONTROL, r0
     ebc:	4817      	ldr	r0, [pc, #92]	; (f1c <enable_irq+0x6>)
     ebe:	4685      	mov	sp, r0
     ec0:	4817      	ldr	r0, [pc, #92]	; (f20 <enable_irq+0xa>)
     ec2:	4780      	blx	r0
     ec4:	e7fe      	b.n	ec4 <reset_handler+0x1c>

00000ec6 <get_psp>:
     ec6:	f3ef 8009 	mrs	r0, PSP
     eca:	47f0      	blx	lr

00000ecc <set_psp>:
     ecc:	f380 8809 	msr	PSP, r0
     ed0:	47f0      	blx	lr

00000ed2 <get_msp>:
     ed2:	f3ef 8008 	mrs	r0, MSP
     ed6:	47f0      	blx	lr

00000ed8 <get_control_reg>:
     ed8:	f3ef 8014 	mrs	r0, CONTROL
     edc:	47f0      	blx	lr

00000ede <pendsv_handler>:
     ede:	f3ef 8009 	mrs	r0, PSP
     ee2:	b120      	cbz	r0, eee <pendsv_handler_nosave>
     ee4:	e920 0ff0 	stmdb	r0!, {r4, r5, r6, r7, r8, r9, sl, fp}
     ee8:	490e      	ldr	r1, [pc, #56]	; (f24 <enable_irq+0xe>)
     eea:	6809      	ldr	r1, [r1, #0]
     eec:	6008      	str	r0, [r1, #0]

00000eee <pendsv_handler_nosave>:
     eee:	480d      	ldr	r0, [pc, #52]	; (f24 <enable_irq+0xe>)
     ef0:	490d      	ldr	r1, [pc, #52]	; (f28 <enable_irq+0x12>)
     ef2:	680a      	ldr	r2, [r1, #0]
     ef4:	6002      	str	r2, [r0, #0]
     ef6:	6810      	ldr	r0, [r2, #0]
     ef8:	e8b0 0ff0 	ldmia.w	r0!, {r4, r5, r6, r7, r8, r9, sl, fp}
     efc:	f380 8809 	msr	PSP, r0
     f00:	f04e 0e04 	orr.w	lr, lr, #4
     f04:	4770      	bx	lr

00000f06 <get_primask>:
     f06:	f3ef 8010 	mrs	r0, PRIMASK
     f0a:	47f0      	blx	lr

00000f0c <set_primask>:
     f0c:	f380 8810 	msr	PRIMASK, r0
     f10:	47f0      	blx	lr

00000f12 <disable_irq>:
     f12:	b672      	cpsid	i
     f14:	47f0      	blx	lr

00000f16 <enable_irq>:
     f16:	b662      	cpsie	i
     f18:	47f0      	blx	lr
     f1a:	80000000 	andhi	r0, r0, r0
     f1e:	03ed2000 	mvneq	r2, #0
     f22:	59540000 	ldmdbpl	r4, {}^	; <UNPREDICTABLE>
     f26:	59502000 	ldmdbpl	r0, {sp}^
     f2a:	b4802000 	strlt	r2, [r0], #0

00000f2c <idle_task_entry>:
     f2c:	b480      	push	{r7}
     f2e:	b083      	sub	sp, #12
     f30:	af00      	add	r7, sp, #0
     f32:	6078      	str	r0, [r7, #4]
     f34:	e7fe      	b.n	f34 <idle_task_entry+0x8>
     f36:	bf00      	nop

00000f38 <task_init>:
     f38:	b580      	push	{r7, lr}
     f3a:	b084      	sub	sp, #16
     f3c:	af00      	add	r7, sp, #0
     f3e:	60f8      	str	r0, [r7, #12]
     f40:	60b9      	str	r1, [r7, #8]
     f42:	607a      	str	r2, [r7, #4]
     f44:	603b      	str	r3, [r7, #0]
     f46:	4854      	ldr	r0, [pc, #336]	; (1098 <task_init+0x160>)
     f48:	4954      	ldr	r1, [pc, #336]	; (109c <task_init+0x164>)
     f4a:	f7ff fd47 	bl	9dc <printk>
     f4e:	69bb      	ldr	r3, [r7, #24]
     f50:	3b04      	subs	r3, #4
     f52:	61bb      	str	r3, [r7, #24]
     f54:	69bb      	ldr	r3, [r7, #24]
     f56:	f04f 7280 	mov.w	r2, #16777216	; 0x1000000
     f5a:	601a      	str	r2, [r3, #0]
     f5c:	69bb      	ldr	r3, [r7, #24]
     f5e:	3b04      	subs	r3, #4
     f60:	61bb      	str	r3, [r7, #24]
     f62:	68ba      	ldr	r2, [r7, #8]
     f64:	69bb      	ldr	r3, [r7, #24]
     f66:	601a      	str	r2, [r3, #0]
     f68:	69bb      	ldr	r3, [r7, #24]
     f6a:	3b04      	subs	r3, #4
     f6c:	61bb      	str	r3, [r7, #24]
     f6e:	69bb      	ldr	r3, [r7, #24]
     f70:	220e      	movs	r2, #14
     f72:	601a      	str	r2, [r3, #0]
     f74:	69bb      	ldr	r3, [r7, #24]
     f76:	3b04      	subs	r3, #4
     f78:	61bb      	str	r3, [r7, #24]
     f7a:	69bb      	ldr	r3, [r7, #24]
     f7c:	220c      	movs	r2, #12
     f7e:	601a      	str	r2, [r3, #0]
     f80:	69bb      	ldr	r3, [r7, #24]
     f82:	3b04      	subs	r3, #4
     f84:	61bb      	str	r3, [r7, #24]
     f86:	69bb      	ldr	r3, [r7, #24]
     f88:	2203      	movs	r2, #3
     f8a:	601a      	str	r2, [r3, #0]
     f8c:	69bb      	ldr	r3, [r7, #24]
     f8e:	3b04      	subs	r3, #4
     f90:	61bb      	str	r3, [r7, #24]
     f92:	69bb      	ldr	r3, [r7, #24]
     f94:	2202      	movs	r2, #2
     f96:	601a      	str	r2, [r3, #0]
     f98:	69bb      	ldr	r3, [r7, #24]
     f9a:	3b04      	subs	r3, #4
     f9c:	61bb      	str	r3, [r7, #24]
     f9e:	69bb      	ldr	r3, [r7, #24]
     fa0:	2201      	movs	r2, #1
     fa2:	601a      	str	r2, [r3, #0]
     fa4:	69bb      	ldr	r3, [r7, #24]
     fa6:	3b04      	subs	r3, #4
     fa8:	61bb      	str	r3, [r7, #24]
     faa:	687a      	ldr	r2, [r7, #4]
     fac:	69bb      	ldr	r3, [r7, #24]
     fae:	601a      	str	r2, [r3, #0]
     fb0:	69bb      	ldr	r3, [r7, #24]
     fb2:	3b04      	subs	r3, #4
     fb4:	61bb      	str	r3, [r7, #24]
     fb6:	69bb      	ldr	r3, [r7, #24]
     fb8:	220b      	movs	r2, #11
     fba:	601a      	str	r2, [r3, #0]
     fbc:	69bb      	ldr	r3, [r7, #24]
     fbe:	3b04      	subs	r3, #4
     fc0:	61bb      	str	r3, [r7, #24]
     fc2:	69bb      	ldr	r3, [r7, #24]
     fc4:	220a      	movs	r2, #10
     fc6:	601a      	str	r2, [r3, #0]
     fc8:	69bb      	ldr	r3, [r7, #24]
     fca:	3b04      	subs	r3, #4
     fcc:	61bb      	str	r3, [r7, #24]
     fce:	69bb      	ldr	r3, [r7, #24]
     fd0:	2209      	movs	r2, #9
     fd2:	601a      	str	r2, [r3, #0]
     fd4:	69bb      	ldr	r3, [r7, #24]
     fd6:	3b04      	subs	r3, #4
     fd8:	61bb      	str	r3, [r7, #24]
     fda:	69bb      	ldr	r3, [r7, #24]
     fdc:	2208      	movs	r2, #8
     fde:	601a      	str	r2, [r3, #0]
     fe0:	69bb      	ldr	r3, [r7, #24]
     fe2:	3b04      	subs	r3, #4
     fe4:	61bb      	str	r3, [r7, #24]
     fe6:	69bb      	ldr	r3, [r7, #24]
     fe8:	2207      	movs	r2, #7
     fea:	601a      	str	r2, [r3, #0]
     fec:	69bb      	ldr	r3, [r7, #24]
     fee:	3b04      	subs	r3, #4
     ff0:	61bb      	str	r3, [r7, #24]
     ff2:	69bb      	ldr	r3, [r7, #24]
     ff4:	2206      	movs	r2, #6
     ff6:	601a      	str	r2, [r3, #0]
     ff8:	69bb      	ldr	r3, [r7, #24]
     ffa:	3b04      	subs	r3, #4
     ffc:	61bb      	str	r3, [r7, #24]
     ffe:	69bb      	ldr	r3, [r7, #24]
    1000:	2205      	movs	r2, #5
    1002:	601a      	str	r2, [r3, #0]
    1004:	69bb      	ldr	r3, [r7, #24]
    1006:	3b04      	subs	r3, #4
    1008:	61bb      	str	r3, [r7, #24]
    100a:	69bb      	ldr	r3, [r7, #24]
    100c:	2204      	movs	r2, #4
    100e:	601a      	str	r2, [r3, #0]
    1010:	68fb      	ldr	r3, [r7, #12]
    1012:	69ba      	ldr	r2, [r7, #24]
    1014:	601a      	str	r2, [r3, #0]
    1016:	68fb      	ldr	r3, [r7, #12]
    1018:	2200      	movs	r2, #0
    101a:	605a      	str	r2, [r3, #4]
    101c:	68fb      	ldr	r3, [r7, #12]
    101e:	2200      	movs	r2, #0
    1020:	615a      	str	r2, [r3, #20]
    1022:	68fb      	ldr	r3, [r7, #12]
    1024:	330c      	adds	r3, #12
    1026:	4618      	mov	r0, r3
    1028:	f000 fc4e 	bl	18c8 <list_node_init>
    102c:	68fb      	ldr	r3, [r7, #12]
    102e:	683a      	ldr	r2, [r7, #0]
    1030:	609a      	str	r2, [r3, #8]
    1032:	68fb      	ldr	r3, [r7, #12]
    1034:	220a      	movs	r2, #10
    1036:	621a      	str	r2, [r3, #32]
    1038:	68fb      	ldr	r3, [r7, #12]
    103a:	3318      	adds	r3, #24
    103c:	4618      	mov	r0, r3
    103e:	f000 fc43 	bl	18c8 <list_node_init>
    1042:	683a      	ldr	r2, [r7, #0]
    1044:	4613      	mov	r3, r2
    1046:	005b      	lsls	r3, r3, #1
    1048:	4413      	add	r3, r2
    104a:	009b      	lsls	r3, r3, #2
    104c:	4a14      	ldr	r2, [pc, #80]	; (10a0 <task_init+0x168>)
    104e:	441a      	add	r2, r3
    1050:	68fb      	ldr	r3, [r7, #12]
    1052:	3318      	adds	r3, #24
    1054:	4610      	mov	r0, r2
    1056:	4619      	mov	r1, r3
    1058:	f000 fd24 	bl	1aa4 <list_append_last>
    105c:	4811      	ldr	r0, [pc, #68]	; (10a4 <task_init+0x16c>)
    105e:	6839      	ldr	r1, [r7, #0]
    1060:	f000 fbc2 	bl	17e8 <bitmap_set>
    1064:	68fb      	ldr	r3, [r7, #12]
    1066:	2200      	movs	r2, #0
    1068:	625a      	str	r2, [r3, #36]	; 0x24
    106a:	68fb      	ldr	r3, [r7, #12]
    106c:	2200      	movs	r2, #0
    106e:	629a      	str	r2, [r3, #40]	; 0x28
    1070:	68fb      	ldr	r3, [r7, #12]
    1072:	2200      	movs	r2, #0
    1074:	62da      	str	r2, [r3, #44]	; 0x2c
    1076:	68fb      	ldr	r3, [r7, #12]
    1078:	2200      	movs	r2, #0
    107a:	f883 2030 	strb.w	r2, [r3, #48]	; 0x30
    107e:	68fb      	ldr	r3, [r7, #12]
    1080:	2200      	movs	r2, #0
    1082:	635a      	str	r2, [r3, #52]	; 0x34
    1084:	68fb      	ldr	r3, [r7, #12]
    1086:	2200      	movs	r2, #0
    1088:	639a      	str	r2, [r3, #56]	; 0x38
    108a:	68fb      	ldr	r3, [r7, #12]
    108c:	2200      	movs	r2, #0
    108e:	63da      	str	r2, [r3, #60]	; 0x3c
    1090:	3710      	adds	r7, #16
    1092:	46bd      	mov	sp, r7
    1094:	bd80      	pop	{r7, pc}
    1096:	bf00      	nop
    1098:	00002570 	andeq	r2, r0, r0, ror r5
    109c:	000025b8 			; <UNDEFINED> instruction: 0x000025b8
    10a0:	20005958 	andcs	r5, r0, r8, asr r9
    10a4:	20001048 	andcs	r1, r0, r8, asr #32

000010a8 <task_sched>:
    10a8:	b580      	push	{r7, lr}
    10aa:	b082      	sub	sp, #8
    10ac:	af00      	add	r7, sp, #0
    10ae:	f000 f92b 	bl	1308 <task_enter_critical>
    10b2:	6078      	str	r0, [r7, #4]
    10b4:	4b0c      	ldr	r3, [pc, #48]	; (10e8 <task_sched+0x40>)
    10b6:	781b      	ldrb	r3, [r3, #0]
    10b8:	2b00      	cmp	r3, #0
    10ba:	d000      	beq.n	10be <task_sched+0x16>
    10bc:	e00c      	b.n	10d8 <task_sched+0x30>
    10be:	f000 f973 	bl	13a8 <task_highest_ready>
    10c2:	6038      	str	r0, [r7, #0]
    10c4:	4b09      	ldr	r3, [pc, #36]	; (10ec <task_sched+0x44>)
    10c6:	681b      	ldr	r3, [r3, #0]
    10c8:	683a      	ldr	r2, [r7, #0]
    10ca:	429a      	cmp	r2, r3
    10cc:	d004      	beq.n	10d8 <task_sched+0x30>
    10ce:	4a08      	ldr	r2, [pc, #32]	; (10f0 <task_sched+0x48>)
    10d0:	683b      	ldr	r3, [r7, #0]
    10d2:	6013      	str	r3, [r2, #0]
    10d4:	f000 f80e 	bl	10f4 <task_switch>
    10d8:	6878      	ldr	r0, [r7, #4]
    10da:	f000 f923 	bl	1324 <task_exit_critical>
    10de:	bf00      	nop
    10e0:	3708      	adds	r7, #8
    10e2:	46bd      	mov	sp, r7
    10e4:	bd80      	pop	{r7, pc}
    10e6:	bf00      	nop
    10e8:	20001044 	andcs	r1, r0, r4, asr #32
    10ec:	20005954 	andcs	r5, r0, r4, asr r9
    10f0:	20005950 	andcs	r5, r0, r0, asr r9

000010f4 <task_switch>:
    10f4:	b480      	push	{r7}
    10f6:	af00      	add	r7, sp, #0
    10f8:	4b03      	ldr	r3, [pc, #12]	; (1108 <task_switch+0x14>)
    10fa:	f04f 5280 	mov.w	r2, #268435456	; 0x10000000
    10fe:	601a      	str	r2, [r3, #0]
    1100:	46bd      	mov	sp, r7
    1102:	f85d 7b04 	ldr.w	r7, [sp], #4
    1106:	4770      	bx	lr
    1108:	e000ed04 	and	lr, r0, r4, lsl #26

0000110c <task_run_first>:
    110c:	b580      	push	{r7, lr}
    110e:	af00      	add	r7, sp, #0
    1110:	4807      	ldr	r0, [pc, #28]	; (1130 <task_run_first+0x24>)
    1112:	4908      	ldr	r1, [pc, #32]	; (1134 <task_run_first+0x28>)
    1114:	f7ff fc62 	bl	9dc <printk>
    1118:	2000      	movs	r0, #0
    111a:	f7ff fed7 	bl	ecc <set_psp>
    111e:	4b06      	ldr	r3, [pc, #24]	; (1138 <task_run_first+0x2c>)
    1120:	22ff      	movs	r2, #255	; 0xff
    1122:	701a      	strb	r2, [r3, #0]
    1124:	4b05      	ldr	r3, [pc, #20]	; (113c <task_run_first+0x30>)
    1126:	f04f 5280 	mov.w	r2, #268435456	; 0x10000000
    112a:	601a      	str	r2, [r3, #0]
    112c:	bd80      	pop	{r7, pc}
    112e:	bf00      	nop
    1130:	00002570 	andeq	r2, r0, r0, ror r5
    1134:	000025c4 	andeq	r2, r0, r4, asr #11
    1138:	e000ed22 	and	lr, r0, r2, lsr #26
    113c:	e000ed04 	and	lr, r0, r4, lsl #26

00001140 <task_delay>:
    1140:	b580      	push	{r7, lr}
    1142:	b084      	sub	sp, #16
    1144:	af00      	add	r7, sp, #0
    1146:	6078      	str	r0, [r7, #4]
    1148:	f000 f8de 	bl	1308 <task_enter_critical>
    114c:	60f8      	str	r0, [r7, #12]
    114e:	4b09      	ldr	r3, [pc, #36]	; (1174 <task_delay+0x34>)
    1150:	681b      	ldr	r3, [r3, #0]
    1152:	4618      	mov	r0, r3
    1154:	6879      	ldr	r1, [r7, #4]
    1156:	f000 f991 	bl	147c <task_delay_wait>
    115a:	4b06      	ldr	r3, [pc, #24]	; (1174 <task_delay+0x34>)
    115c:	681b      	ldr	r3, [r3, #0]
    115e:	4618      	mov	r0, r3
    1160:	f000 f95e 	bl	1420 <task_unready>
    1164:	68f8      	ldr	r0, [r7, #12]
    1166:	f000 f8dd 	bl	1324 <task_exit_critical>
    116a:	f7ff ff9d 	bl	10a8 <task_sched>
    116e:	3710      	adds	r7, #16
    1170:	46bd      	mov	sp, r7
    1172:	bd80      	pop	{r7, pc}
    1174:	20005954 	andcs	r5, r0, r4, asr r9

00001178 <task_delay_s>:
    1178:	b580      	push	{r7, lr}
    117a:	b082      	sub	sp, #8
    117c:	af00      	add	r7, sp, #0
    117e:	6078      	str	r0, [r7, #4]
    1180:	687b      	ldr	r3, [r7, #4]
    1182:	2264      	movs	r2, #100	; 0x64
    1184:	fb02 f303 	mul.w	r3, r2, r3
    1188:	4618      	mov	r0, r3
    118a:	f7ff ffd9 	bl	1140 <task_delay>
    118e:	3708      	adds	r7, #8
    1190:	46bd      	mov	sp, r7
    1192:	bd80      	pop	{r7, pc}

00001194 <task_system_tick_handler>:
    1194:	b580      	push	{r7, lr}
    1196:	b084      	sub	sp, #16
    1198:	af00      	add	r7, sp, #0
    119a:	f000 f8b5 	bl	1308 <task_enter_critical>
    119e:	60b8      	str	r0, [r7, #8]
    11a0:	4b36      	ldr	r3, [pc, #216]	; (127c <task_system_tick_handler+0xe8>)
    11a2:	607b      	str	r3, [r7, #4]
    11a4:	687b      	ldr	r3, [r7, #4]
    11a6:	685b      	ldr	r3, [r3, #4]
    11a8:	60fb      	str	r3, [r7, #12]
    11aa:	2300      	movs	r3, #0
    11ac:	603b      	str	r3, [r7, #0]
    11ae:	e01d      	b.n	11ec <task_system_tick_handler+0x58>
    11b0:	68fb      	ldr	r3, [r7, #12]
    11b2:	3b0c      	subs	r3, #12
    11b4:	603b      	str	r3, [r7, #0]
    11b6:	68fb      	ldr	r3, [r7, #12]
    11b8:	685b      	ldr	r3, [r3, #4]
    11ba:	60fb      	str	r3, [r7, #12]
    11bc:	683b      	ldr	r3, [r7, #0]
    11be:	685b      	ldr	r3, [r3, #4]
    11c0:	1e5a      	subs	r2, r3, #1
    11c2:	683b      	ldr	r3, [r7, #0]
    11c4:	605a      	str	r2, [r3, #4]
    11c6:	683b      	ldr	r3, [r7, #0]
    11c8:	685b      	ldr	r3, [r3, #4]
    11ca:	2b00      	cmp	r3, #0
    11cc:	d10e      	bne.n	11ec <task_system_tick_handler+0x58>
    11ce:	683b      	ldr	r3, [r7, #0]
    11d0:	6b5b      	ldr	r3, [r3, #52]	; 0x34
    11d2:	2b00      	cmp	r3, #0
    11d4:	d004      	beq.n	11e0 <task_system_tick_handler+0x4c>
    11d6:	6838      	ldr	r0, [r7, #0]
    11d8:	2100      	movs	r1, #0
    11da:	2201      	movs	r2, #1
    11dc:	f000 fd68 	bl	1cb0 <event_remove_task>
    11e0:	6838      	ldr	r0, [r7, #0]
    11e2:	f000 f965 	bl	14b0 <task_delay_wakeup>
    11e6:	6838      	ldr	r0, [r7, #0]
    11e8:	f000 f8fa 	bl	13e0 <task_ready>
    11ec:	68fa      	ldr	r2, [r7, #12]
    11ee:	687b      	ldr	r3, [r7, #4]
    11f0:	429a      	cmp	r2, r3
    11f2:	d1dd      	bne.n	11b0 <task_system_tick_handler+0x1c>
    11f4:	4b22      	ldr	r3, [pc, #136]	; (1280 <task_system_tick_handler+0xec>)
    11f6:	681b      	ldr	r3, [r3, #0]
    11f8:	6a1a      	ldr	r2, [r3, #32]
    11fa:	3a01      	subs	r2, #1
    11fc:	621a      	str	r2, [r3, #32]
    11fe:	6a1b      	ldr	r3, [r3, #32]
    1200:	2b00      	cmp	r3, #0
    1202:	d132      	bne.n	126a <task_system_tick_handler+0xd6>
    1204:	4b1e      	ldr	r3, [pc, #120]	; (1280 <task_system_tick_handler+0xec>)
    1206:	681b      	ldr	r3, [r3, #0]
    1208:	689a      	ldr	r2, [r3, #8]
    120a:	4613      	mov	r3, r2
    120c:	005b      	lsls	r3, r3, #1
    120e:	4413      	add	r3, r2
    1210:	009b      	lsls	r3, r3, #2
    1212:	4a1c      	ldr	r2, [pc, #112]	; (1284 <task_system_tick_handler+0xf0>)
    1214:	4413      	add	r3, r2
    1216:	4618      	mov	r0, r3
    1218:	f000 fb7a 	bl	1910 <list_count>
    121c:	4603      	mov	r3, r0
    121e:	2b00      	cmp	r3, #0
    1220:	d023      	beq.n	126a <task_system_tick_handler+0xd6>
    1222:	4b17      	ldr	r3, [pc, #92]	; (1280 <task_system_tick_handler+0xec>)
    1224:	681b      	ldr	r3, [r3, #0]
    1226:	689a      	ldr	r2, [r3, #8]
    1228:	4613      	mov	r3, r2
    122a:	005b      	lsls	r3, r3, #1
    122c:	4413      	add	r3, r2
    122e:	009b      	lsls	r3, r3, #2
    1230:	4a14      	ldr	r2, [pc, #80]	; (1284 <task_system_tick_handler+0xf0>)
    1232:	441a      	add	r2, r3
    1234:	4b12      	ldr	r3, [pc, #72]	; (1280 <task_system_tick_handler+0xec>)
    1236:	681b      	ldr	r3, [r3, #0]
    1238:	3318      	adds	r3, #24
    123a:	4610      	mov	r0, r2
    123c:	4619      	mov	r1, r3
    123e:	f000 fc91 	bl	1b64 <list_remove>
    1242:	4b0f      	ldr	r3, [pc, #60]	; (1280 <task_system_tick_handler+0xec>)
    1244:	681b      	ldr	r3, [r3, #0]
    1246:	689a      	ldr	r2, [r3, #8]
    1248:	4613      	mov	r3, r2
    124a:	005b      	lsls	r3, r3, #1
    124c:	4413      	add	r3, r2
    124e:	009b      	lsls	r3, r3, #2
    1250:	4a0c      	ldr	r2, [pc, #48]	; (1284 <task_system_tick_handler+0xf0>)
    1252:	441a      	add	r2, r3
    1254:	4b0a      	ldr	r3, [pc, #40]	; (1280 <task_system_tick_handler+0xec>)
    1256:	681b      	ldr	r3, [r3, #0]
    1258:	3318      	adds	r3, #24
    125a:	4610      	mov	r0, r2
    125c:	4619      	mov	r1, r3
    125e:	f000 fc21 	bl	1aa4 <list_append_last>
    1262:	4b07      	ldr	r3, [pc, #28]	; (1280 <task_system_tick_handler+0xec>)
    1264:	681b      	ldr	r3, [r3, #0]
    1266:	220a      	movs	r2, #10
    1268:	621a      	str	r2, [r3, #32]
    126a:	68b8      	ldr	r0, [r7, #8]
    126c:	f000 f85a 	bl	1324 <task_exit_critical>
    1270:	f7ff ff1a 	bl	10a8 <task_sched>
    1274:	3710      	adds	r7, #16
    1276:	46bd      	mov	sp, r7
    1278:	bd80      	pop	{r7, pc}
    127a:	bf00      	nop
    127c:	2000104c 	andcs	r1, r0, ip, asr #32
    1280:	20005954 	andcs	r5, r0, r4, asr r9
    1284:	20005958 	andcs	r5, r0, r8, asr r9

00001288 <init_task_module>:
    1288:	b580      	push	{r7, lr}
    128a:	b084      	sub	sp, #16
    128c:	af02      	add	r7, sp, #8
    128e:	4b16      	ldr	r3, [pc, #88]	; (12e8 <init_task_module+0x60>)
    1290:	2200      	movs	r2, #0
    1292:	701a      	strb	r2, [r3, #0]
    1294:	2300      	movs	r3, #0
    1296:	607b      	str	r3, [r7, #4]
    1298:	4814      	ldr	r0, [pc, #80]	; (12ec <init_task_module+0x64>)
    129a:	f000 fa91 	bl	17c0 <bitmap_init>
    129e:	4814      	ldr	r0, [pc, #80]	; (12f0 <init_task_module+0x68>)
    12a0:	f000 fb24 	bl	18ec <list_init>
    12a4:	2300      	movs	r3, #0
    12a6:	607b      	str	r3, [r7, #4]
    12a8:	e00c      	b.n	12c4 <init_task_module+0x3c>
    12aa:	687a      	ldr	r2, [r7, #4]
    12ac:	4613      	mov	r3, r2
    12ae:	005b      	lsls	r3, r3, #1
    12b0:	4413      	add	r3, r2
    12b2:	009b      	lsls	r3, r3, #2
    12b4:	4a0f      	ldr	r2, [pc, #60]	; (12f4 <init_task_module+0x6c>)
    12b6:	4413      	add	r3, r2
    12b8:	4618      	mov	r0, r3
    12ba:	f000 fb17 	bl	18ec <list_init>
    12be:	687b      	ldr	r3, [r7, #4]
    12c0:	3301      	adds	r3, #1
    12c2:	607b      	str	r3, [r7, #4]
    12c4:	687b      	ldr	r3, [r7, #4]
    12c6:	2b1f      	cmp	r3, #31
    12c8:	d9ef      	bls.n	12aa <init_task_module+0x22>
    12ca:	4b0b      	ldr	r3, [pc, #44]	; (12f8 <init_task_module+0x70>)
    12cc:	9300      	str	r3, [sp, #0]
    12ce:	480b      	ldr	r0, [pc, #44]	; (12fc <init_task_module+0x74>)
    12d0:	490b      	ldr	r1, [pc, #44]	; (1300 <init_task_module+0x78>)
    12d2:	2200      	movs	r2, #0
    12d4:	231f      	movs	r3, #31
    12d6:	f7ff fe2f 	bl	f38 <task_init>
    12da:	4b0a      	ldr	r3, [pc, #40]	; (1304 <init_task_module+0x7c>)
    12dc:	4a07      	ldr	r2, [pc, #28]	; (12fc <init_task_module+0x74>)
    12de:	601a      	str	r2, [r3, #0]
    12e0:	3708      	adds	r7, #8
    12e2:	46bd      	mov	sp, r7
    12e4:	bd80      	pop	{r7, pc}
    12e6:	bf00      	nop
    12e8:	20001044 	andcs	r1, r0, r4, asr #32
    12ec:	20001048 	andcs	r1, r0, r8, asr #32
    12f0:	2000104c 	andcs	r1, r0, ip, asr #32
    12f4:	20005958 	andcs	r5, r0, r8, asr r9
    12f8:	20001044 	andcs	r1, r0, r4, asr #32
    12fc:	20000000 	andcs	r0, r0, r0
    1300:	00000f2d 	andeq	r0, r0, sp, lsr #30
    1304:	20000040 	andcs	r0, r0, r0, asr #32

00001308 <task_enter_critical>:
    1308:	b580      	push	{r7, lr}
    130a:	b082      	sub	sp, #8
    130c:	af00      	add	r7, sp, #0
    130e:	f7ff fdfa 	bl	f06 <get_primask>
    1312:	6078      	str	r0, [r7, #4]
    1314:	f7ff fdfd 	bl	f12 <disable_irq>
    1318:	687b      	ldr	r3, [r7, #4]
    131a:	4618      	mov	r0, r3
    131c:	3708      	adds	r7, #8
    131e:	46bd      	mov	sp, r7
    1320:	bd80      	pop	{r7, pc}
    1322:	bf00      	nop

00001324 <task_exit_critical>:
    1324:	b580      	push	{r7, lr}
    1326:	b082      	sub	sp, #8
    1328:	af00      	add	r7, sp, #0
    132a:	6078      	str	r0, [r7, #4]
    132c:	6878      	ldr	r0, [r7, #4]
    132e:	f7ff fded 	bl	f0c <set_primask>
    1332:	f7ff fdf0 	bl	f16 <enable_irq>
    1336:	3708      	adds	r7, #8
    1338:	46bd      	mov	sp, r7
    133a:	bd80      	pop	{r7, pc}

0000133c <task_sched_disable>:
    133c:	b580      	push	{r7, lr}
    133e:	b082      	sub	sp, #8
    1340:	af00      	add	r7, sp, #0
    1342:	f7ff ffe1 	bl	1308 <task_enter_critical>
    1346:	6078      	str	r0, [r7, #4]
    1348:	4b07      	ldr	r3, [pc, #28]	; (1368 <task_sched_disable+0x2c>)
    134a:	781b      	ldrb	r3, [r3, #0]
    134c:	2bff      	cmp	r3, #255	; 0xff
    134e:	d005      	beq.n	135c <task_sched_disable+0x20>
    1350:	4b05      	ldr	r3, [pc, #20]	; (1368 <task_sched_disable+0x2c>)
    1352:	781b      	ldrb	r3, [r3, #0]
    1354:	3301      	adds	r3, #1
    1356:	b2da      	uxtb	r2, r3
    1358:	4b03      	ldr	r3, [pc, #12]	; (1368 <task_sched_disable+0x2c>)
    135a:	701a      	strb	r2, [r3, #0]
    135c:	6878      	ldr	r0, [r7, #4]
    135e:	f7ff ffe1 	bl	1324 <task_exit_critical>
    1362:	3708      	adds	r7, #8
    1364:	46bd      	mov	sp, r7
    1366:	bd80      	pop	{r7, pc}
    1368:	20001044 	andcs	r1, r0, r4, asr #32

0000136c <task_sched_enable>:
    136c:	b580      	push	{r7, lr}
    136e:	b082      	sub	sp, #8
    1370:	af00      	add	r7, sp, #0
    1372:	f7ff ffc9 	bl	1308 <task_enter_critical>
    1376:	6078      	str	r0, [r7, #4]
    1378:	4b0a      	ldr	r3, [pc, #40]	; (13a4 <task_sched_enable+0x38>)
    137a:	781b      	ldrb	r3, [r3, #0]
    137c:	2b00      	cmp	r3, #0
    137e:	d00b      	beq.n	1398 <task_sched_enable+0x2c>
    1380:	4b08      	ldr	r3, [pc, #32]	; (13a4 <task_sched_enable+0x38>)
    1382:	781b      	ldrb	r3, [r3, #0]
    1384:	3b01      	subs	r3, #1
    1386:	b2da      	uxtb	r2, r3
    1388:	4b06      	ldr	r3, [pc, #24]	; (13a4 <task_sched_enable+0x38>)
    138a:	701a      	strb	r2, [r3, #0]
    138c:	4b05      	ldr	r3, [pc, #20]	; (13a4 <task_sched_enable+0x38>)
    138e:	781b      	ldrb	r3, [r3, #0]
    1390:	2b00      	cmp	r3, #0
    1392:	d101      	bne.n	1398 <task_sched_enable+0x2c>
    1394:	f7ff fe88 	bl	10a8 <task_sched>
    1398:	6878      	ldr	r0, [r7, #4]
    139a:	f7ff ffc3 	bl	1324 <task_exit_critical>
    139e:	3708      	adds	r7, #8
    13a0:	46bd      	mov	sp, r7
    13a2:	bd80      	pop	{r7, pc}
    13a4:	20001044 	andcs	r1, r0, r4, asr #32

000013a8 <task_highest_ready>:
    13a8:	b580      	push	{r7, lr}
    13aa:	b082      	sub	sp, #8
    13ac:	af00      	add	r7, sp, #0
    13ae:	480a      	ldr	r0, [pc, #40]	; (13d8 <task_highest_ready+0x30>)
    13b0:	f000 fa42 	bl	1838 <bitmap_get_first_set>
    13b4:	6078      	str	r0, [r7, #4]
    13b6:	687a      	ldr	r2, [r7, #4]
    13b8:	4613      	mov	r3, r2
    13ba:	005b      	lsls	r3, r3, #1
    13bc:	4413      	add	r3, r2
    13be:	009b      	lsls	r3, r3, #2
    13c0:	4a06      	ldr	r2, [pc, #24]	; (13dc <task_highest_ready+0x34>)
    13c2:	4413      	add	r3, r2
    13c4:	4618      	mov	r0, r3
    13c6:	f000 fab7 	bl	1938 <list_head>
    13ca:	6038      	str	r0, [r7, #0]
    13cc:	683b      	ldr	r3, [r7, #0]
    13ce:	3b18      	subs	r3, #24
    13d0:	4618      	mov	r0, r3
    13d2:	3708      	adds	r7, #8
    13d4:	46bd      	mov	sp, r7
    13d6:	bd80      	pop	{r7, pc}
    13d8:	20001048 	andcs	r1, r0, r8, asr #32
    13dc:	20005958 	andcs	r5, r0, r8, asr r9

000013e0 <task_ready>:
    13e0:	b580      	push	{r7, lr}
    13e2:	b082      	sub	sp, #8
    13e4:	af00      	add	r7, sp, #0
    13e6:	6078      	str	r0, [r7, #4]
    13e8:	687b      	ldr	r3, [r7, #4]
    13ea:	689a      	ldr	r2, [r3, #8]
    13ec:	4613      	mov	r3, r2
    13ee:	005b      	lsls	r3, r3, #1
    13f0:	4413      	add	r3, r2
    13f2:	009b      	lsls	r3, r3, #2
    13f4:	4a08      	ldr	r2, [pc, #32]	; (1418 <task_ready+0x38>)
    13f6:	441a      	add	r2, r3
    13f8:	687b      	ldr	r3, [r7, #4]
    13fa:	3318      	adds	r3, #24
    13fc:	4610      	mov	r0, r2
    13fe:	4619      	mov	r1, r3
    1400:	f000 fb50 	bl	1aa4 <list_append_last>
    1404:	687b      	ldr	r3, [r7, #4]
    1406:	689b      	ldr	r3, [r3, #8]
    1408:	4804      	ldr	r0, [pc, #16]	; (141c <task_ready+0x3c>)
    140a:	4619      	mov	r1, r3
    140c:	f000 f9ec 	bl	17e8 <bitmap_set>
    1410:	3708      	adds	r7, #8
    1412:	46bd      	mov	sp, r7
    1414:	bd80      	pop	{r7, pc}
    1416:	bf00      	nop
    1418:	20005958 	andcs	r5, r0, r8, asr r9
    141c:	20001048 	andcs	r1, r0, r8, asr #32

00001420 <task_unready>:
    1420:	b580      	push	{r7, lr}
    1422:	b082      	sub	sp, #8
    1424:	af00      	add	r7, sp, #0
    1426:	6078      	str	r0, [r7, #4]
    1428:	687b      	ldr	r3, [r7, #4]
    142a:	689a      	ldr	r2, [r3, #8]
    142c:	4613      	mov	r3, r2
    142e:	005b      	lsls	r3, r3, #1
    1430:	4413      	add	r3, r2
    1432:	009b      	lsls	r3, r3, #2
    1434:	4a0f      	ldr	r2, [pc, #60]	; (1474 <task_unready+0x54>)
    1436:	441a      	add	r2, r3
    1438:	687b      	ldr	r3, [r7, #4]
    143a:	3318      	adds	r3, #24
    143c:	4610      	mov	r0, r2
    143e:	4619      	mov	r1, r3
    1440:	f000 fb90 	bl	1b64 <list_remove>
    1444:	687b      	ldr	r3, [r7, #4]
    1446:	689a      	ldr	r2, [r3, #8]
    1448:	4613      	mov	r3, r2
    144a:	005b      	lsls	r3, r3, #1
    144c:	4413      	add	r3, r2
    144e:	009b      	lsls	r3, r3, #2
    1450:	4a08      	ldr	r2, [pc, #32]	; (1474 <task_unready+0x54>)
    1452:	4413      	add	r3, r2
    1454:	4618      	mov	r0, r3
    1456:	f000 fa5b 	bl	1910 <list_count>
    145a:	4603      	mov	r3, r0
    145c:	2b00      	cmp	r3, #0
    145e:	d105      	bne.n	146c <task_unready+0x4c>
    1460:	687b      	ldr	r3, [r7, #4]
    1462:	689b      	ldr	r3, [r3, #8]
    1464:	4804      	ldr	r0, [pc, #16]	; (1478 <task_unready+0x58>)
    1466:	4619      	mov	r1, r3
    1468:	f000 f9d2 	bl	1810 <bitmap_clear>
    146c:	3708      	adds	r7, #8
    146e:	46bd      	mov	sp, r7
    1470:	bd80      	pop	{r7, pc}
    1472:	bf00      	nop
    1474:	20005958 	andcs	r5, r0, r8, asr r9
    1478:	20001048 	andcs	r1, r0, r8, asr #32

0000147c <task_delay_wait>:
    147c:	b580      	push	{r7, lr}
    147e:	b082      	sub	sp, #8
    1480:	af00      	add	r7, sp, #0
    1482:	6078      	str	r0, [r7, #4]
    1484:	6039      	str	r1, [r7, #0]
    1486:	687b      	ldr	r3, [r7, #4]
    1488:	683a      	ldr	r2, [r7, #0]
    148a:	605a      	str	r2, [r3, #4]
    148c:	687b      	ldr	r3, [r7, #4]
    148e:	330c      	adds	r3, #12
    1490:	4806      	ldr	r0, [pc, #24]	; (14ac <task_delay_wait+0x30>)
    1492:	4619      	mov	r1, r3
    1494:	f000 fadc 	bl	1a50 <list_insert_head>
    1498:	687b      	ldr	r3, [r7, #4]
    149a:	695b      	ldr	r3, [r3, #20]
    149c:	f043 0202 	orr.w	r2, r3, #2
    14a0:	687b      	ldr	r3, [r7, #4]
    14a2:	615a      	str	r2, [r3, #20]
    14a4:	3708      	adds	r7, #8
    14a6:	46bd      	mov	sp, r7
    14a8:	bd80      	pop	{r7, pc}
    14aa:	bf00      	nop
    14ac:	2000104c 	andcs	r1, r0, ip, asr #32

000014b0 <task_delay_wakeup>:
    14b0:	b580      	push	{r7, lr}
    14b2:	b082      	sub	sp, #8
    14b4:	af00      	add	r7, sp, #0
    14b6:	6078      	str	r0, [r7, #4]
    14b8:	687b      	ldr	r3, [r7, #4]
    14ba:	330c      	adds	r3, #12
    14bc:	4806      	ldr	r0, [pc, #24]	; (14d8 <task_delay_wakeup+0x28>)
    14be:	4619      	mov	r1, r3
    14c0:	f000 fb50 	bl	1b64 <list_remove>
    14c4:	687b      	ldr	r3, [r7, #4]
    14c6:	695b      	ldr	r3, [r3, #20]
    14c8:	f023 0202 	bic.w	r2, r3, #2
    14cc:	687b      	ldr	r3, [r7, #4]
    14ce:	615a      	str	r2, [r3, #20]
    14d0:	3708      	adds	r7, #8
    14d2:	46bd      	mov	sp, r7
    14d4:	bd80      	pop	{r7, pc}
    14d6:	bf00      	nop
    14d8:	2000104c 	andcs	r1, r0, ip, asr #32

000014dc <task_suspend>:
    14dc:	b580      	push	{r7, lr}
    14de:	b084      	sub	sp, #16
    14e0:	af00      	add	r7, sp, #0
    14e2:	6078      	str	r0, [r7, #4]
    14e4:	f7ff ff10 	bl	1308 <task_enter_critical>
    14e8:	60f8      	str	r0, [r7, #12]
    14ea:	687b      	ldr	r3, [r7, #4]
    14ec:	695b      	ldr	r3, [r3, #20]
    14ee:	f003 0302 	and.w	r3, r3, #2
    14f2:	2b00      	cmp	r3, #0
    14f4:	d116      	bne.n	1524 <task_suspend+0x48>
    14f6:	687b      	ldr	r3, [r7, #4]
    14f8:	6a5b      	ldr	r3, [r3, #36]	; 0x24
    14fa:	1c59      	adds	r1, r3, #1
    14fc:	687a      	ldr	r2, [r7, #4]
    14fe:	6251      	str	r1, [r2, #36]	; 0x24
    1500:	2b00      	cmp	r3, #0
    1502:	d10f      	bne.n	1524 <task_suspend+0x48>
    1504:	687b      	ldr	r3, [r7, #4]
    1506:	695b      	ldr	r3, [r3, #20]
    1508:	f043 0204 	orr.w	r2, r3, #4
    150c:	687b      	ldr	r3, [r7, #4]
    150e:	615a      	str	r2, [r3, #20]
    1510:	6878      	ldr	r0, [r7, #4]
    1512:	f7ff ff85 	bl	1420 <task_unready>
    1516:	4b06      	ldr	r3, [pc, #24]	; (1530 <task_suspend+0x54>)
    1518:	681b      	ldr	r3, [r3, #0]
    151a:	687a      	ldr	r2, [r7, #4]
    151c:	429a      	cmp	r2, r3
    151e:	d101      	bne.n	1524 <task_suspend+0x48>
    1520:	f7ff fdc2 	bl	10a8 <task_sched>
    1524:	68f8      	ldr	r0, [r7, #12]
    1526:	f7ff fefd 	bl	1324 <task_exit_critical>
    152a:	3710      	adds	r7, #16
    152c:	46bd      	mov	sp, r7
    152e:	bd80      	pop	{r7, pc}
    1530:	20005954 	andcs	r5, r0, r4, asr r9

00001534 <task_resume>:
    1534:	b580      	push	{r7, lr}
    1536:	b084      	sub	sp, #16
    1538:	af00      	add	r7, sp, #0
    153a:	6078      	str	r0, [r7, #4]
    153c:	f7ff fee4 	bl	1308 <task_enter_critical>
    1540:	60f8      	str	r0, [r7, #12]
    1542:	687b      	ldr	r3, [r7, #4]
    1544:	695b      	ldr	r3, [r3, #20]
    1546:	f003 0304 	and.w	r3, r3, #4
    154a:	2b00      	cmp	r3, #0
    154c:	d013      	beq.n	1576 <task_resume+0x42>
    154e:	687b      	ldr	r3, [r7, #4]
    1550:	6a5b      	ldr	r3, [r3, #36]	; 0x24
    1552:	1e5a      	subs	r2, r3, #1
    1554:	687b      	ldr	r3, [r7, #4]
    1556:	625a      	str	r2, [r3, #36]	; 0x24
    1558:	687b      	ldr	r3, [r7, #4]
    155a:	6a5b      	ldr	r3, [r3, #36]	; 0x24
    155c:	2b00      	cmp	r3, #0
    155e:	d10a      	bne.n	1576 <task_resume+0x42>
    1560:	687b      	ldr	r3, [r7, #4]
    1562:	695b      	ldr	r3, [r3, #20]
    1564:	f023 0204 	bic.w	r2, r3, #4
    1568:	687b      	ldr	r3, [r7, #4]
    156a:	615a      	str	r2, [r3, #20]
    156c:	6878      	ldr	r0, [r7, #4]
    156e:	f7ff ff37 	bl	13e0 <task_ready>
    1572:	f7ff fd99 	bl	10a8 <task_sched>
    1576:	68f8      	ldr	r0, [r7, #12]
    1578:	f7ff fed4 	bl	1324 <task_exit_critical>
    157c:	3710      	adds	r7, #16
    157e:	46bd      	mov	sp, r7
    1580:	bd80      	pop	{r7, pc}
    1582:	bf00      	nop

00001584 <task_remove_from_prio_table>:
    1584:	b580      	push	{r7, lr}
    1586:	b082      	sub	sp, #8
    1588:	af00      	add	r7, sp, #0
    158a:	6078      	str	r0, [r7, #4]
    158c:	687b      	ldr	r3, [r7, #4]
    158e:	689a      	ldr	r2, [r3, #8]
    1590:	4613      	mov	r3, r2
    1592:	005b      	lsls	r3, r3, #1
    1594:	4413      	add	r3, r2
    1596:	009b      	lsls	r3, r3, #2
    1598:	4a0f      	ldr	r2, [pc, #60]	; (15d8 <task_remove_from_prio_table+0x54>)
    159a:	441a      	add	r2, r3
    159c:	687b      	ldr	r3, [r7, #4]
    159e:	3318      	adds	r3, #24
    15a0:	4610      	mov	r0, r2
    15a2:	4619      	mov	r1, r3
    15a4:	f000 fade 	bl	1b64 <list_remove>
    15a8:	687b      	ldr	r3, [r7, #4]
    15aa:	689a      	ldr	r2, [r3, #8]
    15ac:	4613      	mov	r3, r2
    15ae:	005b      	lsls	r3, r3, #1
    15b0:	4413      	add	r3, r2
    15b2:	009b      	lsls	r3, r3, #2
    15b4:	4a08      	ldr	r2, [pc, #32]	; (15d8 <task_remove_from_prio_table+0x54>)
    15b6:	4413      	add	r3, r2
    15b8:	4618      	mov	r0, r3
    15ba:	f000 f9a9 	bl	1910 <list_count>
    15be:	4603      	mov	r3, r0
    15c0:	2b00      	cmp	r3, #0
    15c2:	d105      	bne.n	15d0 <task_remove_from_prio_table+0x4c>
    15c4:	687b      	ldr	r3, [r7, #4]
    15c6:	689b      	ldr	r3, [r3, #8]
    15c8:	4804      	ldr	r0, [pc, #16]	; (15dc <task_remove_from_prio_table+0x58>)
    15ca:	4619      	mov	r1, r3
    15cc:	f000 f920 	bl	1810 <bitmap_clear>
    15d0:	3708      	adds	r7, #8
    15d2:	46bd      	mov	sp, r7
    15d4:	bd80      	pop	{r7, pc}
    15d6:	bf00      	nop
    15d8:	20005958 	andcs	r5, r0, r8, asr r9
    15dc:	20001048 	andcs	r1, r0, r8, asr #32

000015e0 <task_remove_from_delay_list>:
    15e0:	b580      	push	{r7, lr}
    15e2:	b082      	sub	sp, #8
    15e4:	af00      	add	r7, sp, #0
    15e6:	6078      	str	r0, [r7, #4]
    15e8:	687b      	ldr	r3, [r7, #4]
    15ea:	330c      	adds	r3, #12
    15ec:	4803      	ldr	r0, [pc, #12]	; (15fc <task_remove_from_delay_list+0x1c>)
    15ee:	4619      	mov	r1, r3
    15f0:	f000 fab8 	bl	1b64 <list_remove>
    15f4:	3708      	adds	r7, #8
    15f6:	46bd      	mov	sp, r7
    15f8:	bd80      	pop	{r7, pc}
    15fa:	bf00      	nop
    15fc:	2000104c 	andcs	r1, r0, ip, asr #32

00001600 <task_set_clean_callbk>:
    1600:	b480      	push	{r7}
    1602:	b085      	sub	sp, #20
    1604:	af00      	add	r7, sp, #0
    1606:	60f8      	str	r0, [r7, #12]
    1608:	60b9      	str	r1, [r7, #8]
    160a:	607a      	str	r2, [r7, #4]
    160c:	68fb      	ldr	r3, [r7, #12]
    160e:	68ba      	ldr	r2, [r7, #8]
    1610:	629a      	str	r2, [r3, #40]	; 0x28
    1612:	68fb      	ldr	r3, [r7, #12]
    1614:	687a      	ldr	r2, [r7, #4]
    1616:	62da      	str	r2, [r3, #44]	; 0x2c
    1618:	3714      	adds	r7, #20
    161a:	46bd      	mov	sp, r7
    161c:	f85d 7b04 	ldr.w	r7, [sp], #4
    1620:	4770      	bx	lr
    1622:	bf00      	nop

00001624 <task_force_delete>:
    1624:	b580      	push	{r7, lr}
    1626:	b084      	sub	sp, #16
    1628:	af00      	add	r7, sp, #0
    162a:	6078      	str	r0, [r7, #4]
    162c:	f7ff fe6c 	bl	1308 <task_enter_critical>
    1630:	60f8      	str	r0, [r7, #12]
    1632:	687b      	ldr	r3, [r7, #4]
    1634:	695b      	ldr	r3, [r3, #20]
    1636:	f003 0302 	and.w	r3, r3, #2
    163a:	2b00      	cmp	r3, #0
    163c:	d003      	beq.n	1646 <task_force_delete+0x22>
    163e:	6878      	ldr	r0, [r7, #4]
    1640:	f7ff ffce 	bl	15e0 <task_remove_from_delay_list>
    1644:	e008      	b.n	1658 <task_force_delete+0x34>
    1646:	687b      	ldr	r3, [r7, #4]
    1648:	695b      	ldr	r3, [r3, #20]
    164a:	f003 0304 	and.w	r3, r3, #4
    164e:	2b00      	cmp	r3, #0
    1650:	d102      	bne.n	1658 <task_force_delete+0x34>
    1652:	6878      	ldr	r0, [r7, #4]
    1654:	f7ff ff96 	bl	1584 <task_remove_from_prio_table>
    1658:	687b      	ldr	r3, [r7, #4]
    165a:	6a9b      	ldr	r3, [r3, #40]	; 0x28
    165c:	2b00      	cmp	r3, #0
    165e:	d005      	beq.n	166c <task_force_delete+0x48>
    1660:	687b      	ldr	r3, [r7, #4]
    1662:	6a9b      	ldr	r3, [r3, #40]	; 0x28
    1664:	687a      	ldr	r2, [r7, #4]
    1666:	6ad2      	ldr	r2, [r2, #44]	; 0x2c
    1668:	4610      	mov	r0, r2
    166a:	4798      	blx	r3
    166c:	4b06      	ldr	r3, [pc, #24]	; (1688 <task_force_delete+0x64>)
    166e:	681a      	ldr	r2, [r3, #0]
    1670:	687b      	ldr	r3, [r7, #4]
    1672:	429a      	cmp	r2, r3
    1674:	d101      	bne.n	167a <task_force_delete+0x56>
    1676:	f7ff fd17 	bl	10a8 <task_sched>
    167a:	68f8      	ldr	r0, [r7, #12]
    167c:	f7ff fe52 	bl	1324 <task_exit_critical>
    1680:	3710      	adds	r7, #16
    1682:	46bd      	mov	sp, r7
    1684:	bd80      	pop	{r7, pc}
    1686:	bf00      	nop
    1688:	20005954 	andcs	r5, r0, r4, asr r9

0000168c <task_request_delete>:
    168c:	b580      	push	{r7, lr}
    168e:	b084      	sub	sp, #16
    1690:	af00      	add	r7, sp, #0
    1692:	6078      	str	r0, [r7, #4]
    1694:	f7ff fe38 	bl	1308 <task_enter_critical>
    1698:	60f8      	str	r0, [r7, #12]
    169a:	687b      	ldr	r3, [r7, #4]
    169c:	2201      	movs	r2, #1
    169e:	f883 2030 	strb.w	r2, [r3, #48]	; 0x30
    16a2:	68f8      	ldr	r0, [r7, #12]
    16a4:	f7ff fe3e 	bl	1324 <task_exit_critical>
    16a8:	3710      	adds	r7, #16
    16aa:	46bd      	mov	sp, r7
    16ac:	bd80      	pop	{r7, pc}
    16ae:	bf00      	nop

000016b0 <is_task_request_delete>:
    16b0:	b580      	push	{r7, lr}
    16b2:	b082      	sub	sp, #8
    16b4:	af00      	add	r7, sp, #0
    16b6:	f7ff fe27 	bl	1308 <task_enter_critical>
    16ba:	6078      	str	r0, [r7, #4]
    16bc:	4b06      	ldr	r3, [pc, #24]	; (16d8 <is_task_request_delete+0x28>)
    16be:	681b      	ldr	r3, [r3, #0]
    16c0:	f893 3030 	ldrb.w	r3, [r3, #48]	; 0x30
    16c4:	70fb      	strb	r3, [r7, #3]
    16c6:	6878      	ldr	r0, [r7, #4]
    16c8:	f7ff fe2c 	bl	1324 <task_exit_critical>
    16cc:	78fb      	ldrb	r3, [r7, #3]
    16ce:	4618      	mov	r0, r3
    16d0:	3708      	adds	r7, #8
    16d2:	46bd      	mov	sp, r7
    16d4:	bd80      	pop	{r7, pc}
    16d6:	bf00      	nop
    16d8:	20005954 	andcs	r5, r0, r4, asr r9

000016dc <task_delete_self>:
    16dc:	b580      	push	{r7, lr}
    16de:	b082      	sub	sp, #8
    16e0:	af00      	add	r7, sp, #0
    16e2:	f7ff fe11 	bl	1308 <task_enter_critical>
    16e6:	4603      	mov	r3, r0
    16e8:	71fb      	strb	r3, [r7, #7]
    16ea:	4b0d      	ldr	r3, [pc, #52]	; (1720 <task_delete_self+0x44>)
    16ec:	681b      	ldr	r3, [r3, #0]
    16ee:	4618      	mov	r0, r3
    16f0:	f7ff ff48 	bl	1584 <task_remove_from_prio_table>
    16f4:	4b0a      	ldr	r3, [pc, #40]	; (1720 <task_delete_self+0x44>)
    16f6:	681b      	ldr	r3, [r3, #0]
    16f8:	6a9b      	ldr	r3, [r3, #40]	; 0x28
    16fa:	2b00      	cmp	r3, #0
    16fc:	d007      	beq.n	170e <task_delete_self+0x32>
    16fe:	4b08      	ldr	r3, [pc, #32]	; (1720 <task_delete_self+0x44>)
    1700:	681b      	ldr	r3, [r3, #0]
    1702:	6a9b      	ldr	r3, [r3, #40]	; 0x28
    1704:	4a06      	ldr	r2, [pc, #24]	; (1720 <task_delete_self+0x44>)
    1706:	6812      	ldr	r2, [r2, #0]
    1708:	6ad2      	ldr	r2, [r2, #44]	; 0x2c
    170a:	4610      	mov	r0, r2
    170c:	4798      	blx	r3
    170e:	f7ff fccb 	bl	10a8 <task_sched>
    1712:	79fb      	ldrb	r3, [r7, #7]
    1714:	4618      	mov	r0, r3
    1716:	f7ff fe05 	bl	1324 <task_exit_critical>
    171a:	3708      	adds	r7, #8
    171c:	46bd      	mov	sp, r7
    171e:	bd80      	pop	{r7, pc}
    1720:	20005954 	andcs	r5, r0, r4, asr r9

00001724 <task_get_info>:
    1724:	b580      	push	{r7, lr}
    1726:	b084      	sub	sp, #16
    1728:	af00      	add	r7, sp, #0
    172a:	6078      	str	r0, [r7, #4]
    172c:	6039      	str	r1, [r7, #0]
    172e:	f7ff fdeb 	bl	1308 <task_enter_critical>
    1732:	60f8      	str	r0, [r7, #12]
    1734:	687b      	ldr	r3, [r7, #4]
    1736:	685a      	ldr	r2, [r3, #4]
    1738:	683b      	ldr	r3, [r7, #0]
    173a:	601a      	str	r2, [r3, #0]
    173c:	687b      	ldr	r3, [r7, #4]
    173e:	689a      	ldr	r2, [r3, #8]
    1740:	683b      	ldr	r3, [r7, #0]
    1742:	605a      	str	r2, [r3, #4]
    1744:	687b      	ldr	r3, [r7, #4]
    1746:	695a      	ldr	r2, [r3, #20]
    1748:	683b      	ldr	r3, [r7, #0]
    174a:	609a      	str	r2, [r3, #8]
    174c:	687b      	ldr	r3, [r7, #4]
    174e:	6a1a      	ldr	r2, [r3, #32]
    1750:	683b      	ldr	r3, [r7, #0]
    1752:	60da      	str	r2, [r3, #12]
    1754:	687b      	ldr	r3, [r7, #4]
    1756:	6a5a      	ldr	r2, [r3, #36]	; 0x24
    1758:	683b      	ldr	r3, [r7, #0]
    175a:	611a      	str	r2, [r3, #16]
    175c:	68f8      	ldr	r0, [r7, #12]
    175e:	f7ff fde1 	bl	1324 <task_exit_critical>
    1762:	3710      	adds	r7, #16
    1764:	46bd      	mov	sp, r7
    1766:	bd80      	pop	{r7, pc}

00001768 <dump_task_info>:
    1768:	b580      	push	{r7, lr}
    176a:	b082      	sub	sp, #8
    176c:	af00      	add	r7, sp, #0
    176e:	6078      	str	r0, [r7, #4]
    1770:	480e      	ldr	r0, [pc, #56]	; (17ac <dump_task_info+0x44>)
    1772:	f7ff f933 	bl	9dc <printk>
    1776:	687b      	ldr	r3, [r7, #4]
    1778:	681b      	ldr	r3, [r3, #0]
    177a:	480d      	ldr	r0, [pc, #52]	; (17b0 <dump_task_info+0x48>)
    177c:	4619      	mov	r1, r3
    177e:	f7ff f92d 	bl	9dc <printk>
    1782:	687b      	ldr	r3, [r7, #4]
    1784:	685b      	ldr	r3, [r3, #4]
    1786:	480b      	ldr	r0, [pc, #44]	; (17b4 <dump_task_info+0x4c>)
    1788:	4619      	mov	r1, r3
    178a:	f7ff f927 	bl	9dc <printk>
    178e:	687b      	ldr	r3, [r7, #4]
    1790:	68db      	ldr	r3, [r3, #12]
    1792:	4809      	ldr	r0, [pc, #36]	; (17b8 <dump_task_info+0x50>)
    1794:	4619      	mov	r1, r3
    1796:	f7ff f921 	bl	9dc <printk>
    179a:	687b      	ldr	r3, [r7, #4]
    179c:	691b      	ldr	r3, [r3, #16]
    179e:	4807      	ldr	r0, [pc, #28]	; (17bc <dump_task_info+0x54>)
    17a0:	4619      	mov	r1, r3
    17a2:	f7ff f91b 	bl	9dc <printk>
    17a6:	3708      	adds	r7, #8
    17a8:	46bd      	mov	sp, r7
    17aa:	bd80      	pop	{r7, pc}
    17ac:	00002574 	andeq	r2, r0, r4, ror r5
    17b0:	00002580 	andeq	r2, r0, r0, lsl #11
    17b4:	00002590 	muleq	r0, r0, r5
    17b8:	0000259c 	muleq	r0, ip, r5
    17bc:	000025a8 	andeq	r2, r0, r8, lsr #11

000017c0 <bitmap_init>:
    17c0:	b480      	push	{r7}
    17c2:	b083      	sub	sp, #12
    17c4:	af00      	add	r7, sp, #0
    17c6:	6078      	str	r0, [r7, #4]
    17c8:	687b      	ldr	r3, [r7, #4]
    17ca:	2200      	movs	r2, #0
    17cc:	601a      	str	r2, [r3, #0]
    17ce:	370c      	adds	r7, #12
    17d0:	46bd      	mov	sp, r7
    17d2:	f85d 7b04 	ldr.w	r7, [sp], #4
    17d6:	4770      	bx	lr

000017d8 <bitmap_count>:
    17d8:	b480      	push	{r7}
    17da:	af00      	add	r7, sp, #0
    17dc:	2320      	movs	r3, #32
    17de:	4618      	mov	r0, r3
    17e0:	46bd      	mov	sp, r7
    17e2:	f85d 7b04 	ldr.w	r7, [sp], #4
    17e6:	4770      	bx	lr

000017e8 <bitmap_set>:
    17e8:	b480      	push	{r7}
    17ea:	b083      	sub	sp, #12
    17ec:	af00      	add	r7, sp, #0
    17ee:	6078      	str	r0, [r7, #4]
    17f0:	6039      	str	r1, [r7, #0]
    17f2:	687b      	ldr	r3, [r7, #4]
    17f4:	681b      	ldr	r3, [r3, #0]
    17f6:	683a      	ldr	r2, [r7, #0]
    17f8:	2101      	movs	r1, #1
    17fa:	fa01 f202 	lsl.w	r2, r1, r2
    17fe:	431a      	orrs	r2, r3
    1800:	687b      	ldr	r3, [r7, #4]
    1802:	601a      	str	r2, [r3, #0]
    1804:	370c      	adds	r7, #12
    1806:	46bd      	mov	sp, r7
    1808:	f85d 7b04 	ldr.w	r7, [sp], #4
    180c:	4770      	bx	lr
    180e:	bf00      	nop

00001810 <bitmap_clear>:
    1810:	b480      	push	{r7}
    1812:	b083      	sub	sp, #12
    1814:	af00      	add	r7, sp, #0
    1816:	6078      	str	r0, [r7, #4]
    1818:	6039      	str	r1, [r7, #0]
    181a:	687b      	ldr	r3, [r7, #4]
    181c:	681b      	ldr	r3, [r3, #0]
    181e:	683a      	ldr	r2, [r7, #0]
    1820:	2101      	movs	r1, #1
    1822:	fa01 f202 	lsl.w	r2, r1, r2
    1826:	43d2      	mvns	r2, r2
    1828:	401a      	ands	r2, r3
    182a:	687b      	ldr	r3, [r7, #4]
    182c:	601a      	str	r2, [r3, #0]
    182e:	370c      	adds	r7, #12
    1830:	46bd      	mov	sp, r7
    1832:	f85d 7b04 	ldr.w	r7, [sp], #4
    1836:	4770      	bx	lr

00001838 <bitmap_get_first_set>:
    1838:	b580      	push	{r7, lr}
    183a:	b084      	sub	sp, #16
    183c:	af00      	add	r7, sp, #0
    183e:	6078      	str	r0, [r7, #4]
    1840:	2320      	movs	r3, #32
    1842:	60fb      	str	r3, [r7, #12]
    1844:	687b      	ldr	r3, [r7, #4]
    1846:	681b      	ldr	r3, [r3, #0]
    1848:	b2db      	uxtb	r3, r3
    184a:	2b00      	cmp	r3, #0
    184c:	d006      	beq.n	185c <bitmap_get_first_set+0x24>
    184e:	687b      	ldr	r3, [r7, #4]
    1850:	681b      	ldr	r3, [r3, #0]
    1852:	b2db      	uxtb	r3, r3
    1854:	4a1b      	ldr	r2, [pc, #108]	; (18c4 <bitmap_get_first_set+0x8c>)
    1856:	5cd3      	ldrb	r3, [r2, r3]
    1858:	60fb      	str	r3, [r7, #12]
    185a:	e02e      	b.n	18ba <bitmap_get_first_set+0x82>
    185c:	687b      	ldr	r3, [r7, #4]
    185e:	681b      	ldr	r3, [r3, #0]
    1860:	f403 437f 	and.w	r3, r3, #65280	; 0xff00
    1864:	2b00      	cmp	r3, #0
    1866:	d008      	beq.n	187a <bitmap_get_first_set+0x42>
    1868:	687b      	ldr	r3, [r7, #4]
    186a:	681b      	ldr	r3, [r3, #0]
    186c:	0a1b      	lsrs	r3, r3, #8
    186e:	b2db      	uxtb	r3, r3
    1870:	4a14      	ldr	r2, [pc, #80]	; (18c4 <bitmap_get_first_set+0x8c>)
    1872:	5cd3      	ldrb	r3, [r2, r3]
    1874:	3308      	adds	r3, #8
    1876:	60fb      	str	r3, [r7, #12]
    1878:	e01f      	b.n	18ba <bitmap_get_first_set+0x82>
    187a:	687b      	ldr	r3, [r7, #4]
    187c:	681b      	ldr	r3, [r3, #0]
    187e:	f403 037f 	and.w	r3, r3, #16711680	; 0xff0000
    1882:	2b00      	cmp	r3, #0
    1884:	d008      	beq.n	1898 <bitmap_get_first_set+0x60>
    1886:	687b      	ldr	r3, [r7, #4]
    1888:	681b      	ldr	r3, [r3, #0]
    188a:	0c1b      	lsrs	r3, r3, #16
    188c:	b2db      	uxtb	r3, r3
    188e:	4a0d      	ldr	r2, [pc, #52]	; (18c4 <bitmap_get_first_set+0x8c>)
    1890:	5cd3      	ldrb	r3, [r2, r3]
    1892:	3310      	adds	r3, #16
    1894:	60fb      	str	r3, [r7, #12]
    1896:	e010      	b.n	18ba <bitmap_get_first_set+0x82>
    1898:	687b      	ldr	r3, [r7, #4]
    189a:	681b      	ldr	r3, [r3, #0]
    189c:	f003 437f 	and.w	r3, r3, #4278190080	; 0xff000000
    18a0:	2b00      	cmp	r3, #0
    18a2:	d007      	beq.n	18b4 <bitmap_get_first_set+0x7c>
    18a4:	687b      	ldr	r3, [r7, #4]
    18a6:	681b      	ldr	r3, [r3, #0]
    18a8:	0e1b      	lsrs	r3, r3, #24
    18aa:	4a06      	ldr	r2, [pc, #24]	; (18c4 <bitmap_get_first_set+0x8c>)
    18ac:	5cd3      	ldrb	r3, [r2, r3]
    18ae:	3318      	adds	r3, #24
    18b0:	60fb      	str	r3, [r7, #12]
    18b2:	e002      	b.n	18ba <bitmap_get_first_set+0x82>
    18b4:	f7ff ff90 	bl	17d8 <bitmap_count>
    18b8:	60f8      	str	r0, [r7, #12]
    18ba:	68fb      	ldr	r3, [r7, #12]
    18bc:	4618      	mov	r0, r3
    18be:	3710      	adds	r7, #16
    18c0:	46bd      	mov	sp, r7
    18c2:	bd80      	pop	{r7, pc}
    18c4:	000025d4 	ldrdeq	r2, [r0], -r4

000018c8 <list_node_init>:
    18c8:	b480      	push	{r7}
    18ca:	b083      	sub	sp, #12
    18cc:	af00      	add	r7, sp, #0
    18ce:	6078      	str	r0, [r7, #4]
    18d0:	687b      	ldr	r3, [r7, #4]
    18d2:	2b00      	cmp	r3, #0
    18d4:	d005      	beq.n	18e2 <list_node_init+0x1a>
    18d6:	687b      	ldr	r3, [r7, #4]
    18d8:	687a      	ldr	r2, [r7, #4]
    18da:	601a      	str	r2, [r3, #0]
    18dc:	687b      	ldr	r3, [r7, #4]
    18de:	687a      	ldr	r2, [r7, #4]
    18e0:	605a      	str	r2, [r3, #4]
    18e2:	370c      	adds	r7, #12
    18e4:	46bd      	mov	sp, r7
    18e6:	f85d 7b04 	ldr.w	r7, [sp], #4
    18ea:	4770      	bx	lr

000018ec <list_init>:
    18ec:	b580      	push	{r7, lr}
    18ee:	b082      	sub	sp, #8
    18f0:	af00      	add	r7, sp, #0
    18f2:	6078      	str	r0, [r7, #4]
    18f4:	687b      	ldr	r3, [r7, #4]
    18f6:	2b00      	cmp	r3, #0
    18f8:	d006      	beq.n	1908 <list_init+0x1c>
    18fa:	687b      	ldr	r3, [r7, #4]
    18fc:	2200      	movs	r2, #0
    18fe:	609a      	str	r2, [r3, #8]
    1900:	687b      	ldr	r3, [r7, #4]
    1902:	4618      	mov	r0, r3
    1904:	f7ff ffe0 	bl	18c8 <list_node_init>
    1908:	3708      	adds	r7, #8
    190a:	46bd      	mov	sp, r7
    190c:	bd80      	pop	{r7, pc}
    190e:	bf00      	nop

00001910 <list_count>:
    1910:	b480      	push	{r7}
    1912:	b085      	sub	sp, #20
    1914:	af00      	add	r7, sp, #0
    1916:	6078      	str	r0, [r7, #4]
    1918:	2300      	movs	r3, #0
    191a:	60fb      	str	r3, [r7, #12]
    191c:	687b      	ldr	r3, [r7, #4]
    191e:	2b00      	cmp	r3, #0
    1920:	d002      	beq.n	1928 <list_count+0x18>
    1922:	687b      	ldr	r3, [r7, #4]
    1924:	689b      	ldr	r3, [r3, #8]
    1926:	60fb      	str	r3, [r7, #12]
    1928:	68fb      	ldr	r3, [r7, #12]
    192a:	4618      	mov	r0, r3
    192c:	3714      	adds	r7, #20
    192e:	46bd      	mov	sp, r7
    1930:	f85d 7b04 	ldr.w	r7, [sp], #4
    1934:	4770      	bx	lr
    1936:	bf00      	nop

00001938 <list_head>:
    1938:	b480      	push	{r7}
    193a:	b085      	sub	sp, #20
    193c:	af00      	add	r7, sp, #0
    193e:	6078      	str	r0, [r7, #4]
    1940:	687b      	ldr	r3, [r7, #4]
    1942:	60bb      	str	r3, [r7, #8]
    1944:	2300      	movs	r3, #0
    1946:	60fb      	str	r3, [r7, #12]
    1948:	687b      	ldr	r3, [r7, #4]
    194a:	689b      	ldr	r3, [r3, #8]
    194c:	2b00      	cmp	r3, #0
    194e:	d002      	beq.n	1956 <list_head+0x1e>
    1950:	68bb      	ldr	r3, [r7, #8]
    1952:	685b      	ldr	r3, [r3, #4]
    1954:	60fb      	str	r3, [r7, #12]
    1956:	68fb      	ldr	r3, [r7, #12]
    1958:	4618      	mov	r0, r3
    195a:	3714      	adds	r7, #20
    195c:	46bd      	mov	sp, r7
    195e:	f85d 7b04 	ldr.w	r7, [sp], #4
    1962:	4770      	bx	lr

00001964 <list_tail>:
    1964:	b480      	push	{r7}
    1966:	b085      	sub	sp, #20
    1968:	af00      	add	r7, sp, #0
    196a:	6078      	str	r0, [r7, #4]
    196c:	687b      	ldr	r3, [r7, #4]
    196e:	60bb      	str	r3, [r7, #8]
    1970:	2300      	movs	r3, #0
    1972:	60fb      	str	r3, [r7, #12]
    1974:	687b      	ldr	r3, [r7, #4]
    1976:	689b      	ldr	r3, [r3, #8]
    1978:	2b00      	cmp	r3, #0
    197a:	d002      	beq.n	1982 <list_tail+0x1e>
    197c:	68bb      	ldr	r3, [r7, #8]
    197e:	681b      	ldr	r3, [r3, #0]
    1980:	60fb      	str	r3, [r7, #12]
    1982:	68fb      	ldr	r3, [r7, #12]
    1984:	4618      	mov	r0, r3
    1986:	3714      	adds	r7, #20
    1988:	46bd      	mov	sp, r7
    198a:	f85d 7b04 	ldr.w	r7, [sp], #4
    198e:	4770      	bx	lr

00001990 <node_prev>:
    1990:	b480      	push	{r7}
    1992:	b085      	sub	sp, #20
    1994:	af00      	add	r7, sp, #0
    1996:	6078      	str	r0, [r7, #4]
    1998:	2300      	movs	r3, #0
    199a:	60fb      	str	r3, [r7, #12]
    199c:	687b      	ldr	r3, [r7, #4]
    199e:	2b00      	cmp	r3, #0
    19a0:	d002      	beq.n	19a8 <node_prev+0x18>
    19a2:	687b      	ldr	r3, [r7, #4]
    19a4:	681b      	ldr	r3, [r3, #0]
    19a6:	60fb      	str	r3, [r7, #12]
    19a8:	68fb      	ldr	r3, [r7, #12]
    19aa:	4618      	mov	r0, r3
    19ac:	3714      	adds	r7, #20
    19ae:	46bd      	mov	sp, r7
    19b0:	f85d 7b04 	ldr.w	r7, [sp], #4
    19b4:	4770      	bx	lr
    19b6:	bf00      	nop

000019b8 <node_next>:
    19b8:	b480      	push	{r7}
    19ba:	b085      	sub	sp, #20
    19bc:	af00      	add	r7, sp, #0
    19be:	6078      	str	r0, [r7, #4]
    19c0:	2300      	movs	r3, #0
    19c2:	60fb      	str	r3, [r7, #12]
    19c4:	687b      	ldr	r3, [r7, #4]
    19c6:	2b00      	cmp	r3, #0
    19c8:	d002      	beq.n	19d0 <node_next+0x18>
    19ca:	687b      	ldr	r3, [r7, #4]
    19cc:	685b      	ldr	r3, [r3, #4]
    19ce:	60fb      	str	r3, [r7, #12]
    19d0:	68fb      	ldr	r3, [r7, #12]
    19d2:	4618      	mov	r0, r3
    19d4:	3714      	adds	r7, #20
    19d6:	46bd      	mov	sp, r7
    19d8:	f85d 7b04 	ldr.w	r7, [sp], #4
    19dc:	4770      	bx	lr
    19de:	bf00      	nop

000019e0 <list_remove_all>:
    19e0:	b480      	push	{r7}
    19e2:	b087      	sub	sp, #28
    19e4:	af00      	add	r7, sp, #0
    19e6:	6078      	str	r0, [r7, #4]
    19e8:	2300      	movs	r3, #0
    19ea:	60fb      	str	r3, [r7, #12]
    19ec:	2300      	movs	r3, #0
    19ee:	613b      	str	r3, [r7, #16]
    19f0:	2300      	movs	r3, #0
    19f2:	60bb      	str	r3, [r7, #8]
    19f4:	687b      	ldr	r3, [r7, #4]
    19f6:	2b00      	cmp	r3, #0
    19f8:	d100      	bne.n	19fc <list_remove_all+0x1c>
    19fa:	e022      	b.n	1a42 <list_remove_all+0x62>
    19fc:	687b      	ldr	r3, [r7, #4]
    19fe:	60fb      	str	r3, [r7, #12]
    1a00:	68fb      	ldr	r3, [r7, #12]
    1a02:	685b      	ldr	r3, [r3, #4]
    1a04:	613b      	str	r3, [r7, #16]
    1a06:	687b      	ldr	r3, [r7, #4]
    1a08:	689b      	ldr	r3, [r3, #8]
    1a0a:	617b      	str	r3, [r7, #20]
    1a0c:	e00d      	b.n	1a2a <list_remove_all+0x4a>
    1a0e:	693b      	ldr	r3, [r7, #16]
    1a10:	60bb      	str	r3, [r7, #8]
    1a12:	68bb      	ldr	r3, [r7, #8]
    1a14:	685b      	ldr	r3, [r3, #4]
    1a16:	613b      	str	r3, [r7, #16]
    1a18:	68bb      	ldr	r3, [r7, #8]
    1a1a:	68ba      	ldr	r2, [r7, #8]
    1a1c:	605a      	str	r2, [r3, #4]
    1a1e:	68bb      	ldr	r3, [r7, #8]
    1a20:	68ba      	ldr	r2, [r7, #8]
    1a22:	601a      	str	r2, [r3, #0]
    1a24:	697b      	ldr	r3, [r7, #20]
    1a26:	3b01      	subs	r3, #1
    1a28:	617b      	str	r3, [r7, #20]
    1a2a:	697b      	ldr	r3, [r7, #20]
    1a2c:	2b00      	cmp	r3, #0
    1a2e:	d1ee      	bne.n	1a0e <list_remove_all+0x2e>
    1a30:	68fb      	ldr	r3, [r7, #12]
    1a32:	68fa      	ldr	r2, [r7, #12]
    1a34:	601a      	str	r2, [r3, #0]
    1a36:	68fb      	ldr	r3, [r7, #12]
    1a38:	68fa      	ldr	r2, [r7, #12]
    1a3a:	605a      	str	r2, [r3, #4]
    1a3c:	687b      	ldr	r3, [r7, #4]
    1a3e:	2200      	movs	r2, #0
    1a40:	609a      	str	r2, [r3, #8]
    1a42:	bf00      	nop
    1a44:	371c      	adds	r7, #28
    1a46:	46bd      	mov	sp, r7
    1a48:	f85d 7b04 	ldr.w	r7, [sp], #4
    1a4c:	4770      	bx	lr
    1a4e:	bf00      	nop

00001a50 <list_insert_head>:
    1a50:	b480      	push	{r7}
    1a52:	b085      	sub	sp, #20
    1a54:	af00      	add	r7, sp, #0
    1a56:	6078      	str	r0, [r7, #4]
    1a58:	6039      	str	r1, [r7, #0]
    1a5a:	2300      	movs	r3, #0
    1a5c:	60fb      	str	r3, [r7, #12]
    1a5e:	2300      	movs	r3, #0
    1a60:	60bb      	str	r3, [r7, #8]
    1a62:	687b      	ldr	r3, [r7, #4]
    1a64:	2b00      	cmp	r3, #0
    1a66:	d100      	bne.n	1a6a <list_insert_head+0x1a>
    1a68:	e015      	b.n	1a96 <list_insert_head+0x46>
    1a6a:	687b      	ldr	r3, [r7, #4]
    1a6c:	60fb      	str	r3, [r7, #12]
    1a6e:	68fb      	ldr	r3, [r7, #12]
    1a70:	685b      	ldr	r3, [r3, #4]
    1a72:	60bb      	str	r3, [r7, #8]
    1a74:	68fb      	ldr	r3, [r7, #12]
    1a76:	683a      	ldr	r2, [r7, #0]
    1a78:	605a      	str	r2, [r3, #4]
    1a7a:	68bb      	ldr	r3, [r7, #8]
    1a7c:	683a      	ldr	r2, [r7, #0]
    1a7e:	601a      	str	r2, [r3, #0]
    1a80:	683b      	ldr	r3, [r7, #0]
    1a82:	68fa      	ldr	r2, [r7, #12]
    1a84:	601a      	str	r2, [r3, #0]
    1a86:	683b      	ldr	r3, [r7, #0]
    1a88:	68ba      	ldr	r2, [r7, #8]
    1a8a:	605a      	str	r2, [r3, #4]
    1a8c:	687b      	ldr	r3, [r7, #4]
    1a8e:	689b      	ldr	r3, [r3, #8]
    1a90:	1c5a      	adds	r2, r3, #1
    1a92:	687b      	ldr	r3, [r7, #4]
    1a94:	609a      	str	r2, [r3, #8]
    1a96:	bf00      	nop
    1a98:	3714      	adds	r7, #20
    1a9a:	46bd      	mov	sp, r7
    1a9c:	f85d 7b04 	ldr.w	r7, [sp], #4
    1aa0:	4770      	bx	lr
    1aa2:	bf00      	nop

00001aa4 <list_append_last>:
    1aa4:	b480      	push	{r7}
    1aa6:	b085      	sub	sp, #20
    1aa8:	af00      	add	r7, sp, #0
    1aaa:	6078      	str	r0, [r7, #4]
    1aac:	6039      	str	r1, [r7, #0]
    1aae:	2300      	movs	r3, #0
    1ab0:	60fb      	str	r3, [r7, #12]
    1ab2:	2300      	movs	r3, #0
    1ab4:	60bb      	str	r3, [r7, #8]
    1ab6:	687b      	ldr	r3, [r7, #4]
    1ab8:	2b00      	cmp	r3, #0
    1aba:	d100      	bne.n	1abe <list_append_last+0x1a>
    1abc:	e015      	b.n	1aea <list_append_last+0x46>
    1abe:	687b      	ldr	r3, [r7, #4]
    1ac0:	60fb      	str	r3, [r7, #12]
    1ac2:	68fb      	ldr	r3, [r7, #12]
    1ac4:	685b      	ldr	r3, [r3, #4]
    1ac6:	60bb      	str	r3, [r7, #8]
    1ac8:	68fb      	ldr	r3, [r7, #12]
    1aca:	683a      	ldr	r2, [r7, #0]
    1acc:	601a      	str	r2, [r3, #0]
    1ace:	68bb      	ldr	r3, [r7, #8]
    1ad0:	683a      	ldr	r2, [r7, #0]
    1ad2:	605a      	str	r2, [r3, #4]
    1ad4:	683b      	ldr	r3, [r7, #0]
    1ad6:	68fa      	ldr	r2, [r7, #12]
    1ad8:	605a      	str	r2, [r3, #4]
    1ada:	683b      	ldr	r3, [r7, #0]
    1adc:	68ba      	ldr	r2, [r7, #8]
    1ade:	601a      	str	r2, [r3, #0]
    1ae0:	687b      	ldr	r3, [r7, #4]
    1ae2:	689b      	ldr	r3, [r3, #8]
    1ae4:	1c5a      	adds	r2, r3, #1
    1ae6:	687b      	ldr	r3, [r7, #4]
    1ae8:	609a      	str	r2, [r3, #8]
    1aea:	bf00      	nop
    1aec:	3714      	adds	r7, #20
    1aee:	46bd      	mov	sp, r7
    1af0:	f85d 7b04 	ldr.w	r7, [sp], #4
    1af4:	4770      	bx	lr
    1af6:	bf00      	nop

00001af8 <list_remove_first>:
    1af8:	b480      	push	{r7}
    1afa:	b087      	sub	sp, #28
    1afc:	af00      	add	r7, sp, #0
    1afe:	6078      	str	r0, [r7, #4]
    1b00:	2300      	movs	r3, #0
    1b02:	613b      	str	r3, [r7, #16]
    1b04:	2300      	movs	r3, #0
    1b06:	60fb      	str	r3, [r7, #12]
    1b08:	2300      	movs	r3, #0
    1b0a:	617b      	str	r3, [r7, #20]
    1b0c:	687b      	ldr	r3, [r7, #4]
    1b0e:	2b00      	cmp	r3, #0
    1b10:	d100      	bne.n	1b14 <list_remove_first+0x1c>
    1b12:	e01f      	b.n	1b54 <list_remove_first+0x5c>
    1b14:	687b      	ldr	r3, [r7, #4]
    1b16:	613b      	str	r3, [r7, #16]
    1b18:	693b      	ldr	r3, [r7, #16]
    1b1a:	685b      	ldr	r3, [r3, #4]
    1b1c:	617b      	str	r3, [r7, #20]
    1b1e:	697a      	ldr	r2, [r7, #20]
    1b20:	693b      	ldr	r3, [r7, #16]
    1b22:	429a      	cmp	r2, r3
    1b24:	d102      	bne.n	1b2c <list_remove_first+0x34>
    1b26:	2300      	movs	r3, #0
    1b28:	617b      	str	r3, [r7, #20]
    1b2a:	e013      	b.n	1b54 <list_remove_first+0x5c>
    1b2c:	697b      	ldr	r3, [r7, #20]
    1b2e:	685b      	ldr	r3, [r3, #4]
    1b30:	60fb      	str	r3, [r7, #12]
    1b32:	693b      	ldr	r3, [r7, #16]
    1b34:	68fa      	ldr	r2, [r7, #12]
    1b36:	605a      	str	r2, [r3, #4]
    1b38:	68fb      	ldr	r3, [r7, #12]
    1b3a:	693a      	ldr	r2, [r7, #16]
    1b3c:	601a      	str	r2, [r3, #0]
    1b3e:	697b      	ldr	r3, [r7, #20]
    1b40:	697a      	ldr	r2, [r7, #20]
    1b42:	605a      	str	r2, [r3, #4]
    1b44:	697b      	ldr	r3, [r7, #20]
    1b46:	697a      	ldr	r2, [r7, #20]
    1b48:	601a      	str	r2, [r3, #0]
    1b4a:	687b      	ldr	r3, [r7, #4]
    1b4c:	689b      	ldr	r3, [r3, #8]
    1b4e:	1e5a      	subs	r2, r3, #1
    1b50:	687b      	ldr	r3, [r7, #4]
    1b52:	609a      	str	r2, [r3, #8]
    1b54:	697b      	ldr	r3, [r7, #20]
    1b56:	4618      	mov	r0, r3
    1b58:	371c      	adds	r7, #28
    1b5a:	46bd      	mov	sp, r7
    1b5c:	f85d 7b04 	ldr.w	r7, [sp], #4
    1b60:	4770      	bx	lr
    1b62:	bf00      	nop

00001b64 <list_remove>:
    1b64:	b580      	push	{r7, lr}
    1b66:	b084      	sub	sp, #16
    1b68:	af00      	add	r7, sp, #0
    1b6a:	6078      	str	r0, [r7, #4]
    1b6c:	6039      	str	r1, [r7, #0]
    1b6e:	2300      	movs	r3, #0
    1b70:	60fb      	str	r3, [r7, #12]
    1b72:	2300      	movs	r3, #0
    1b74:	60bb      	str	r3, [r7, #8]
    1b76:	687b      	ldr	r3, [r7, #4]
    1b78:	2b00      	cmp	r3, #0
    1b7a:	d01c      	beq.n	1bb6 <list_remove+0x52>
    1b7c:	683b      	ldr	r3, [r7, #0]
    1b7e:	2b00      	cmp	r3, #0
    1b80:	d019      	beq.n	1bb6 <list_remove+0x52>
    1b82:	683b      	ldr	r3, [r7, #0]
    1b84:	685b      	ldr	r3, [r3, #4]
    1b86:	60fb      	str	r3, [r7, #12]
    1b88:	683b      	ldr	r3, [r7, #0]
    1b8a:	681b      	ldr	r3, [r3, #0]
    1b8c:	60bb      	str	r3, [r7, #8]
    1b8e:	68fb      	ldr	r3, [r7, #12]
    1b90:	2b00      	cmp	r3, #0
    1b92:	d010      	beq.n	1bb6 <list_remove+0x52>
    1b94:	68bb      	ldr	r3, [r7, #8]
    1b96:	2b00      	cmp	r3, #0
    1b98:	d00d      	beq.n	1bb6 <list_remove+0x52>
    1b9a:	68bb      	ldr	r3, [r7, #8]
    1b9c:	68fa      	ldr	r2, [r7, #12]
    1b9e:	605a      	str	r2, [r3, #4]
    1ba0:	68fb      	ldr	r3, [r7, #12]
    1ba2:	68ba      	ldr	r2, [r7, #8]
    1ba4:	601a      	str	r2, [r3, #0]
    1ba6:	687b      	ldr	r3, [r7, #4]
    1ba8:	689b      	ldr	r3, [r3, #8]
    1baa:	1e5a      	subs	r2, r3, #1
    1bac:	687b      	ldr	r3, [r7, #4]
    1bae:	609a      	str	r2, [r3, #8]
    1bb0:	6838      	ldr	r0, [r7, #0]
    1bb2:	f7ff fe89 	bl	18c8 <list_node_init>
    1bb6:	bf00      	nop
    1bb8:	3710      	adds	r7, #16
    1bba:	46bd      	mov	sp, r7
    1bbc:	bd80      	pop	{r7, pc}
    1bbe:	bf00      	nop

00001bc0 <event_init>:
    1bc0:	b580      	push	{r7, lr}
    1bc2:	b082      	sub	sp, #8
    1bc4:	af00      	add	r7, sp, #0
    1bc6:	6078      	str	r0, [r7, #4]
    1bc8:	460b      	mov	r3, r1
    1bca:	70fb      	strb	r3, [r7, #3]
    1bcc:	687b      	ldr	r3, [r7, #4]
    1bce:	78fa      	ldrb	r2, [r7, #3]
    1bd0:	701a      	strb	r2, [r3, #0]
    1bd2:	687b      	ldr	r3, [r7, #4]
    1bd4:	3304      	adds	r3, #4
    1bd6:	4618      	mov	r0, r3
    1bd8:	f7ff fe88 	bl	18ec <list_init>
    1bdc:	3708      	adds	r7, #8
    1bde:	46bd      	mov	sp, r7
    1be0:	bd80      	pop	{r7, pc}
    1be2:	bf00      	nop

00001be4 <event_wait>:
    1be4:	b580      	push	{r7, lr}
    1be6:	b086      	sub	sp, #24
    1be8:	af00      	add	r7, sp, #0
    1bea:	60f8      	str	r0, [r7, #12]
    1bec:	60b9      	str	r1, [r7, #8]
    1bee:	607a      	str	r2, [r7, #4]
    1bf0:	603b      	str	r3, [r7, #0]
    1bf2:	f7ff fb89 	bl	1308 <task_enter_critical>
    1bf6:	6178      	str	r0, [r7, #20]
    1bf8:	68bb      	ldr	r3, [r7, #8]
    1bfa:	695a      	ldr	r2, [r3, #20]
    1bfc:	683b      	ldr	r3, [r7, #0]
    1bfe:	431a      	orrs	r2, r3
    1c00:	68bb      	ldr	r3, [r7, #8]
    1c02:	615a      	str	r2, [r3, #20]
    1c04:	68bb      	ldr	r3, [r7, #8]
    1c06:	68fa      	ldr	r2, [r7, #12]
    1c08:	635a      	str	r2, [r3, #52]	; 0x34
    1c0a:	68bb      	ldr	r3, [r7, #8]
    1c0c:	2200      	movs	r2, #0
    1c0e:	63da      	str	r2, [r3, #60]	; 0x3c
    1c10:	68b8      	ldr	r0, [r7, #8]
    1c12:	f7ff fc05 	bl	1420 <task_unready>
    1c16:	68fb      	ldr	r3, [r7, #12]
    1c18:	1d1a      	adds	r2, r3, #4
    1c1a:	68bb      	ldr	r3, [r7, #8]
    1c1c:	3318      	adds	r3, #24
    1c1e:	4610      	mov	r0, r2
    1c20:	4619      	mov	r1, r3
    1c22:	f7ff ff3f 	bl	1aa4 <list_append_last>
    1c26:	6a3b      	ldr	r3, [r7, #32]
    1c28:	2b00      	cmp	r3, #0
    1c2a:	d003      	beq.n	1c34 <event_wait+0x50>
    1c2c:	68b8      	ldr	r0, [r7, #8]
    1c2e:	6a39      	ldr	r1, [r7, #32]
    1c30:	f7ff fc24 	bl	147c <task_delay_wait>
    1c34:	6978      	ldr	r0, [r7, #20]
    1c36:	f7ff fb75 	bl	1324 <task_exit_critical>
    1c3a:	3718      	adds	r7, #24
    1c3c:	46bd      	mov	sp, r7
    1c3e:	bd80      	pop	{r7, pc}

00001c40 <event_wakeup>:
    1c40:	b580      	push	{r7, lr}
    1c42:	b088      	sub	sp, #32
    1c44:	af00      	add	r7, sp, #0
    1c46:	60f8      	str	r0, [r7, #12]
    1c48:	60b9      	str	r1, [r7, #8]
    1c4a:	607a      	str	r2, [r7, #4]
    1c4c:	2300      	movs	r3, #0
    1c4e:	61bb      	str	r3, [r7, #24]
    1c50:	2300      	movs	r3, #0
    1c52:	61fb      	str	r3, [r7, #28]
    1c54:	f7ff fb58 	bl	1308 <task_enter_critical>
    1c58:	6178      	str	r0, [r7, #20]
    1c5a:	68fb      	ldr	r3, [r7, #12]
    1c5c:	3304      	adds	r3, #4
    1c5e:	4618      	mov	r0, r3
    1c60:	f7ff ff4a 	bl	1af8 <list_remove_first>
    1c64:	61b8      	str	r0, [r7, #24]
    1c66:	69bb      	ldr	r3, [r7, #24]
    1c68:	2b00      	cmp	r3, #0
    1c6a:	d018      	beq.n	1c9e <event_wakeup+0x5e>
    1c6c:	69bb      	ldr	r3, [r7, #24]
    1c6e:	3b18      	subs	r3, #24
    1c70:	61fb      	str	r3, [r7, #28]
    1c72:	69fb      	ldr	r3, [r7, #28]
    1c74:	2200      	movs	r2, #0
    1c76:	635a      	str	r2, [r3, #52]	; 0x34
    1c78:	69fb      	ldr	r3, [r7, #28]
    1c7a:	68ba      	ldr	r2, [r7, #8]
    1c7c:	639a      	str	r2, [r3, #56]	; 0x38
    1c7e:	69fb      	ldr	r3, [r7, #28]
    1c80:	695b      	ldr	r3, [r3, #20]
    1c82:	f423 027f 	bic.w	r2, r3, #16711680	; 0xff0000
    1c86:	69fb      	ldr	r3, [r7, #28]
    1c88:	615a      	str	r2, [r3, #20]
    1c8a:	69fb      	ldr	r3, [r7, #28]
    1c8c:	685b      	ldr	r3, [r3, #4]
    1c8e:	2b00      	cmp	r3, #0
    1c90:	d002      	beq.n	1c98 <event_wakeup+0x58>
    1c92:	69f8      	ldr	r0, [r7, #28]
    1c94:	f7ff fc0c 	bl	14b0 <task_delay_wakeup>
    1c98:	69f8      	ldr	r0, [r7, #28]
    1c9a:	f7ff fba1 	bl	13e0 <task_ready>
    1c9e:	6978      	ldr	r0, [r7, #20]
    1ca0:	f7ff fb40 	bl	1324 <task_exit_critical>
    1ca4:	69fb      	ldr	r3, [r7, #28]
    1ca6:	4618      	mov	r0, r3
    1ca8:	3720      	adds	r7, #32
    1caa:	46bd      	mov	sp, r7
    1cac:	bd80      	pop	{r7, pc}
    1cae:	bf00      	nop

00001cb0 <event_remove_task>:
    1cb0:	b580      	push	{r7, lr}
    1cb2:	b086      	sub	sp, #24
    1cb4:	af00      	add	r7, sp, #0
    1cb6:	60f8      	str	r0, [r7, #12]
    1cb8:	60b9      	str	r1, [r7, #8]
    1cba:	607a      	str	r2, [r7, #4]
    1cbc:	f7ff fb24 	bl	1308 <task_enter_critical>
    1cc0:	6178      	str	r0, [r7, #20]
    1cc2:	68fb      	ldr	r3, [r7, #12]
    1cc4:	6b5b      	ldr	r3, [r3, #52]	; 0x34
    1cc6:	1d1a      	adds	r2, r3, #4
    1cc8:	68fb      	ldr	r3, [r7, #12]
    1cca:	3318      	adds	r3, #24
    1ccc:	4610      	mov	r0, r2
    1cce:	4619      	mov	r1, r3
    1cd0:	f7ff ff48 	bl	1b64 <list_remove>
    1cd4:	68fb      	ldr	r3, [r7, #12]
    1cd6:	2200      	movs	r2, #0
    1cd8:	635a      	str	r2, [r3, #52]	; 0x34
    1cda:	68fb      	ldr	r3, [r7, #12]
    1cdc:	68ba      	ldr	r2, [r7, #8]
    1cde:	639a      	str	r2, [r3, #56]	; 0x38
    1ce0:	68fb      	ldr	r3, [r7, #12]
    1ce2:	687a      	ldr	r2, [r7, #4]
    1ce4:	63da      	str	r2, [r3, #60]	; 0x3c
    1ce6:	68fb      	ldr	r3, [r7, #12]
    1ce8:	695b      	ldr	r3, [r3, #20]
    1cea:	f423 027f 	bic.w	r2, r3, #16711680	; 0xff0000
    1cee:	68fb      	ldr	r3, [r7, #12]
    1cf0:	615a      	str	r2, [r3, #20]
    1cf2:	6978      	ldr	r0, [r7, #20]
    1cf4:	f7ff fb16 	bl	1324 <task_exit_critical>
    1cf8:	3718      	adds	r7, #24
    1cfa:	46bd      	mov	sp, r7
    1cfc:	bd80      	pop	{r7, pc}
    1cfe:	bf00      	nop

00001d00 <event_remove_all>:
    1d00:	b580      	push	{r7, lr}
    1d02:	b088      	sub	sp, #32
    1d04:	af00      	add	r7, sp, #0
    1d06:	60f8      	str	r0, [r7, #12]
    1d08:	60b9      	str	r1, [r7, #8]
    1d0a:	607a      	str	r2, [r7, #4]
    1d0c:	2300      	movs	r3, #0
    1d0e:	61fb      	str	r3, [r7, #28]
    1d10:	2300      	movs	r3, #0
    1d12:	61bb      	str	r3, [r7, #24]
    1d14:	f7ff faf8 	bl	1308 <task_enter_critical>
    1d18:	6178      	str	r0, [r7, #20]
    1d1a:	481d      	ldr	r0, [pc, #116]	; (1d90 <event_remove_all+0x90>)
    1d1c:	491d      	ldr	r1, [pc, #116]	; (1d94 <event_remove_all+0x94>)
    1d1e:	f7fe fe5d 	bl	9dc <printk>
    1d22:	68fb      	ldr	r3, [r7, #12]
    1d24:	3304      	adds	r3, #4
    1d26:	4618      	mov	r0, r3
    1d28:	f7ff fdf2 	bl	1910 <list_count>
    1d2c:	61b8      	str	r0, [r7, #24]
    1d2e:	e01e      	b.n	1d6e <event_remove_all+0x6e>
    1d30:	4819      	ldr	r0, [pc, #100]	; (1d98 <event_remove_all+0x98>)
    1d32:	f7fe fe53 	bl	9dc <printk>
    1d36:	69fb      	ldr	r3, [r7, #28]
    1d38:	3b18      	subs	r3, #24
    1d3a:	613b      	str	r3, [r7, #16]
    1d3c:	693b      	ldr	r3, [r7, #16]
    1d3e:	2200      	movs	r2, #0
    1d40:	635a      	str	r2, [r3, #52]	; 0x34
    1d42:	693b      	ldr	r3, [r7, #16]
    1d44:	68ba      	ldr	r2, [r7, #8]
    1d46:	639a      	str	r2, [r3, #56]	; 0x38
    1d48:	693b      	ldr	r3, [r7, #16]
    1d4a:	687a      	ldr	r2, [r7, #4]
    1d4c:	63da      	str	r2, [r3, #60]	; 0x3c
    1d4e:	693b      	ldr	r3, [r7, #16]
    1d50:	695b      	ldr	r3, [r3, #20]
    1d52:	f423 027f 	bic.w	r2, r3, #16711680	; 0xff0000
    1d56:	693b      	ldr	r3, [r7, #16]
    1d58:	615a      	str	r2, [r3, #20]
    1d5a:	693b      	ldr	r3, [r7, #16]
    1d5c:	685b      	ldr	r3, [r3, #4]
    1d5e:	2b00      	cmp	r3, #0
    1d60:	d002      	beq.n	1d68 <event_remove_all+0x68>
    1d62:	6938      	ldr	r0, [r7, #16]
    1d64:	f7ff fba4 	bl	14b0 <task_delay_wakeup>
    1d68:	6938      	ldr	r0, [r7, #16]
    1d6a:	f7ff fb39 	bl	13e0 <task_ready>
    1d6e:	68fb      	ldr	r3, [r7, #12]
    1d70:	3304      	adds	r3, #4
    1d72:	4618      	mov	r0, r3
    1d74:	f7ff fec0 	bl	1af8 <list_remove_first>
    1d78:	61f8      	str	r0, [r7, #28]
    1d7a:	69fb      	ldr	r3, [r7, #28]
    1d7c:	2b00      	cmp	r3, #0
    1d7e:	d1d7      	bne.n	1d30 <event_remove_all+0x30>
    1d80:	6978      	ldr	r0, [r7, #20]
    1d82:	f7ff facf 	bl	1324 <task_exit_critical>
    1d86:	69bb      	ldr	r3, [r7, #24]
    1d88:	4618      	mov	r0, r3
    1d8a:	3720      	adds	r7, #32
    1d8c:	46bd      	mov	sp, r7
    1d8e:	bd80      	pop	{r7, pc}
    1d90:	000026d4 	ldrdeq	r2, [r0], -r4
    1d94:	000026e8 	andeq	r2, r0, r8, ror #13
    1d98:	000026dc 	ldrdeq	r2, [r0], -ip

00001d9c <event_wait_count>:
    1d9c:	b580      	push	{r7, lr}
    1d9e:	b084      	sub	sp, #16
    1da0:	af00      	add	r7, sp, #0
    1da2:	6078      	str	r0, [r7, #4]
    1da4:	2300      	movs	r3, #0
    1da6:	60fb      	str	r3, [r7, #12]
    1da8:	f7ff faae 	bl	1308 <task_enter_critical>
    1dac:	60b8      	str	r0, [r7, #8]
    1dae:	687b      	ldr	r3, [r7, #4]
    1db0:	3304      	adds	r3, #4
    1db2:	4618      	mov	r0, r3
    1db4:	f7ff fdac 	bl	1910 <list_count>
    1db8:	60f8      	str	r0, [r7, #12]
    1dba:	68b8      	ldr	r0, [r7, #8]
    1dbc:	f7ff fab2 	bl	1324 <task_exit_critical>
    1dc0:	68fb      	ldr	r3, [r7, #12]
    1dc2:	4618      	mov	r0, r3
    1dc4:	3710      	adds	r7, #16
    1dc6:	46bd      	mov	sp, r7
    1dc8:	bd80      	pop	{r7, pc}
    1dca:	bf00      	nop

00001dcc <sem_init>:
    1dcc:	b580      	push	{r7, lr}
    1dce:	b084      	sub	sp, #16
    1dd0:	af00      	add	r7, sp, #0
    1dd2:	60f8      	str	r0, [r7, #12]
    1dd4:	60b9      	str	r1, [r7, #8]
    1dd6:	607a      	str	r2, [r7, #4]
    1dd8:	68fb      	ldr	r3, [r7, #12]
    1dda:	4618      	mov	r0, r3
    1ddc:	2101      	movs	r1, #1
    1dde:	f7ff feef 	bl	1bc0 <event_init>
    1de2:	687b      	ldr	r3, [r7, #4]
    1de4:	2b00      	cmp	r3, #0
    1de6:	d103      	bne.n	1df0 <sem_init+0x24>
    1de8:	68fb      	ldr	r3, [r7, #12]
    1dea:	68ba      	ldr	r2, [r7, #8]
    1dec:	611a      	str	r2, [r3, #16]
    1dee:	e006      	b.n	1dfe <sem_init+0x32>
    1df0:	68ba      	ldr	r2, [r7, #8]
    1df2:	687b      	ldr	r3, [r7, #4]
    1df4:	429a      	cmp	r2, r3
    1df6:	bf28      	it	cs
    1df8:	461a      	movcs	r2, r3
    1dfa:	68fb      	ldr	r3, [r7, #12]
    1dfc:	611a      	str	r2, [r3, #16]
    1dfe:	3710      	adds	r7, #16
    1e00:	46bd      	mov	sp, r7
    1e02:	bd80      	pop	{r7, pc}

00001e04 <sem_acquire>:
    1e04:	b580      	push	{r7, lr}
    1e06:	b086      	sub	sp, #24
    1e08:	af02      	add	r7, sp, #8
    1e0a:	6078      	str	r0, [r7, #4]
    1e0c:	6039      	str	r1, [r7, #0]
    1e0e:	f7ff fa7b 	bl	1308 <task_enter_critical>
    1e12:	60f8      	str	r0, [r7, #12]
    1e14:	687b      	ldr	r3, [r7, #4]
    1e16:	691b      	ldr	r3, [r3, #16]
    1e18:	2b00      	cmp	r3, #0
    1e1a:	d009      	beq.n	1e30 <sem_acquire+0x2c>
    1e1c:	687b      	ldr	r3, [r7, #4]
    1e1e:	691b      	ldr	r3, [r3, #16]
    1e20:	1e5a      	subs	r2, r3, #1
    1e22:	687b      	ldr	r3, [r7, #4]
    1e24:	611a      	str	r2, [r3, #16]
    1e26:	68f8      	ldr	r0, [r7, #12]
    1e28:	f7ff fa7c 	bl	1324 <task_exit_critical>
    1e2c:	2300      	movs	r3, #0
    1e2e:	e012      	b.n	1e56 <sem_acquire+0x52>
    1e30:	6879      	ldr	r1, [r7, #4]
    1e32:	4b0b      	ldr	r3, [pc, #44]	; (1e60 <sem_acquire+0x5c>)
    1e34:	681a      	ldr	r2, [r3, #0]
    1e36:	683b      	ldr	r3, [r7, #0]
    1e38:	9300      	str	r3, [sp, #0]
    1e3a:	4608      	mov	r0, r1
    1e3c:	4611      	mov	r1, r2
    1e3e:	2200      	movs	r2, #0
    1e40:	2301      	movs	r3, #1
    1e42:	f7ff fecf 	bl	1be4 <event_wait>
    1e46:	68f8      	ldr	r0, [r7, #12]
    1e48:	f7ff fa6c 	bl	1324 <task_exit_critical>
    1e4c:	f7ff f92c 	bl	10a8 <task_sched>
    1e50:	4b03      	ldr	r3, [pc, #12]	; (1e60 <sem_acquire+0x5c>)
    1e52:	681b      	ldr	r3, [r3, #0]
    1e54:	6bdb      	ldr	r3, [r3, #60]	; 0x3c
    1e56:	4618      	mov	r0, r3
    1e58:	3710      	adds	r7, #16
    1e5a:	46bd      	mov	sp, r7
    1e5c:	bd80      	pop	{r7, pc}
    1e5e:	bf00      	nop
    1e60:	20005954 	andcs	r5, r0, r4, asr r9

00001e64 <sem_acquire_no_wait>:
    1e64:	b580      	push	{r7, lr}
    1e66:	b084      	sub	sp, #16
    1e68:	af00      	add	r7, sp, #0
    1e6a:	6078      	str	r0, [r7, #4]
    1e6c:	f7ff fa4c 	bl	1308 <task_enter_critical>
    1e70:	60f8      	str	r0, [r7, #12]
    1e72:	687b      	ldr	r3, [r7, #4]
    1e74:	691b      	ldr	r3, [r3, #16]
    1e76:	2b00      	cmp	r3, #0
    1e78:	d009      	beq.n	1e8e <sem_acquire_no_wait+0x2a>
    1e7a:	687b      	ldr	r3, [r7, #4]
    1e7c:	691b      	ldr	r3, [r3, #16]
    1e7e:	1e5a      	subs	r2, r3, #1
    1e80:	687b      	ldr	r3, [r7, #4]
    1e82:	611a      	str	r2, [r3, #16]
    1e84:	68f8      	ldr	r0, [r7, #12]
    1e86:	f7ff fa4d 	bl	1324 <task_exit_critical>
    1e8a:	2300      	movs	r3, #0
    1e8c:	e005      	b.n	1e9a <sem_acquire_no_wait+0x36>
    1e8e:	68f8      	ldr	r0, [r7, #12]
    1e90:	f7ff fa48 	bl	1324 <task_exit_critical>
    1e94:	4b03      	ldr	r3, [pc, #12]	; (1ea4 <sem_acquire_no_wait+0x40>)
    1e96:	681b      	ldr	r3, [r3, #0]
    1e98:	6bdb      	ldr	r3, [r3, #60]	; 0x3c
    1e9a:	4618      	mov	r0, r3
    1e9c:	3710      	adds	r7, #16
    1e9e:	46bd      	mov	sp, r7
    1ea0:	bd80      	pop	{r7, pc}
    1ea2:	bf00      	nop
    1ea4:	20005954 	andcs	r5, r0, r4, asr r9

00001ea8 <sem_release>:
    1ea8:	b580      	push	{r7, lr}
    1eaa:	b084      	sub	sp, #16
    1eac:	af00      	add	r7, sp, #0
    1eae:	6078      	str	r0, [r7, #4]
    1eb0:	f7ff fa2a 	bl	1308 <task_enter_critical>
    1eb4:	60f8      	str	r0, [r7, #12]
    1eb6:	687b      	ldr	r3, [r7, #4]
    1eb8:	4618      	mov	r0, r3
    1eba:	f7ff ff6f 	bl	1d9c <event_wait_count>
    1ebe:	4603      	mov	r3, r0
    1ec0:	2b00      	cmp	r3, #0
    1ec2:	d011      	beq.n	1ee8 <sem_release+0x40>
    1ec4:	687b      	ldr	r3, [r7, #4]
    1ec6:	4618      	mov	r0, r3
    1ec8:	2100      	movs	r1, #0
    1eca:	2200      	movs	r2, #0
    1ecc:	f7ff feb8 	bl	1c40 <event_wakeup>
    1ed0:	60b8      	str	r0, [r7, #8]
    1ed2:	68bb      	ldr	r3, [r7, #8]
    1ed4:	689a      	ldr	r2, [r3, #8]
    1ed6:	4b11      	ldr	r3, [pc, #68]	; (1f1c <sem_release+0x74>)
    1ed8:	681b      	ldr	r3, [r3, #0]
    1eda:	689b      	ldr	r3, [r3, #8]
    1edc:	429a      	cmp	r2, r3
    1ede:	d202      	bcs.n	1ee6 <sem_release+0x3e>
    1ee0:	f7ff f8e2 	bl	10a8 <task_sched>
    1ee4:	e013      	b.n	1f0e <sem_release+0x66>
    1ee6:	e012      	b.n	1f0e <sem_release+0x66>
    1ee8:	687b      	ldr	r3, [r7, #4]
    1eea:	691b      	ldr	r3, [r3, #16]
    1eec:	1c5a      	adds	r2, r3, #1
    1eee:	687b      	ldr	r3, [r7, #4]
    1ef0:	611a      	str	r2, [r3, #16]
    1ef2:	687b      	ldr	r3, [r7, #4]
    1ef4:	695b      	ldr	r3, [r3, #20]
    1ef6:	2b00      	cmp	r3, #0
    1ef8:	d009      	beq.n	1f0e <sem_release+0x66>
    1efa:	687b      	ldr	r3, [r7, #4]
    1efc:	691a      	ldr	r2, [r3, #16]
    1efe:	687b      	ldr	r3, [r7, #4]
    1f00:	695b      	ldr	r3, [r3, #20]
    1f02:	429a      	cmp	r2, r3
    1f04:	d903      	bls.n	1f0e <sem_release+0x66>
    1f06:	687b      	ldr	r3, [r7, #4]
    1f08:	695a      	ldr	r2, [r3, #20]
    1f0a:	687b      	ldr	r3, [r7, #4]
    1f0c:	611a      	str	r2, [r3, #16]
    1f0e:	68f8      	ldr	r0, [r7, #12]
    1f10:	f7ff fa08 	bl	1324 <task_exit_critical>
    1f14:	3710      	adds	r7, #16
    1f16:	46bd      	mov	sp, r7
    1f18:	bd80      	pop	{r7, pc}
    1f1a:	bf00      	nop
    1f1c:	20005954 	andcs	r5, r0, r4, asr r9

00001f20 <sem_get_info>:
    1f20:	b580      	push	{r7, lr}
    1f22:	b084      	sub	sp, #16
    1f24:	af00      	add	r7, sp, #0
    1f26:	6078      	str	r0, [r7, #4]
    1f28:	6039      	str	r1, [r7, #0]
    1f2a:	f7ff f9ed 	bl	1308 <task_enter_critical>
    1f2e:	60f8      	str	r0, [r7, #12]
    1f30:	687b      	ldr	r3, [r7, #4]
    1f32:	691a      	ldr	r2, [r3, #16]
    1f34:	683b      	ldr	r3, [r7, #0]
    1f36:	601a      	str	r2, [r3, #0]
    1f38:	687b      	ldr	r3, [r7, #4]
    1f3a:	695a      	ldr	r2, [r3, #20]
    1f3c:	683b      	ldr	r3, [r7, #0]
    1f3e:	605a      	str	r2, [r3, #4]
    1f40:	687b      	ldr	r3, [r7, #4]
    1f42:	4618      	mov	r0, r3
    1f44:	f7ff ff2a 	bl	1d9c <event_wait_count>
    1f48:	4602      	mov	r2, r0
    1f4a:	683b      	ldr	r3, [r7, #0]
    1f4c:	609a      	str	r2, [r3, #8]
    1f4e:	68f8      	ldr	r0, [r7, #12]
    1f50:	f7ff f9e8 	bl	1324 <task_exit_critical>
    1f54:	3710      	adds	r7, #16
    1f56:	46bd      	mov	sp, r7
    1f58:	bd80      	pop	{r7, pc}
    1f5a:	bf00      	nop

00001f5c <sem_destory>:
    1f5c:	b580      	push	{r7, lr}
    1f5e:	b084      	sub	sp, #16
    1f60:	af00      	add	r7, sp, #0
    1f62:	6078      	str	r0, [r7, #4]
    1f64:	f7ff f9d0 	bl	1308 <task_enter_critical>
    1f68:	60f8      	str	r0, [r7, #12]
    1f6a:	687b      	ldr	r3, [r7, #4]
    1f6c:	4618      	mov	r0, r3
    1f6e:	2100      	movs	r1, #0
    1f70:	2202      	movs	r2, #2
    1f72:	f7ff fec5 	bl	1d00 <event_remove_all>
    1f76:	60b8      	str	r0, [r7, #8]
    1f78:	687b      	ldr	r3, [r7, #4]
    1f7a:	2200      	movs	r2, #0
    1f7c:	611a      	str	r2, [r3, #16]
    1f7e:	68f8      	ldr	r0, [r7, #12]
    1f80:	f7ff f9d0 	bl	1324 <task_exit_critical>
    1f84:	68bb      	ldr	r3, [r7, #8]
    1f86:	2b00      	cmp	r3, #0
    1f88:	d001      	beq.n	1f8e <sem_destory+0x32>
    1f8a:	f7ff f88d 	bl	10a8 <task_sched>
    1f8e:	68bb      	ldr	r3, [r7, #8]
    1f90:	4618      	mov	r0, r3
    1f92:	3710      	adds	r7, #16
    1f94:	46bd      	mov	sp, r7
    1f96:	bd80      	pop	{r7, pc}

00001f98 <mbox_init>:
    1f98:	b580      	push	{r7, lr}
    1f9a:	b084      	sub	sp, #16
    1f9c:	af00      	add	r7, sp, #0
    1f9e:	60f8      	str	r0, [r7, #12]
    1fa0:	60b9      	str	r1, [r7, #8]
    1fa2:	607a      	str	r2, [r7, #4]
    1fa4:	68fb      	ldr	r3, [r7, #12]
    1fa6:	4618      	mov	r0, r3
    1fa8:	2102      	movs	r1, #2
    1faa:	f7ff fe09 	bl	1bc0 <event_init>
    1fae:	68fb      	ldr	r3, [r7, #12]
    1fb0:	68ba      	ldr	r2, [r7, #8]
    1fb2:	621a      	str	r2, [r3, #32]
    1fb4:	68fb      	ldr	r3, [r7, #12]
    1fb6:	687a      	ldr	r2, [r7, #4]
    1fb8:	61da      	str	r2, [r3, #28]
    1fba:	68fb      	ldr	r3, [r7, #12]
    1fbc:	2200      	movs	r2, #0
    1fbe:	615a      	str	r2, [r3, #20]
    1fc0:	68fb      	ldr	r3, [r7, #12]
    1fc2:	2200      	movs	r2, #0
    1fc4:	619a      	str	r2, [r3, #24]
    1fc6:	68fb      	ldr	r3, [r7, #12]
    1fc8:	2200      	movs	r2, #0
    1fca:	611a      	str	r2, [r3, #16]
    1fcc:	3710      	adds	r7, #16
    1fce:	46bd      	mov	sp, r7
    1fd0:	bd80      	pop	{r7, pc}
    1fd2:	bf00      	nop

00001fd4 <mbox_get>:
    1fd4:	b580      	push	{r7, lr}
    1fd6:	b088      	sub	sp, #32
    1fd8:	af02      	add	r7, sp, #8
    1fda:	60f8      	str	r0, [r7, #12]
    1fdc:	60b9      	str	r1, [r7, #8]
    1fde:	607a      	str	r2, [r7, #4]
    1fe0:	f7ff f992 	bl	1308 <task_enter_critical>
    1fe4:	6178      	str	r0, [r7, #20]
    1fe6:	68fb      	ldr	r3, [r7, #12]
    1fe8:	691b      	ldr	r3, [r3, #16]
    1fea:	2b00      	cmp	r3, #0
    1fec:	d01e      	beq.n	202c <mbox_get+0x58>
    1fee:	68fb      	ldr	r3, [r7, #12]
    1ff0:	691b      	ldr	r3, [r3, #16]
    1ff2:	1e5a      	subs	r2, r3, #1
    1ff4:	68fb      	ldr	r3, [r7, #12]
    1ff6:	611a      	str	r2, [r3, #16]
    1ff8:	68fb      	ldr	r3, [r7, #12]
    1ffa:	6a1a      	ldr	r2, [r3, #32]
    1ffc:	68fb      	ldr	r3, [r7, #12]
    1ffe:	695b      	ldr	r3, [r3, #20]
    2000:	1c58      	adds	r0, r3, #1
    2002:	68f9      	ldr	r1, [r7, #12]
    2004:	6148      	str	r0, [r1, #20]
    2006:	009b      	lsls	r3, r3, #2
    2008:	4413      	add	r3, r2
    200a:	681a      	ldr	r2, [r3, #0]
    200c:	68bb      	ldr	r3, [r7, #8]
    200e:	601a      	str	r2, [r3, #0]
    2010:	68fb      	ldr	r3, [r7, #12]
    2012:	695a      	ldr	r2, [r3, #20]
    2014:	68fb      	ldr	r3, [r7, #12]
    2016:	69db      	ldr	r3, [r3, #28]
    2018:	429a      	cmp	r2, r3
    201a:	d302      	bcc.n	2022 <mbox_get+0x4e>
    201c:	68fb      	ldr	r3, [r7, #12]
    201e:	2200      	movs	r2, #0
    2020:	615a      	str	r2, [r3, #20]
    2022:	6978      	ldr	r0, [r7, #20]
    2024:	f7ff f97e 	bl	1324 <task_exit_critical>
    2028:	2300      	movs	r3, #0
    202a:	e017      	b.n	205c <mbox_get+0x88>
    202c:	68f9      	ldr	r1, [r7, #12]
    202e:	4b0d      	ldr	r3, [pc, #52]	; (2064 <mbox_get+0x90>)
    2030:	681a      	ldr	r2, [r3, #0]
    2032:	687b      	ldr	r3, [r7, #4]
    2034:	9300      	str	r3, [sp, #0]
    2036:	4608      	mov	r0, r1
    2038:	4611      	mov	r1, r2
    203a:	2200      	movs	r2, #0
    203c:	2302      	movs	r3, #2
    203e:	f7ff fdd1 	bl	1be4 <event_wait>
    2042:	6978      	ldr	r0, [r7, #20]
    2044:	f7ff f96e 	bl	1324 <task_exit_critical>
    2048:	f7ff f82e 	bl	10a8 <task_sched>
    204c:	4b05      	ldr	r3, [pc, #20]	; (2064 <mbox_get+0x90>)
    204e:	681b      	ldr	r3, [r3, #0]
    2050:	6b9a      	ldr	r2, [r3, #56]	; 0x38
    2052:	68bb      	ldr	r3, [r7, #8]
    2054:	601a      	str	r2, [r3, #0]
    2056:	4b03      	ldr	r3, [pc, #12]	; (2064 <mbox_get+0x90>)
    2058:	681b      	ldr	r3, [r3, #0]
    205a:	6bdb      	ldr	r3, [r3, #60]	; 0x3c
    205c:	4618      	mov	r0, r3
    205e:	3718      	adds	r7, #24
    2060:	46bd      	mov	sp, r7
    2062:	bd80      	pop	{r7, pc}
    2064:	20005954 	andcs	r5, r0, r4, asr r9

00002068 <mbox_get_no_wait>:
    2068:	b580      	push	{r7, lr}
    206a:	b084      	sub	sp, #16
    206c:	af00      	add	r7, sp, #0
    206e:	6078      	str	r0, [r7, #4]
    2070:	6039      	str	r1, [r7, #0]
    2072:	f7ff f949 	bl	1308 <task_enter_critical>
    2076:	60f8      	str	r0, [r7, #12]
    2078:	687b      	ldr	r3, [r7, #4]
    207a:	691b      	ldr	r3, [r3, #16]
    207c:	2b00      	cmp	r3, #0
    207e:	d01e      	beq.n	20be <mbox_get_no_wait+0x56>
    2080:	687b      	ldr	r3, [r7, #4]
    2082:	691b      	ldr	r3, [r3, #16]
    2084:	1e5a      	subs	r2, r3, #1
    2086:	687b      	ldr	r3, [r7, #4]
    2088:	611a      	str	r2, [r3, #16]
    208a:	687b      	ldr	r3, [r7, #4]
    208c:	6a1a      	ldr	r2, [r3, #32]
    208e:	687b      	ldr	r3, [r7, #4]
    2090:	695b      	ldr	r3, [r3, #20]
    2092:	1c58      	adds	r0, r3, #1
    2094:	6879      	ldr	r1, [r7, #4]
    2096:	6148      	str	r0, [r1, #20]
    2098:	009b      	lsls	r3, r3, #2
    209a:	4413      	add	r3, r2
    209c:	681a      	ldr	r2, [r3, #0]
    209e:	683b      	ldr	r3, [r7, #0]
    20a0:	601a      	str	r2, [r3, #0]
    20a2:	687b      	ldr	r3, [r7, #4]
    20a4:	695a      	ldr	r2, [r3, #20]
    20a6:	687b      	ldr	r3, [r7, #4]
    20a8:	69db      	ldr	r3, [r3, #28]
    20aa:	429a      	cmp	r2, r3
    20ac:	d302      	bcc.n	20b4 <mbox_get_no_wait+0x4c>
    20ae:	687b      	ldr	r3, [r7, #4]
    20b0:	2200      	movs	r2, #0
    20b2:	615a      	str	r2, [r3, #20]
    20b4:	68f8      	ldr	r0, [r7, #12]
    20b6:	f7ff f935 	bl	1324 <task_exit_critical>
    20ba:	2300      	movs	r3, #0
    20bc:	e005      	b.n	20ca <mbox_get_no_wait+0x62>
    20be:	68f8      	ldr	r0, [r7, #12]
    20c0:	f7ff f930 	bl	1324 <task_exit_critical>
    20c4:	4b03      	ldr	r3, [pc, #12]	; (20d4 <mbox_get_no_wait+0x6c>)
    20c6:	681b      	ldr	r3, [r3, #0]
    20c8:	6bdb      	ldr	r3, [r3, #60]	; 0x3c
    20ca:	4618      	mov	r0, r3
    20cc:	3710      	adds	r7, #16
    20ce:	46bd      	mov	sp, r7
    20d0:	bd80      	pop	{r7, pc}
    20d2:	bf00      	nop
    20d4:	20005954 	andcs	r5, r0, r4, asr r9

000020d8 <mbox_send>:
    20d8:	b580      	push	{r7, lr}
    20da:	b086      	sub	sp, #24
    20dc:	af00      	add	r7, sp, #0
    20de:	60f8      	str	r0, [r7, #12]
    20e0:	60b9      	str	r1, [r7, #8]
    20e2:	607a      	str	r2, [r7, #4]
    20e4:	f7ff f910 	bl	1308 <task_enter_critical>
    20e8:	6178      	str	r0, [r7, #20]
    20ea:	2300      	movs	r3, #0
    20ec:	613b      	str	r3, [r7, #16]
    20ee:	68fb      	ldr	r3, [r7, #12]
    20f0:	4618      	mov	r0, r3
    20f2:	f7ff fe53 	bl	1d9c <event_wait_count>
    20f6:	4603      	mov	r3, r0
    20f8:	2b00      	cmp	r3, #0
    20fa:	d010      	beq.n	211e <mbox_send+0x46>
    20fc:	68fb      	ldr	r3, [r7, #12]
    20fe:	4618      	mov	r0, r3
    2100:	68b9      	ldr	r1, [r7, #8]
    2102:	2200      	movs	r2, #0
    2104:	f7ff fd9c 	bl	1c40 <event_wakeup>
    2108:	6138      	str	r0, [r7, #16]
    210a:	693b      	ldr	r3, [r7, #16]
    210c:	689a      	ldr	r2, [r3, #8]
    210e:	4b28      	ldr	r3, [pc, #160]	; (21b0 <mbox_send+0xd8>)
    2110:	681b      	ldr	r3, [r3, #0]
    2112:	689b      	ldr	r3, [r3, #8]
    2114:	429a      	cmp	r2, r3
    2116:	d243      	bcs.n	21a0 <mbox_send+0xc8>
    2118:	f7fe ffc6 	bl	10a8 <task_sched>
    211c:	e040      	b.n	21a0 <mbox_send+0xc8>
    211e:	68fb      	ldr	r3, [r7, #12]
    2120:	691a      	ldr	r2, [r3, #16]
    2122:	68fb      	ldr	r3, [r7, #12]
    2124:	69db      	ldr	r3, [r3, #28]
    2126:	429a      	cmp	r2, r3
    2128:	d304      	bcc.n	2134 <mbox_send+0x5c>
    212a:	6978      	ldr	r0, [r7, #20]
    212c:	f7ff f8fa 	bl	1324 <task_exit_critical>
    2130:	2303      	movs	r3, #3
    2132:	e039      	b.n	21a8 <mbox_send+0xd0>
    2134:	687a      	ldr	r2, [r7, #4]
    2136:	4b1f      	ldr	r3, [pc, #124]	; (21b4 <mbox_send+0xdc>)
    2138:	4013      	ands	r3, r2
    213a:	2b00      	cmp	r3, #0
    213c:	d017      	beq.n	216e <mbox_send+0x96>
    213e:	68fb      	ldr	r3, [r7, #12]
    2140:	695b      	ldr	r3, [r3, #20]
    2142:	2b00      	cmp	r3, #0
    2144:	d105      	bne.n	2152 <mbox_send+0x7a>
    2146:	68fb      	ldr	r3, [r7, #12]
    2148:	69db      	ldr	r3, [r3, #28]
    214a:	1e5a      	subs	r2, r3, #1
    214c:	68fb      	ldr	r3, [r7, #12]
    214e:	615a      	str	r2, [r3, #20]
    2150:	e004      	b.n	215c <mbox_send+0x84>
    2152:	68fb      	ldr	r3, [r7, #12]
    2154:	695b      	ldr	r3, [r3, #20]
    2156:	1e5a      	subs	r2, r3, #1
    2158:	68fb      	ldr	r3, [r7, #12]
    215a:	615a      	str	r2, [r3, #20]
    215c:	68fb      	ldr	r3, [r7, #12]
    215e:	6a1a      	ldr	r2, [r3, #32]
    2160:	68fb      	ldr	r3, [r7, #12]
    2162:	695b      	ldr	r3, [r3, #20]
    2164:	009b      	lsls	r3, r3, #2
    2166:	4413      	add	r3, r2
    2168:	68ba      	ldr	r2, [r7, #8]
    216a:	601a      	str	r2, [r3, #0]
    216c:	e013      	b.n	2196 <mbox_send+0xbe>
    216e:	68fb      	ldr	r3, [r7, #12]
    2170:	6a1a      	ldr	r2, [r3, #32]
    2172:	68fb      	ldr	r3, [r7, #12]
    2174:	699b      	ldr	r3, [r3, #24]
    2176:	1c58      	adds	r0, r3, #1
    2178:	68f9      	ldr	r1, [r7, #12]
    217a:	6188      	str	r0, [r1, #24]
    217c:	009b      	lsls	r3, r3, #2
    217e:	4413      	add	r3, r2
    2180:	68ba      	ldr	r2, [r7, #8]
    2182:	601a      	str	r2, [r3, #0]
    2184:	68fb      	ldr	r3, [r7, #12]
    2186:	699a      	ldr	r2, [r3, #24]
    2188:	68fb      	ldr	r3, [r7, #12]
    218a:	69db      	ldr	r3, [r3, #28]
    218c:	429a      	cmp	r2, r3
    218e:	d302      	bcc.n	2196 <mbox_send+0xbe>
    2190:	68fb      	ldr	r3, [r7, #12]
    2192:	2200      	movs	r2, #0
    2194:	619a      	str	r2, [r3, #24]
    2196:	68fb      	ldr	r3, [r7, #12]
    2198:	691b      	ldr	r3, [r3, #16]
    219a:	1c5a      	adds	r2, r3, #1
    219c:	68fb      	ldr	r3, [r7, #12]
    219e:	611a      	str	r2, [r3, #16]
    21a0:	6978      	ldr	r0, [r7, #20]
    21a2:	f7ff f8bf 	bl	1324 <task_exit_critical>
    21a6:	2300      	movs	r3, #0
    21a8:	4618      	mov	r0, r3
    21aa:	3718      	adds	r7, #24
    21ac:	46bd      	mov	sp, r7
    21ae:	bd80      	pop	{r7, pc}
    21b0:	20005954 	andcs	r5, r0, r4, asr r9
    21b4:	12345678 	eorsne	r5, r4, #120, 12	; 0x7800000

000021b8 <mbox_flush>:
    21b8:	b580      	push	{r7, lr}
    21ba:	b084      	sub	sp, #16
    21bc:	af00      	add	r7, sp, #0
    21be:	6078      	str	r0, [r7, #4]
    21c0:	f7ff f8a2 	bl	1308 <task_enter_critical>
    21c4:	60f8      	str	r0, [r7, #12]
    21c6:	687b      	ldr	r3, [r7, #4]
    21c8:	4618      	mov	r0, r3
    21ca:	f7ff fde7 	bl	1d9c <event_wait_count>
    21ce:	4603      	mov	r3, r0
    21d0:	2b00      	cmp	r3, #0
    21d2:	d108      	bne.n	21e6 <mbox_flush+0x2e>
    21d4:	687b      	ldr	r3, [r7, #4]
    21d6:	2200      	movs	r2, #0
    21d8:	615a      	str	r2, [r3, #20]
    21da:	687b      	ldr	r3, [r7, #4]
    21dc:	2200      	movs	r2, #0
    21de:	619a      	str	r2, [r3, #24]
    21e0:	687b      	ldr	r3, [r7, #4]
    21e2:	2200      	movs	r2, #0
    21e4:	611a      	str	r2, [r3, #16]
    21e6:	68f8      	ldr	r0, [r7, #12]
    21e8:	f7ff f89c 	bl	1324 <task_exit_critical>
    21ec:	3710      	adds	r7, #16
    21ee:	46bd      	mov	sp, r7
    21f0:	bd80      	pop	{r7, pc}
    21f2:	bf00      	nop

000021f4 <mbox_destory>:
    21f4:	b580      	push	{r7, lr}
    21f6:	b084      	sub	sp, #16
    21f8:	af00      	add	r7, sp, #0
    21fa:	6078      	str	r0, [r7, #4]
    21fc:	f7ff f884 	bl	1308 <task_enter_critical>
    2200:	60f8      	str	r0, [r7, #12]
    2202:	687b      	ldr	r3, [r7, #4]
    2204:	4618      	mov	r0, r3
    2206:	2100      	movs	r1, #0
    2208:	2202      	movs	r2, #2
    220a:	f7ff fd79 	bl	1d00 <event_remove_all>
    220e:	60b8      	str	r0, [r7, #8]
    2210:	68f8      	ldr	r0, [r7, #12]
    2212:	f7ff f887 	bl	1324 <task_exit_critical>
    2216:	68bb      	ldr	r3, [r7, #8]
    2218:	2b00      	cmp	r3, #0
    221a:	d001      	beq.n	2220 <mbox_destory+0x2c>
    221c:	f7fe ff44 	bl	10a8 <task_sched>
    2220:	68bb      	ldr	r3, [r7, #8]
    2222:	4618      	mov	r0, r3
    2224:	3710      	adds	r7, #16
    2226:	46bd      	mov	sp, r7
    2228:	bd80      	pop	{r7, pc}
    222a:	bf00      	nop

0000222c <mbox_get_info>:
    222c:	b580      	push	{r7, lr}
    222e:	b084      	sub	sp, #16
    2230:	af00      	add	r7, sp, #0
    2232:	6078      	str	r0, [r7, #4]
    2234:	6039      	str	r1, [r7, #0]
    2236:	f7ff f867 	bl	1308 <task_enter_critical>
    223a:	60f8      	str	r0, [r7, #12]
    223c:	687b      	ldr	r3, [r7, #4]
    223e:	691a      	ldr	r2, [r3, #16]
    2240:	683b      	ldr	r3, [r7, #0]
    2242:	601a      	str	r2, [r3, #0]
    2244:	687b      	ldr	r3, [r7, #4]
    2246:	69da      	ldr	r2, [r3, #28]
    2248:	683b      	ldr	r3, [r7, #0]
    224a:	605a      	str	r2, [r3, #4]
    224c:	687b      	ldr	r3, [r7, #4]
    224e:	4618      	mov	r0, r3
    2250:	f7ff fda4 	bl	1d9c <event_wait_count>
    2254:	4602      	mov	r2, r0
    2256:	683b      	ldr	r3, [r7, #0]
    2258:	609a      	str	r2, [r3, #8]
    225a:	68f8      	ldr	r0, [r7, #12]
    225c:	f7ff f862 	bl	1324 <task_exit_critical>
    2260:	3710      	adds	r7, #16
    2262:	46bd      	mov	sp, r7
    2264:	bd80      	pop	{r7, pc}
    2266:	bf00      	nop

00002268 <mem_block_init>:
    2268:	b580      	push	{r7, lr}
    226a:	b086      	sub	sp, #24
    226c:	af00      	add	r7, sp, #0
    226e:	60f8      	str	r0, [r7, #12]
    2270:	60b9      	str	r1, [r7, #8]
    2272:	607a      	str	r2, [r7, #4]
    2274:	603b      	str	r3, [r7, #0]
    2276:	68bb      	ldr	r3, [r7, #8]
    2278:	617b      	str	r3, [r7, #20]
    227a:	687b      	ldr	r3, [r7, #4]
    227c:	683a      	ldr	r2, [r7, #0]
    227e:	fb02 f303 	mul.w	r3, r2, r3
    2282:	697a      	ldr	r2, [r7, #20]
    2284:	4413      	add	r3, r2
    2286:	613b      	str	r3, [r7, #16]
    2288:	687b      	ldr	r3, [r7, #4]
    228a:	2b07      	cmp	r3, #7
    228c:	d800      	bhi.n	2290 <mem_block_init+0x28>
    228e:	e024      	b.n	22da <mem_block_init+0x72>
    2290:	68fb      	ldr	r3, [r7, #12]
    2292:	4618      	mov	r0, r3
    2294:	2103      	movs	r1, #3
    2296:	f7ff fc93 	bl	1bc0 <event_init>
    229a:	68fb      	ldr	r3, [r7, #12]
    229c:	68ba      	ldr	r2, [r7, #8]
    229e:	611a      	str	r2, [r3, #16]
    22a0:	68fb      	ldr	r3, [r7, #12]
    22a2:	687a      	ldr	r2, [r7, #4]
    22a4:	615a      	str	r2, [r3, #20]
    22a6:	68fb      	ldr	r3, [r7, #12]
    22a8:	683a      	ldr	r2, [r7, #0]
    22aa:	619a      	str	r2, [r3, #24]
    22ac:	68fb      	ldr	r3, [r7, #12]
    22ae:	331c      	adds	r3, #28
    22b0:	4618      	mov	r0, r3
    22b2:	f7ff fb1b 	bl	18ec <list_init>
    22b6:	e00c      	b.n	22d2 <mem_block_init+0x6a>
    22b8:	6978      	ldr	r0, [r7, #20]
    22ba:	f7ff fb05 	bl	18c8 <list_node_init>
    22be:	68fb      	ldr	r3, [r7, #12]
    22c0:	331c      	adds	r3, #28
    22c2:	4618      	mov	r0, r3
    22c4:	6979      	ldr	r1, [r7, #20]
    22c6:	f7ff fbed 	bl	1aa4 <list_append_last>
    22ca:	697a      	ldr	r2, [r7, #20]
    22cc:	687b      	ldr	r3, [r7, #4]
    22ce:	4413      	add	r3, r2
    22d0:	617b      	str	r3, [r7, #20]
    22d2:	697a      	ldr	r2, [r7, #20]
    22d4:	693b      	ldr	r3, [r7, #16]
    22d6:	429a      	cmp	r2, r3
    22d8:	d3ee      	bcc.n	22b8 <mem_block_init+0x50>
    22da:	bf00      	nop
    22dc:	3718      	adds	r7, #24
    22de:	46bd      	mov	sp, r7
    22e0:	bd80      	pop	{r7, pc}
    22e2:	bf00      	nop

000022e4 <mem_block_alloc>:
    22e4:	b580      	push	{r7, lr}
    22e6:	b088      	sub	sp, #32
    22e8:	af02      	add	r7, sp, #8
    22ea:	60f8      	str	r0, [r7, #12]
    22ec:	60b9      	str	r1, [r7, #8]
    22ee:	607a      	str	r2, [r7, #4]
    22f0:	f7ff f80a 	bl	1308 <task_enter_critical>
    22f4:	6178      	str	r0, [r7, #20]
    22f6:	68fb      	ldr	r3, [r7, #12]
    22f8:	331c      	adds	r3, #28
    22fa:	4618      	mov	r0, r3
    22fc:	f7ff fb08 	bl	1910 <list_count>
    2300:	4603      	mov	r3, r0
    2302:	2b00      	cmp	r3, #0
    2304:	d00c      	beq.n	2320 <mem_block_alloc+0x3c>
    2306:	68fb      	ldr	r3, [r7, #12]
    2308:	331c      	adds	r3, #28
    230a:	4618      	mov	r0, r3
    230c:	f7ff fbf4 	bl	1af8 <list_remove_first>
    2310:	4602      	mov	r2, r0
    2312:	68bb      	ldr	r3, [r7, #8]
    2314:	601a      	str	r2, [r3, #0]
    2316:	6978      	ldr	r0, [r7, #20]
    2318:	f7ff f804 	bl	1324 <task_exit_critical>
    231c:	2300      	movs	r3, #0
    231e:	e017      	b.n	2350 <mem_block_alloc+0x6c>
    2320:	68f9      	ldr	r1, [r7, #12]
    2322:	4b0d      	ldr	r3, [pc, #52]	; (2358 <mem_block_alloc+0x74>)
    2324:	681a      	ldr	r2, [r3, #0]
    2326:	687b      	ldr	r3, [r7, #4]
    2328:	9300      	str	r3, [sp, #0]
    232a:	4608      	mov	r0, r1
    232c:	4611      	mov	r1, r2
    232e:	2200      	movs	r2, #0
    2330:	2303      	movs	r3, #3
    2332:	f7ff fc57 	bl	1be4 <event_wait>
    2336:	6978      	ldr	r0, [r7, #20]
    2338:	f7fe fff4 	bl	1324 <task_exit_critical>
    233c:	f7fe feb4 	bl	10a8 <task_sched>
    2340:	4b05      	ldr	r3, [pc, #20]	; (2358 <mem_block_alloc+0x74>)
    2342:	681b      	ldr	r3, [r3, #0]
    2344:	6b9a      	ldr	r2, [r3, #56]	; 0x38
    2346:	68bb      	ldr	r3, [r7, #8]
    2348:	601a      	str	r2, [r3, #0]
    234a:	4b03      	ldr	r3, [pc, #12]	; (2358 <mem_block_alloc+0x74>)
    234c:	681b      	ldr	r3, [r3, #0]
    234e:	6bdb      	ldr	r3, [r3, #60]	; 0x3c
    2350:	4618      	mov	r0, r3
    2352:	3718      	adds	r7, #24
    2354:	46bd      	mov	sp, r7
    2356:	bd80      	pop	{r7, pc}
    2358:	20005954 	andcs	r5, r0, r4, asr r9

0000235c <mem_block_alloc_no_wait>:
    235c:	b580      	push	{r7, lr}
    235e:	b084      	sub	sp, #16
    2360:	af00      	add	r7, sp, #0
    2362:	6078      	str	r0, [r7, #4]
    2364:	6039      	str	r1, [r7, #0]
    2366:	f7fe ffcf 	bl	1308 <task_enter_critical>
    236a:	60f8      	str	r0, [r7, #12]
    236c:	687b      	ldr	r3, [r7, #4]
    236e:	331c      	adds	r3, #28
    2370:	4618      	mov	r0, r3
    2372:	f7ff facd 	bl	1910 <list_count>
    2376:	4603      	mov	r3, r0
    2378:	2b00      	cmp	r3, #0
    237a:	d00c      	beq.n	2396 <mem_block_alloc_no_wait+0x3a>
    237c:	687b      	ldr	r3, [r7, #4]
    237e:	331c      	adds	r3, #28
    2380:	4618      	mov	r0, r3
    2382:	f7ff fbb9 	bl	1af8 <list_remove_first>
    2386:	4602      	mov	r2, r0
    2388:	683b      	ldr	r3, [r7, #0]
    238a:	601a      	str	r2, [r3, #0]
    238c:	68f8      	ldr	r0, [r7, #12]
    238e:	f7fe ffc9 	bl	1324 <task_exit_critical>
    2392:	2300      	movs	r3, #0
    2394:	e003      	b.n	239e <mem_block_alloc_no_wait+0x42>
    2396:	68f8      	ldr	r0, [r7, #12]
    2398:	f7fe ffc4 	bl	1324 <task_exit_critical>
    239c:	2303      	movs	r3, #3
    239e:	4618      	mov	r0, r3
    23a0:	3710      	adds	r7, #16
    23a2:	46bd      	mov	sp, r7
    23a4:	bd80      	pop	{r7, pc}
    23a6:	bf00      	nop

000023a8 <mem_block_free>:
    23a8:	b580      	push	{r7, lr}
    23aa:	b084      	sub	sp, #16
    23ac:	af00      	add	r7, sp, #0
    23ae:	6078      	str	r0, [r7, #4]
    23b0:	6039      	str	r1, [r7, #0]
    23b2:	f7fe ffa9 	bl	1308 <task_enter_critical>
    23b6:	60f8      	str	r0, [r7, #12]
    23b8:	687b      	ldr	r3, [r7, #4]
    23ba:	4618      	mov	r0, r3
    23bc:	f7ff fcee 	bl	1d9c <event_wait_count>
    23c0:	4603      	mov	r3, r0
    23c2:	2b00      	cmp	r3, #0
    23c4:	d011      	beq.n	23ea <mem_block_free+0x42>
    23c6:	687b      	ldr	r3, [r7, #4]
    23c8:	4618      	mov	r0, r3
    23ca:	6839      	ldr	r1, [r7, #0]
    23cc:	2200      	movs	r2, #0
    23ce:	f7ff fc37 	bl	1c40 <event_wakeup>
    23d2:	60b8      	str	r0, [r7, #8]
    23d4:	68bb      	ldr	r3, [r7, #8]
    23d6:	689a      	ldr	r2, [r3, #8]
    23d8:	4b0a      	ldr	r3, [pc, #40]	; (2404 <mem_block_free+0x5c>)
    23da:	681b      	ldr	r3, [r3, #0]
    23dc:	689b      	ldr	r3, [r3, #8]
    23de:	429a      	cmp	r2, r3
    23e0:	d902      	bls.n	23e8 <mem_block_free+0x40>
    23e2:	f7fe fe61 	bl	10a8 <task_sched>
    23e6:	e006      	b.n	23f6 <mem_block_free+0x4e>
    23e8:	e005      	b.n	23f6 <mem_block_free+0x4e>
    23ea:	687b      	ldr	r3, [r7, #4]
    23ec:	331c      	adds	r3, #28
    23ee:	4618      	mov	r0, r3
    23f0:	6839      	ldr	r1, [r7, #0]
    23f2:	f7ff fb57 	bl	1aa4 <list_append_last>
    23f6:	68f8      	ldr	r0, [r7, #12]
    23f8:	f7fe ff94 	bl	1324 <task_exit_critical>
    23fc:	3710      	adds	r7, #16
    23fe:	46bd      	mov	sp, r7
    2400:	bd80      	pop	{r7, pc}
    2402:	bf00      	nop
    2404:	20005954 	andcs	r5, r0, r4, asr r9

00002408 <mem_block_get_info>:
    2408:	b580      	push	{r7, lr}
    240a:	b084      	sub	sp, #16
    240c:	af00      	add	r7, sp, #0
    240e:	6078      	str	r0, [r7, #4]
    2410:	6039      	str	r1, [r7, #0]
    2412:	f7fe ff79 	bl	1308 <task_enter_critical>
    2416:	60f8      	str	r0, [r7, #12]
    2418:	687b      	ldr	r3, [r7, #4]
    241a:	331c      	adds	r3, #28
    241c:	4618      	mov	r0, r3
    241e:	f7ff fa77 	bl	1910 <list_count>
    2422:	4602      	mov	r2, r0
    2424:	683b      	ldr	r3, [r7, #0]
    2426:	601a      	str	r2, [r3, #0]
    2428:	687b      	ldr	r3, [r7, #4]
    242a:	699a      	ldr	r2, [r3, #24]
    242c:	683b      	ldr	r3, [r7, #0]
    242e:	605a      	str	r2, [r3, #4]
    2430:	687b      	ldr	r3, [r7, #4]
    2432:	695a      	ldr	r2, [r3, #20]
    2434:	683b      	ldr	r3, [r7, #0]
    2436:	609a      	str	r2, [r3, #8]
    2438:	687b      	ldr	r3, [r7, #4]
    243a:	4618      	mov	r0, r3
    243c:	f7ff fcae 	bl	1d9c <event_wait_count>
    2440:	4602      	mov	r2, r0
    2442:	683b      	ldr	r3, [r7, #0]
    2444:	60da      	str	r2, [r3, #12]
    2446:	68f8      	ldr	r0, [r7, #12]
    2448:	f7fe ff6c 	bl	1324 <task_exit_critical>
    244c:	3710      	adds	r7, #16
    244e:	46bd      	mov	sp, r7
    2450:	bd80      	pop	{r7, pc}
    2452:	bf00      	nop

00002454 <mem_block_destory>:
    2454:	b580      	push	{r7, lr}
    2456:	b084      	sub	sp, #16
    2458:	af00      	add	r7, sp, #0
    245a:	6078      	str	r0, [r7, #4]
    245c:	f7fe ff54 	bl	1308 <task_enter_critical>
    2460:	60f8      	str	r0, [r7, #12]
    2462:	687b      	ldr	r3, [r7, #4]
    2464:	4618      	mov	r0, r3
    2466:	2100      	movs	r1, #0
    2468:	2202      	movs	r2, #2
    246a:	f7ff fc49 	bl	1d00 <event_remove_all>
    246e:	60b8      	str	r0, [r7, #8]
    2470:	68f8      	ldr	r0, [r7, #12]
    2472:	f7fe ff57 	bl	1324 <task_exit_critical>
    2476:	68bb      	ldr	r3, [r7, #8]
    2478:	2b00      	cmp	r3, #0
    247a:	d001      	beq.n	2480 <mem_block_destory+0x2c>
    247c:	f7fe fe14 	bl	10a8 <task_sched>
    2480:	68bb      	ldr	r3, [r7, #8]
    2482:	4618      	mov	r0, r3
    2484:	3710      	adds	r7, #16
    2486:	46bd      	mov	sp, r7
    2488:	bd80      	pop	{r7, pc}
    248a:	bf00      	nop
    248c:	44746e49 	ldrbtmi	r6, [r4], #-3657	; 0xfffff1b7
    2490:	75616665 	strbvc	r6, [r1, #-1637]!	; 0xfffff99b
    2494:	6148746c 	cmpvs	r8, ip, ror #8
    2498:	656c646e 	strbvs	r6, [ip, #-1134]!	; 0xfffffb92
    249c:	00000a72 	andeq	r0, r0, r2, ror sl
    24a0:	233a7325 	teqcs	sl, #-1811939328	; 0x94000000
    24a4:	23232323 			; <UNDEFINED> instruction: 0x23232323
    24a8:	00000a31 	andeq	r0, r0, r1, lsr sl
    24ac:	233a7325 	teqcs	sl, #-1811939328	; 0x94000000
    24b0:	23232323 			; <UNDEFINED> instruction: 0x23232323
    24b4:	00000a32 	andeq	r0, r0, r2, lsr sl
    24b8:	000a7325 	andeq	r7, sl, r5, lsr #6
    24bc:	253a7325 	ldrcs	r7, [sl, #-805]!	; 0xfffffcdb
    24c0:	00000a78 	andeq	r0, r0, r8, ror sl
    24c4:	6c6c6548 	cfstr64vs	mvdx6, [ip], #-288	; 0xfffffee0
    24c8:	5452206f 	ldrbpl	r2, [r2], #-111	; 0xffffff91
    24cc:	4320534f 			; <UNDEFINED> instruction: 0x4320534f
    24d0:	445f3330 	ldrbmi	r3, [pc], #-816	; 24d8 <mem_block_destory+0x84>
    24d4:	79616c65 	stmdbvc	r1!, {r0, r2, r5, r6, sl, fp, sp, lr}^
    24d8:	73694c5f 	cmnvc	r9, #24320	; 0x5f00
    24dc:	00000a74 	andeq	r0, r0, r4, ror sl
    24e0:	3a707370 	bcc	1c1f2a8 <_etext+0x1c1cbaf>
    24e4:	78257830 	stmdavc	r5!, {r4, r5, fp, ip, sp, lr}
    24e8:	0000000a 	andeq	r0, r0, sl
    24ec:	3a70736d 	bcc	1c1f2a8 <_etext+0x1c1cbaf>
    24f0:	78257830 	stmdavc	r5!, {r4, r5, fp, ip, sp, lr}
    24f4:	0000000a 	andeq	r0, r0, sl

000024f8 <__func__.3972>:
    24f8:	6b736174 	blvs	1cdaad0 <_etext+0x1cd83d7>
    24fc:	6e655f31 	mcrvs	15, 3, r5, cr5, cr1, {1}
    2500:	00797274 	rsbseq	r7, r9, r4, ror r2

00002504 <__func__.3984>:
    2504:	6b736174 	blvs	1cdaadc <_etext+0x1cd83e3>
    2508:	6e655f32 	mcrvs	15, 3, r5, cr5, cr2, {1}
    250c:	00797274 	rsbseq	r7, r9, r4, ror r2

00002510 <__func__.3989>:
    2510:	6b736174 	blvs	1cdaae8 <_etext+0x1cd83ef>
    2514:	6e655f33 	mcrvs	15, 3, r5, cr5, cr3, {1}
    2518:	00797274 	rsbseq	r7, r9, r4, ror r2

0000251c <__func__.3994>:
    251c:	6b736174 	blvs	1cdaaf4 <_etext+0x1cd83fb>
    2520:	6e655f34 	mcrvs	15, 3, r5, cr5, cr4, {1}
    2524:	00797274 	rsbseq	r7, r9, r4, ror r2

00002528 <UART0DR>:
    2528:	4000c000 	andmi	ip, r0, r0

0000252c <hex_asc_table>:
    252c:	33323130 	teqcc	r2, #48, 2
    2530:	37363534 			; <UNDEFINED> instruction: 0x37363534
    2534:	62613938 	rsbvs	r3, r1, #56, 18	; 0xe0000
    2538:	66656463 	strbtvs	r6, [r5], -r3, ror #8

0000253c <upper_hex_asc_table>:
    253c:	33323130 	teqcc	r2, #48, 2
    2540:	37363534 			; <UNDEFINED> instruction: 0x37363534
    2544:	42413938 	submi	r3, r1, #56, 18	; 0xe0000
    2548:	46454443 	strbmi	r4, [r5], -r3, asr #8

0000254c <hex_weight_value_table>:
    254c:	00000001 	andeq	r0, r0, r1
    2550:	0000000a 	andeq	r0, r0, sl
    2554:	00000064 	andeq	r0, r0, r4, rrx
    2558:	000003e8 	andeq	r0, r0, r8, ror #7
    255c:	00002710 	andeq	r2, r0, r0, lsl r7
    2560:	000186a0 	andeq	r8, r1, r0, lsr #13
    2564:	000f4240 	andeq	r4, pc, r0, asr #4
    2568:	00989680 	addseq	r9, r8, r0, lsl #13
    256c:	05f5e100 	ldrbeq	lr, [r5, #256]!	; 0x100
    2570:	000a7325 	andeq	r7, sl, r5, lsr #6
    2574:	6b736154 	blvs	1cdaacc <_etext+0x1cd83d3>
    2578:	666e6920 	strbtvs	r6, [lr], -r0, lsr #18
    257c:	000a3a6f 	andeq	r3, sl, pc, ror #20
    2580:	616c6564 	cmnvs	ip, r4, ror #10
    2584:	69745f79 	ldmdbvs	r4!, {r0, r3, r4, r5, r6, r8, r9, sl, fp, ip, lr}^
    2588:	3a736b63 	bcc	1cdd31c <_etext+0x1cdac23>
    258c:	000a6425 	andeq	r6, sl, r5, lsr #8
    2590:	6f697270 	svcvs	0x00697270
    2594:	0a64253a 	beq	190ba84 <_etext+0x190938b>
    2598:	00000000 	andeq	r0, r0, r0
    259c:	63696c73 	cmnvs	r9, #29440	; 0x7300
    25a0:	64253a65 	strtvs	r3, [r5], #-2661	; 0xfffff59b
    25a4:	0000000a 	andeq	r0, r0, sl
    25a8:	70737573 	rsbsvc	r7, r3, r3, ror r5
    25ac:	5f646e65 	svcpl	0x00646e65
    25b0:	3a746e63 	bcc	1d1df44 <_etext+0x1d1b84b>
    25b4:	000a6425 	andeq	r6, sl, r5, lsr #8

000025b8 <__func__.3935>:
    25b8:	6b736174 	blvs	1cdab90 <_etext+0x1cd8497>
    25bc:	696e695f 	stmdbvs	lr!, {r0, r1, r2, r3, r4, r6, r8, fp, sp, lr}^
    25c0:	00000074 	andeq	r0, r0, r4, ror r0

000025c4 <__func__.3946>:
    25c4:	6b736174 	blvs	1cdab9c <_etext+0x1cd84a3>
    25c8:	6e75725f 	mrcvs	2, 3, r7, cr5, cr15, {2}
    25cc:	7269665f 	rsbvc	r6, r9, #99614720	; 0x5f00000
    25d0:	00007473 	andeq	r7, r0, r3, ror r4

000025d4 <quick_table.3774>:
    25d4:	000100ff 	strdeq	r0, [r1], -pc	; <UNPREDICTABLE>
    25d8:	00010002 	andeq	r0, r1, r2
    25dc:	00010003 	andeq	r0, r1, r3
    25e0:	00010002 	andeq	r0, r1, r2
    25e4:	00010004 	andeq	r0, r1, r4
    25e8:	00010002 	andeq	r0, r1, r2
    25ec:	00010003 	andeq	r0, r1, r3
    25f0:	00010002 	andeq	r0, r1, r2
    25f4:	00010005 	andeq	r0, r1, r5
    25f8:	00010002 	andeq	r0, r1, r2
    25fc:	00010003 	andeq	r0, r1, r3
    2600:	00010002 	andeq	r0, r1, r2
    2604:	00010004 	andeq	r0, r1, r4
    2608:	00010002 	andeq	r0, r1, r2
    260c:	00010003 	andeq	r0, r1, r3
    2610:	00010002 	andeq	r0, r1, r2
    2614:	00010006 	andeq	r0, r1, r6
    2618:	00010002 	andeq	r0, r1, r2
    261c:	00010003 	andeq	r0, r1, r3
    2620:	00010002 	andeq	r0, r1, r2
    2624:	00010004 	andeq	r0, r1, r4
    2628:	00010002 	andeq	r0, r1, r2
    262c:	00010003 	andeq	r0, r1, r3
    2630:	00010002 	andeq	r0, r1, r2
    2634:	00010005 	andeq	r0, r1, r5
    2638:	00010002 	andeq	r0, r1, r2
    263c:	00010003 	andeq	r0, r1, r3
    2640:	00010002 	andeq	r0, r1, r2
    2644:	00010004 	andeq	r0, r1, r4
    2648:	00010002 	andeq	r0, r1, r2
    264c:	00010003 	andeq	r0, r1, r3
    2650:	00010002 	andeq	r0, r1, r2
    2654:	00010007 	andeq	r0, r1, r7
    2658:	00010002 	andeq	r0, r1, r2
    265c:	00010003 	andeq	r0, r1, r3
    2660:	00010002 	andeq	r0, r1, r2
    2664:	00010004 	andeq	r0, r1, r4
    2668:	00010002 	andeq	r0, r1, r2
    266c:	00010003 	andeq	r0, r1, r3
    2670:	00010002 	andeq	r0, r1, r2
    2674:	00010005 	andeq	r0, r1, r5
    2678:	00010002 	andeq	r0, r1, r2
    267c:	00010003 	andeq	r0, r1, r3
    2680:	00010002 	andeq	r0, r1, r2
    2684:	00010004 	andeq	r0, r1, r4
    2688:	00010002 	andeq	r0, r1, r2
    268c:	00010003 	andeq	r0, r1, r3
    2690:	00010002 	andeq	r0, r1, r2
    2694:	00010006 	andeq	r0, r1, r6
    2698:	00010002 	andeq	r0, r1, r2
    269c:	00010003 	andeq	r0, r1, r3
    26a0:	00010002 	andeq	r0, r1, r2
    26a4:	00010004 	andeq	r0, r1, r4
    26a8:	00010002 	andeq	r0, r1, r2
    26ac:	00010003 	andeq	r0, r1, r3
    26b0:	00010002 	andeq	r0, r1, r2
    26b4:	00010005 	andeq	r0, r1, r5
    26b8:	00010002 	andeq	r0, r1, r2
    26bc:	00010003 	andeq	r0, r1, r3
    26c0:	00010002 	andeq	r0, r1, r2
    26c4:	00010004 	andeq	r0, r1, r4
    26c8:	00010002 	andeq	r0, r1, r2
    26cc:	00010003 	andeq	r0, r1, r3
    26d0:	00010002 	andeq	r0, r1, r2
    26d4:	0a3a7325 	beq	e9f370 <_etext+0xe9cc77>
    26d8:	00000000 	andeq	r0, r0, r0
    26dc:	23232323 			; <UNDEFINED> instruction: 0x23232323
    26e0:	23232323 			; <UNDEFINED> instruction: 0x23232323
    26e4:	0000000a 	andeq	r0, r0, sl

000026e8 <__func__.3920>:
    26e8:	6e657665 	cdpvs	6, 6, cr7, cr5, cr5, {3}
    26ec:	65725f74 	ldrbvs	r5, [r2, #-3956]!	; 0xfffff08c
    26f0:	65766f6d 	ldrbvs	r6, [r6, #-3949]!	; 0xfffff093
    26f4:	6c6c615f 	stfvse	f6, [ip], #-380	; 0xfffffe84
	...
