
rtos.elf:     file format elf32-littlearm


Disassembly of section .text:

00000000 <_text>:
       0:	2000c000 	andcs	ip, r0, r0
       4:	00000de5 	andeq	r0, r0, r5, ror #27
       8:	0000026d 	andeq	r0, r0, sp, ror #4
       c:	00000275 	andeq	r0, r0, r5, ror r2
      10:	0000027d 	andeq	r0, r0, sp, ror r2
      14:	0000027d 	andeq	r0, r0, sp, ror r2
      18:	0000027d 	andeq	r0, r0, sp, ror r2
	...
      2c:	0000027d 	andeq	r0, r0, sp, ror r2
      30:	0000027d 	andeq	r0, r0, sp, ror r2
      34:	00000000 	andeq	r0, r0, r0
      38:	00000e1b 	andeq	r0, r0, fp, lsl lr
      3c:	00000435 	andeq	r0, r0, r5, lsr r4
      40:	0000027d 	andeq	r0, r0, sp, ror r2
      44:	0000027d 	andeq	r0, r0, sp, ror r2
      48:	0000027d 	andeq	r0, r0, sp, ror r2
      4c:	0000027d 	andeq	r0, r0, sp, ror r2
      50:	0000027d 	andeq	r0, r0, sp, ror r2
      54:	0000027d 	andeq	r0, r0, sp, ror r2
      58:	0000027d 	andeq	r0, r0, sp, ror r2
      5c:	0000027d 	andeq	r0, r0, sp, ror r2
      60:	0000027d 	andeq	r0, r0, sp, ror r2
      64:	0000027d 	andeq	r0, r0, sp, ror r2
      68:	0000027d 	andeq	r0, r0, sp, ror r2
      6c:	0000027d 	andeq	r0, r0, sp, ror r2
      70:	0000027d 	andeq	r0, r0, sp, ror r2
      74:	0000027d 	andeq	r0, r0, sp, ror r2
      78:	0000027d 	andeq	r0, r0, sp, ror r2
      7c:	0000027d 	andeq	r0, r0, sp, ror r2
      80:	0000027d 	andeq	r0, r0, sp, ror r2
      84:	0000027d 	andeq	r0, r0, sp, ror r2
      88:	0000027d 	andeq	r0, r0, sp, ror r2
      8c:	0000027d 	andeq	r0, r0, sp, ror r2
      90:	0000027d 	andeq	r0, r0, sp, ror r2
      94:	0000027d 	andeq	r0, r0, sp, ror r2
      98:	0000027d 	andeq	r0, r0, sp, ror r2
      9c:	0000027d 	andeq	r0, r0, sp, ror r2
      a0:	0000027d 	andeq	r0, r0, sp, ror r2
      a4:	0000027d 	andeq	r0, r0, sp, ror r2
      a8:	0000027d 	andeq	r0, r0, sp, ror r2
      ac:	0000027d 	andeq	r0, r0, sp, ror r2
      b0:	0000027d 	andeq	r0, r0, sp, ror r2
      b4:	0000027d 	andeq	r0, r0, sp, ror r2
      b8:	0000027d 	andeq	r0, r0, sp, ror r2
      bc:	0000027d 	andeq	r0, r0, sp, ror r2
      c0:	0000027d 	andeq	r0, r0, sp, ror r2
      c4:	0000027d 	andeq	r0, r0, sp, ror r2
      c8:	0000027d 	andeq	r0, r0, sp, ror r2
      cc:	0000027d 	andeq	r0, r0, sp, ror r2
      d0:	0000027d 	andeq	r0, r0, sp, ror r2
      d4:	0000027d 	andeq	r0, r0, sp, ror r2
      d8:	0000027d 	andeq	r0, r0, sp, ror r2
      dc:	0000027d 	andeq	r0, r0, sp, ror r2
      e0:	0000027d 	andeq	r0, r0, sp, ror r2
      e4:	0000027d 	andeq	r0, r0, sp, ror r2
      e8:	0000027d 	andeq	r0, r0, sp, ror r2
      ec:	0000027d 	andeq	r0, r0, sp, ror r2
      f0:	0000027d 	andeq	r0, r0, sp, ror r2
      f4:	0000027d 	andeq	r0, r0, sp, ror r2
      f8:	0000027d 	andeq	r0, r0, sp, ror r2
      fc:	0000027d 	andeq	r0, r0, sp, ror r2
     100:	0000027d 	andeq	r0, r0, sp, ror r2
     104:	0000027d 	andeq	r0, r0, sp, ror r2
     108:	0000027d 	andeq	r0, r0, sp, ror r2
     10c:	0000027d 	andeq	r0, r0, sp, ror r2
     110:	0000027d 	andeq	r0, r0, sp, ror r2
     114:	0000027d 	andeq	r0, r0, sp, ror r2
     118:	0000027d 	andeq	r0, r0, sp, ror r2
     11c:	0000027d 	andeq	r0, r0, sp, ror r2
     120:	0000027d 	andeq	r0, r0, sp, ror r2
     124:	0000027d 	andeq	r0, r0, sp, ror r2
     128:	0000027d 	andeq	r0, r0, sp, ror r2
     12c:	0000027d 	andeq	r0, r0, sp, ror r2
     130:	0000027d 	andeq	r0, r0, sp, ror r2
     134:	0000027d 	andeq	r0, r0, sp, ror r2
     138:	0000027d 	andeq	r0, r0, sp, ror r2
     13c:	0000027d 	andeq	r0, r0, sp, ror r2
	...
     150:	0000027d 	andeq	r0, r0, sp, ror r2
     154:	0000027d 	andeq	r0, r0, sp, ror r2
     158:	0000027d 	andeq	r0, r0, sp, ror r2
     15c:	0000027d 	andeq	r0, r0, sp, ror r2
	...
     1b0:	0000027d 	andeq	r0, r0, sp, ror r2
     1b4:	0000027d 	andeq	r0, r0, sp, ror r2
     1b8:	0000027d 	andeq	r0, r0, sp, ror r2
     1bc:	0000027d 	andeq	r0, r0, sp, ror r2
     1c0:	0000027d 	andeq	r0, r0, sp, ror r2
     1c4:	0000027d 	andeq	r0, r0, sp, ror r2
     1c8:	0000027d 	andeq	r0, r0, sp, ror r2
     1cc:	0000027d 	andeq	r0, r0, sp, ror r2
     1d0:	0000027d 	andeq	r0, r0, sp, ror r2
     1d4:	0000027d 	andeq	r0, r0, sp, ror r2
     1d8:	0000027d 	andeq	r0, r0, sp, ror r2
     1dc:	0000027d 	andeq	r0, r0, sp, ror r2
     1e0:	0000027d 	andeq	r0, r0, sp, ror r2
     1e4:	0000027d 	andeq	r0, r0, sp, ror r2
     1e8:	0000027d 	andeq	r0, r0, sp, ror r2
     1ec:	0000027d 	andeq	r0, r0, sp, ror r2
     1f0:	0000027d 	andeq	r0, r0, sp, ror r2
     1f4:	0000027d 	andeq	r0, r0, sp, ror r2
     1f8:	0000027d 	andeq	r0, r0, sp, ror r2
     1fc:	0000027d 	andeq	r0, r0, sp, ror r2
     200:	0000027d 	andeq	r0, r0, sp, ror r2
     204:	0000027d 	andeq	r0, r0, sp, ror r2
     208:	0000027d 	andeq	r0, r0, sp, ror r2
     20c:	00000000 	andeq	r0, r0, r0
     210:	0000027d 	andeq	r0, r0, sp, ror r2
     214:	0000027d 	andeq	r0, r0, sp, ror r2
     218:	0000027d 	andeq	r0, r0, sp, ror r2
     21c:	0000027d 	andeq	r0, r0, sp, ror r2
     220:	0000027d 	andeq	r0, r0, sp, ror r2
     224:	0000027d 	andeq	r0, r0, sp, ror r2
     228:	0000027d 	andeq	r0, r0, sp, ror r2
     22c:	0000027d 	andeq	r0, r0, sp, ror r2
     230:	0000027d 	andeq	r0, r0, sp, ror r2
     234:	0000027d 	andeq	r0, r0, sp, ror r2
     238:	0000027d 	andeq	r0, r0, sp, ror r2
     23c:	0000027d 	andeq	r0, r0, sp, ror r2
     240:	0000027d 	andeq	r0, r0, sp, ror r2
     244:	0000027d 	andeq	r0, r0, sp, ror r2
     248:	0000027d 	andeq	r0, r0, sp, ror r2
     24c:	0000027d 	andeq	r0, r0, sp, ror r2
     250:	0000027d 	andeq	r0, r0, sp, ror r2
     254:	0000027d 	andeq	r0, r0, sp, ror r2
     258:	0000027d 	andeq	r0, r0, sp, ror r2
     25c:	0000027d 	andeq	r0, r0, sp, ror r2
     260:	0000027d 	andeq	r0, r0, sp, ror r2
     264:	0000027d 	andeq	r0, r0, sp, ror r2
     268:	0000027d 	andeq	r0, r0, sp, ror r2

0000026c <NmiSR>:
     26c:	b480      	push	{r7}
     26e:	af00      	add	r7, sp, #0
     270:	e7fe      	b.n	270 <NmiSR+0x4>
     272:	bf00      	nop

00000274 <FaultISR>:
     274:	b480      	push	{r7}
     276:	af00      	add	r7, sp, #0
     278:	e7fe      	b.n	278 <FaultISR+0x4>
     27a:	bf00      	nop

0000027c <IntDefaultHandler>:
     27c:	b580      	push	{r7, lr}
     27e:	af00      	add	r7, sp, #0
     280:	4801      	ldr	r0, [pc, #4]	; (288 <IntDefaultHandler+0xc>)
     282:	f000 fb49 	bl	918 <printk>
     286:	e7fe      	b.n	286 <IntDefaultHandler+0xa>
     288:	0000188c 	andeq	r1, r0, ip, lsl #17

0000028c <clear_bss>:
     28c:	b480      	push	{r7}
     28e:	b083      	sub	sp, #12
     290:	af00      	add	r7, sp, #0
     292:	4b0a      	ldr	r3, [pc, #40]	; (2bc <clear_bss+0x30>)
     294:	681b      	ldr	r3, [r3, #0]
     296:	607b      	str	r3, [r7, #4]
     298:	e005      	b.n	2a6 <clear_bss+0x1a>
     29a:	687b      	ldr	r3, [r7, #4]
     29c:	2200      	movs	r2, #0
     29e:	701a      	strb	r2, [r3, #0]
     2a0:	687b      	ldr	r3, [r7, #4]
     2a2:	3301      	adds	r3, #1
     2a4:	607b      	str	r3, [r7, #4]
     2a6:	687a      	ldr	r2, [r7, #4]
     2a8:	4b05      	ldr	r3, [pc, #20]	; (2c0 <clear_bss+0x34>)
     2aa:	681b      	ldr	r3, [r3, #0]
     2ac:	429a      	cmp	r2, r3
     2ae:	d3f4      	bcc.n	29a <clear_bss+0xe>
     2b0:	370c      	adds	r7, #12
     2b2:	46bd      	mov	sp, r7
     2b4:	f85d 7b04 	ldr.w	r7, [sp], #4
     2b8:	4770      	bx	lr
     2ba:	bf00      	nop
     2bc:	20000000 	andcs	r0, r0, r0
     2c0:	20004240 	andcs	r4, r0, r0, asr #4

000002c4 <task1_entry>:
     2c4:	b580      	push	{r7, lr}
     2c6:	b082      	sub	sp, #8
     2c8:	af00      	add	r7, sp, #0
     2ca:	6078      	str	r0, [r7, #4]
     2cc:	200a      	movs	r0, #10
     2ce:	f000 f88f 	bl	3f0 <init_systick>
     2d2:	4806      	ldr	r0, [pc, #24]	; (2ec <task1_entry+0x28>)
     2d4:	4906      	ldr	r1, [pc, #24]	; (2f0 <task1_entry+0x2c>)
     2d6:	f000 fb1f 	bl	918 <printk>
     2da:	4806      	ldr	r0, [pc, #24]	; (2f4 <task1_entry+0x30>)
     2dc:	f001 f884 	bl	13e8 <task_suspend>
     2e0:	4805      	ldr	r0, [pc, #20]	; (2f8 <task1_entry+0x34>)
     2e2:	4903      	ldr	r1, [pc, #12]	; (2f0 <task1_entry+0x2c>)
     2e4:	f000 fb18 	bl	918 <printk>
     2e8:	e7f3      	b.n	2d2 <task1_entry+0xe>
     2ea:	bf00      	nop
     2ec:	000018a0 	andeq	r1, r0, r0, lsr #17
     2f0:	00001900 	andeq	r1, r0, r0, lsl #18
     2f4:	20002040 	andcs	r2, r0, r0, asr #32
     2f8:	000018b4 			; <UNDEFINED> instruction: 0x000018b4

000002fc <delay>:
     2fc:	b480      	push	{r7}
     2fe:	b083      	sub	sp, #12
     300:	af00      	add	r7, sp, #0
     302:	6078      	str	r0, [r7, #4]
     304:	bf00      	nop
     306:	687b      	ldr	r3, [r7, #4]
     308:	1e5a      	subs	r2, r3, #1
     30a:	607a      	str	r2, [r7, #4]
     30c:	2b00      	cmp	r3, #0
     30e:	d1fa      	bne.n	306 <delay+0xa>
     310:	370c      	adds	r7, #12
     312:	46bd      	mov	sp, r7
     314:	f85d 7b04 	ldr.w	r7, [sp], #4
     318:	4770      	bx	lr
     31a:	bf00      	nop

0000031c <task2_entry>:
     31c:	b580      	push	{r7, lr}
     31e:	b082      	sub	sp, #8
     320:	af00      	add	r7, sp, #0
     322:	6078      	str	r0, [r7, #4]
     324:	4805      	ldr	r0, [pc, #20]	; (33c <task2_entry+0x20>)
     326:	4906      	ldr	r1, [pc, #24]	; (340 <task2_entry+0x24>)
     328:	f000 faf6 	bl	918 <printk>
     32c:	2001      	movs	r0, #1
     32e:	f000 fead 	bl	108c <task_delay_s>
     332:	4804      	ldr	r0, [pc, #16]	; (344 <task2_entry+0x28>)
     334:	f001 f884 	bl	1440 <task_resume>
     338:	e7f4      	b.n	324 <task2_entry+0x8>
     33a:	bf00      	nop
     33c:	000018c8 	andeq	r1, r0, r8, asr #17
     340:	0000190c 	andeq	r1, r0, ip, lsl #18
     344:	20002040 	andcs	r2, r0, r0, asr #32

00000348 <task3_entry>:
     348:	b580      	push	{r7, lr}
     34a:	b082      	sub	sp, #8
     34c:	af00      	add	r7, sp, #0
     34e:	6078      	str	r0, [r7, #4]
     350:	4802      	ldr	r0, [pc, #8]	; (35c <task3_entry+0x14>)
     352:	4903      	ldr	r1, [pc, #12]	; (360 <task3_entry+0x18>)
     354:	f000 fae0 	bl	918 <printk>
     358:	e7fa      	b.n	350 <task3_entry+0x8>
     35a:	bf00      	nop
     35c:	000018c8 	andeq	r1, r0, r8, asr #17
     360:	00001918 	andeq	r1, r0, r8, lsl r9

00000364 <main>:
     364:	b580      	push	{r7, lr}
     366:	b082      	sub	sp, #8
     368:	af02      	add	r7, sp, #8
     36a:	f7ff ff8f 	bl	28c <clear_bss>
     36e:	4816      	ldr	r0, [pc, #88]	; (3c8 <main+0x64>)
     370:	f000 fad2 	bl	918 <printk>
     374:	f000 fd45 	bl	e02 <get_psp>
     378:	4603      	mov	r3, r0
     37a:	4814      	ldr	r0, [pc, #80]	; (3cc <main+0x68>)
     37c:	4619      	mov	r1, r3
     37e:	f000 facb 	bl	918 <printk>
     382:	f000 fd44 	bl	e0e <get_msp>
     386:	4603      	mov	r3, r0
     388:	4811      	ldr	r0, [pc, #68]	; (3d0 <main+0x6c>)
     38a:	4619      	mov	r1, r3
     38c:	f000 fac4 	bl	918 <printk>
     390:	f000 fefa 	bl	1188 <init_task_module>
     394:	4b0f      	ldr	r3, [pc, #60]	; (3d4 <main+0x70>)
     396:	9300      	str	r3, [sp, #0]
     398:	480f      	ldr	r0, [pc, #60]	; (3d8 <main+0x74>)
     39a:	4910      	ldr	r1, [pc, #64]	; (3dc <main+0x78>)
     39c:	f04f 3211 	mov.w	r2, #286331153	; 0x11111111
     3a0:	2300      	movs	r3, #0
     3a2:	f000 fd67 	bl	e74 <task_init>
     3a6:	4b0e      	ldr	r3, [pc, #56]	; (3e0 <main+0x7c>)
     3a8:	9300      	str	r3, [sp, #0]
     3aa:	480e      	ldr	r0, [pc, #56]	; (3e4 <main+0x80>)
     3ac:	490e      	ldr	r1, [pc, #56]	; (3e8 <main+0x84>)
     3ae:	f04f 3222 	mov.w	r2, #572662306	; 0x22222222
     3b2:	2301      	movs	r3, #1
     3b4:	f000 fd5e 	bl	e74 <task_init>
     3b8:	f000 ff76 	bl	12a8 <task_highest_ready>
     3bc:	4602      	mov	r2, r0
     3be:	4b0b      	ldr	r3, [pc, #44]	; (3ec <main+0x88>)
     3c0:	601a      	str	r2, [r3, #0]
     3c2:	f000 fe2d 	bl	1020 <task_run_first>
     3c6:	e7fe      	b.n	3c6 <main+0x62>
     3c8:	000018cc 	andeq	r1, r0, ip, asr #17
     3cc:	000018e8 	andeq	r1, r0, r8, ror #17
     3d0:	000018f4 	strdeq	r1, [r0], -r4
     3d4:	20002040 	andcs	r2, r0, r0, asr #32
     3d8:	20002040 	andcs	r2, r0, r0, asr #32
     3dc:	000002c5 	andeq	r0, r0, r5, asr #5
     3e0:	20003090 	mulcs	r0, r0, r0
     3e4:	20002068 	andcs	r2, r0, r8, rrx
     3e8:	0000031d 	andeq	r0, r0, sp, lsl r3
     3ec:	200040b8 	strhcs	r4, [r0], -r8

000003f0 <init_systick>:
     3f0:	b480      	push	{r7}
     3f2:	b085      	sub	sp, #20
     3f4:	af00      	add	r7, sp, #0
     3f6:	6078      	str	r0, [r7, #4]
     3f8:	4b0c      	ldr	r3, [pc, #48]	; (42c <init_systick+0x3c>)
     3fa:	60fb      	str	r3, [r7, #12]
     3fc:	4b0c      	ldr	r3, [pc, #48]	; (430 <init_systick+0x40>)
     3fe:	60bb      	str	r3, [r7, #8]
     400:	68bb      	ldr	r3, [r7, #8]
     402:	22f0      	movs	r2, #240	; 0xf0
     404:	701a      	strb	r2, [r3, #0]
     406:	687b      	ldr	r3, [r7, #4]
     408:	f642 62e0 	movw	r2, #12000	; 0x2ee0
     40c:	fb02 f303 	mul.w	r3, r2, r3
     410:	1e5a      	subs	r2, r3, #1
     412:	68fb      	ldr	r3, [r7, #12]
     414:	605a      	str	r2, [r3, #4]
     416:	68fb      	ldr	r3, [r7, #12]
     418:	2200      	movs	r2, #0
     41a:	609a      	str	r2, [r3, #8]
     41c:	68fb      	ldr	r3, [r7, #12]
     41e:	2207      	movs	r2, #7
     420:	601a      	str	r2, [r3, #0]
     422:	3714      	adds	r7, #20
     424:	46bd      	mov	sp, r7
     426:	f85d 7b04 	ldr.w	r7, [sp], #4
     42a:	4770      	bx	lr
     42c:	e000e010 	and	lr, r0, r0, lsl r0
     430:	e000ed23 	and	lr, r0, r3, lsr #26

00000434 <systick_handler>:
     434:	b580      	push	{r7, lr}
     436:	af00      	add	r7, sp, #0
     438:	f000 fe36 	bl	10a8 <task_system_tick_handler>
     43c:	bd80      	pop	{r7, pc}
     43e:	bf00      	nop

00000440 <trigger_pend_sv>:
     440:	b480      	push	{r7}
     442:	af00      	add	r7, sp, #0
     444:	4b05      	ldr	r3, [pc, #20]	; (45c <trigger_pend_sv+0x1c>)
     446:	22ff      	movs	r2, #255	; 0xff
     448:	701a      	strb	r2, [r3, #0]
     44a:	4b05      	ldr	r3, [pc, #20]	; (460 <trigger_pend_sv+0x20>)
     44c:	f04f 5280 	mov.w	r2, #268435456	; 0x10000000
     450:	601a      	str	r2, [r3, #0]
     452:	46bd      	mov	sp, r7
     454:	f85d 7b04 	ldr.w	r7, [sp], #4
     458:	4770      	bx	lr
     45a:	bf00      	nop
     45c:	e000ed22 	and	lr, r0, r2, lsr #26
     460:	e000ed04 	and	lr, r0, r4, lsl #26

00000464 <send_char>:
     464:	b480      	push	{r7}
     466:	b083      	sub	sp, #12
     468:	af00      	add	r7, sp, #0
     46a:	6078      	str	r0, [r7, #4]
     46c:	4a05      	ldr	r2, [pc, #20]	; (484 <send_char+0x20>)
     46e:	687b      	ldr	r3, [r7, #4]
     470:	781b      	ldrb	r3, [r3, #0]
     472:	6013      	str	r3, [r2, #0]
     474:	687b      	ldr	r3, [r7, #4]
     476:	781b      	ldrb	r3, [r3, #0]
     478:	4618      	mov	r0, r3
     47a:	370c      	adds	r7, #12
     47c:	46bd      	mov	sp, r7
     47e:	f85d 7b04 	ldr.w	r7, [sp], #4
     482:	4770      	bx	lr
     484:	4000c000 	andmi	ip, r0, r0

00000488 <is_dec_asc>:
     488:	b480      	push	{r7}
     48a:	b085      	sub	sp, #20
     48c:	af00      	add	r7, sp, #0
     48e:	4603      	mov	r3, r0
     490:	71fb      	strb	r3, [r7, #7]
     492:	2300      	movs	r3, #0
     494:	60fb      	str	r3, [r7, #12]
     496:	e00b      	b.n	4b0 <is_dec_asc+0x28>
     498:	4a0a      	ldr	r2, [pc, #40]	; (4c4 <is_dec_asc+0x3c>)
     49a:	68fb      	ldr	r3, [r7, #12]
     49c:	4413      	add	r3, r2
     49e:	781b      	ldrb	r3, [r3, #0]
     4a0:	79fa      	ldrb	r2, [r7, #7]
     4a2:	429a      	cmp	r2, r3
     4a4:	d101      	bne.n	4aa <is_dec_asc+0x22>
     4a6:	2301      	movs	r3, #1
     4a8:	e006      	b.n	4b8 <is_dec_asc+0x30>
     4aa:	68fb      	ldr	r3, [r7, #12]
     4ac:	3301      	adds	r3, #1
     4ae:	60fb      	str	r3, [r7, #12]
     4b0:	68fb      	ldr	r3, [r7, #12]
     4b2:	2b09      	cmp	r3, #9
     4b4:	d9f0      	bls.n	498 <is_dec_asc+0x10>
     4b6:	2300      	movs	r3, #0
     4b8:	4618      	mov	r0, r3
     4ba:	3714      	adds	r7, #20
     4bc:	46bd      	mov	sp, r7
     4be:	f85d 7b04 	ldr.w	r7, [sp], #4
     4c2:	4770      	bx	lr
     4c4:	00001928 	andeq	r1, r0, r8, lsr #18

000004c8 <is_asc>:
     4c8:	b480      	push	{r7}
     4ca:	b083      	sub	sp, #12
     4cc:	af00      	add	r7, sp, #0
     4ce:	4603      	mov	r3, r0
     4d0:	71fb      	strb	r3, [r7, #7]
     4d2:	79fb      	ldrb	r3, [r7, #7]
     4d4:	2b40      	cmp	r3, #64	; 0x40
     4d6:	d902      	bls.n	4de <is_asc+0x16>
     4d8:	79fb      	ldrb	r3, [r7, #7]
     4da:	2b5a      	cmp	r3, #90	; 0x5a
     4dc:	d905      	bls.n	4ea <is_asc+0x22>
     4de:	79fb      	ldrb	r3, [r7, #7]
     4e0:	2b60      	cmp	r3, #96	; 0x60
     4e2:	d904      	bls.n	4ee <is_asc+0x26>
     4e4:	79fb      	ldrb	r3, [r7, #7]
     4e6:	2b7a      	cmp	r3, #122	; 0x7a
     4e8:	d801      	bhi.n	4ee <is_asc+0x26>
     4ea:	2301      	movs	r3, #1
     4ec:	e000      	b.n	4f0 <is_asc+0x28>
     4ee:	2300      	movs	r3, #0
     4f0:	4618      	mov	r0, r3
     4f2:	370c      	adds	r7, #12
     4f4:	46bd      	mov	sp, r7
     4f6:	f85d 7b04 	ldr.w	r7, [sp], #4
     4fa:	4770      	bx	lr

000004fc <is_hex_asc>:
     4fc:	b480      	push	{r7}
     4fe:	b083      	sub	sp, #12
     500:	af00      	add	r7, sp, #0
     502:	4603      	mov	r3, r0
     504:	71fb      	strb	r3, [r7, #7]
     506:	79fb      	ldrb	r3, [r7, #7]
     508:	2b2f      	cmp	r3, #47	; 0x2f
     50a:	d902      	bls.n	512 <is_hex_asc+0x16>
     50c:	79fb      	ldrb	r3, [r7, #7]
     50e:	2b39      	cmp	r3, #57	; 0x39
     510:	d90b      	bls.n	52a <is_hex_asc+0x2e>
     512:	79fb      	ldrb	r3, [r7, #7]
     514:	2b40      	cmp	r3, #64	; 0x40
     516:	d902      	bls.n	51e <is_hex_asc+0x22>
     518:	79fb      	ldrb	r3, [r7, #7]
     51a:	2b46      	cmp	r3, #70	; 0x46
     51c:	d905      	bls.n	52a <is_hex_asc+0x2e>
     51e:	79fb      	ldrb	r3, [r7, #7]
     520:	2b60      	cmp	r3, #96	; 0x60
     522:	d904      	bls.n	52e <is_hex_asc+0x32>
     524:	79fb      	ldrb	r3, [r7, #7]
     526:	2b66      	cmp	r3, #102	; 0x66
     528:	d801      	bhi.n	52e <is_hex_asc+0x32>
     52a:	2301      	movs	r3, #1
     52c:	e000      	b.n	530 <is_hex_asc+0x34>
     52e:	2300      	movs	r3, #0
     530:	4618      	mov	r0, r3
     532:	370c      	adds	r7, #12
     534:	46bd      	mov	sp, r7
     536:	f85d 7b04 	ldr.w	r7, [sp], #4
     53a:	4770      	bx	lr

0000053c <printf_char>:
     53c:	b580      	push	{r7, lr}
     53e:	b084      	sub	sp, #16
     540:	af00      	add	r7, sp, #0
     542:	4603      	mov	r3, r0
     544:	71fb      	strb	r3, [r7, #7]
     546:	230d      	movs	r3, #13
     548:	73fb      	strb	r3, [r7, #15]
     54a:	2300      	movs	r3, #0
     54c:	73bb      	strb	r3, [r7, #14]
     54e:	79fb      	ldrb	r3, [r7, #7]
     550:	73bb      	strb	r3, [r7, #14]
     552:	f107 030e 	add.w	r3, r7, #14
     556:	4618      	mov	r0, r3
     558:	f7ff ff84 	bl	464 <send_char>
     55c:	7bbb      	ldrb	r3, [r7, #14]
     55e:	2b0a      	cmp	r3, #10
     560:	d104      	bne.n	56c <printf_char+0x30>
     562:	f107 030f 	add.w	r3, r7, #15
     566:	4618      	mov	r0, r3
     568:	f7ff ff7c 	bl	464 <send_char>
     56c:	2300      	movs	r3, #0
     56e:	4618      	mov	r0, r3
     570:	3710      	adds	r7, #16
     572:	46bd      	mov	sp, r7
     574:	bd80      	pop	{r7, pc}
     576:	bf00      	nop

00000578 <printf_str>:
     578:	b580      	push	{r7, lr}
     57a:	b082      	sub	sp, #8
     57c:	af00      	add	r7, sp, #0
     57e:	6078      	str	r0, [r7, #4]
     580:	e007      	b.n	592 <printf_str+0x1a>
     582:	687b      	ldr	r3, [r7, #4]
     584:	781b      	ldrb	r3, [r3, #0]
     586:	4618      	mov	r0, r3
     588:	f7ff ffd8 	bl	53c <printf_char>
     58c:	687b      	ldr	r3, [r7, #4]
     58e:	3301      	adds	r3, #1
     590:	607b      	str	r3, [r7, #4]
     592:	687b      	ldr	r3, [r7, #4]
     594:	2b00      	cmp	r3, #0
     596:	d003      	beq.n	5a0 <printf_str+0x28>
     598:	687b      	ldr	r3, [r7, #4]
     59a:	781b      	ldrb	r3, [r3, #0]
     59c:	2b00      	cmp	r3, #0
     59e:	d1f0      	bne.n	582 <printf_str+0xa>
     5a0:	2300      	movs	r3, #0
     5a2:	4618      	mov	r0, r3
     5a4:	3708      	adds	r7, #8
     5a6:	46bd      	mov	sp, r7
     5a8:	bd80      	pop	{r7, pc}
     5aa:	bf00      	nop

000005ac <printf_hex>:
     5ac:	b580      	push	{r7, lr}
     5ae:	b084      	sub	sp, #16
     5b0:	af00      	add	r7, sp, #0
     5b2:	6078      	str	r0, [r7, #4]
     5b4:	6039      	str	r1, [r7, #0]
     5b6:	2300      	movs	r3, #0
     5b8:	60fb      	str	r3, [r7, #12]
     5ba:	2300      	movs	r3, #0
     5bc:	72fb      	strb	r3, [r7, #11]
     5be:	2300      	movs	r3, #0
     5c0:	72bb      	strb	r3, [r7, #10]
     5c2:	683b      	ldr	r3, [r7, #0]
     5c4:	2b08      	cmp	r3, #8
     5c6:	d802      	bhi.n	5ce <printf_hex+0x22>
     5c8:	683b      	ldr	r3, [r7, #0]
     5ca:	2b00      	cmp	r3, #0
     5cc:	d101      	bne.n	5d2 <printf_hex+0x26>
     5ce:	2308      	movs	r3, #8
     5d0:	603b      	str	r3, [r7, #0]
     5d2:	683b      	ldr	r3, [r7, #0]
     5d4:	3b01      	subs	r3, #1
     5d6:	60fb      	str	r3, [r7, #12]
     5d8:	e017      	b.n	60a <printf_hex+0x5e>
     5da:	68fb      	ldr	r3, [r7, #12]
     5dc:	009b      	lsls	r3, r3, #2
     5de:	220f      	movs	r2, #15
     5e0:	fa02 f303 	lsl.w	r3, r2, r3
     5e4:	461a      	mov	r2, r3
     5e6:	687b      	ldr	r3, [r7, #4]
     5e8:	401a      	ands	r2, r3
     5ea:	68fb      	ldr	r3, [r7, #12]
     5ec:	009b      	lsls	r3, r3, #2
     5ee:	fa22 f303 	lsr.w	r3, r2, r3
     5f2:	72fb      	strb	r3, [r7, #11]
     5f4:	7afb      	ldrb	r3, [r7, #11]
     5f6:	4a09      	ldr	r2, [pc, #36]	; (61c <printf_hex+0x70>)
     5f8:	5cd3      	ldrb	r3, [r2, r3]
     5fa:	72bb      	strb	r3, [r7, #10]
     5fc:	7abb      	ldrb	r3, [r7, #10]
     5fe:	4618      	mov	r0, r3
     600:	f7ff ff9c 	bl	53c <printf_char>
     604:	68fb      	ldr	r3, [r7, #12]
     606:	3b01      	subs	r3, #1
     608:	60fb      	str	r3, [r7, #12]
     60a:	68fb      	ldr	r3, [r7, #12]
     60c:	2b00      	cmp	r3, #0
     60e:	dae4      	bge.n	5da <printf_hex+0x2e>
     610:	2300      	movs	r3, #0
     612:	4618      	mov	r0, r3
     614:	3710      	adds	r7, #16
     616:	46bd      	mov	sp, r7
     618:	bd80      	pop	{r7, pc}
     61a:	bf00      	nop
     61c:	00001928 	andeq	r1, r0, r8, lsr #18

00000620 <printf_hex_upper>:
     620:	b580      	push	{r7, lr}
     622:	b084      	sub	sp, #16
     624:	af00      	add	r7, sp, #0
     626:	6078      	str	r0, [r7, #4]
     628:	6039      	str	r1, [r7, #0]
     62a:	2300      	movs	r3, #0
     62c:	60fb      	str	r3, [r7, #12]
     62e:	2300      	movs	r3, #0
     630:	72fb      	strb	r3, [r7, #11]
     632:	2300      	movs	r3, #0
     634:	72bb      	strb	r3, [r7, #10]
     636:	683b      	ldr	r3, [r7, #0]
     638:	2b08      	cmp	r3, #8
     63a:	d802      	bhi.n	642 <printf_hex_upper+0x22>
     63c:	683b      	ldr	r3, [r7, #0]
     63e:	2b00      	cmp	r3, #0
     640:	d101      	bne.n	646 <printf_hex_upper+0x26>
     642:	2308      	movs	r3, #8
     644:	603b      	str	r3, [r7, #0]
     646:	683b      	ldr	r3, [r7, #0]
     648:	3b01      	subs	r3, #1
     64a:	60fb      	str	r3, [r7, #12]
     64c:	e017      	b.n	67e <printf_hex_upper+0x5e>
     64e:	68fb      	ldr	r3, [r7, #12]
     650:	009b      	lsls	r3, r3, #2
     652:	220f      	movs	r2, #15
     654:	fa02 f303 	lsl.w	r3, r2, r3
     658:	461a      	mov	r2, r3
     65a:	687b      	ldr	r3, [r7, #4]
     65c:	401a      	ands	r2, r3
     65e:	68fb      	ldr	r3, [r7, #12]
     660:	009b      	lsls	r3, r3, #2
     662:	fa22 f303 	lsr.w	r3, r2, r3
     666:	72fb      	strb	r3, [r7, #11]
     668:	7afb      	ldrb	r3, [r7, #11]
     66a:	4a09      	ldr	r2, [pc, #36]	; (690 <printf_hex_upper+0x70>)
     66c:	5cd3      	ldrb	r3, [r2, r3]
     66e:	72bb      	strb	r3, [r7, #10]
     670:	7abb      	ldrb	r3, [r7, #10]
     672:	4618      	mov	r0, r3
     674:	f7ff ff62 	bl	53c <printf_char>
     678:	68fb      	ldr	r3, [r7, #12]
     67a:	3b01      	subs	r3, #1
     67c:	60fb      	str	r3, [r7, #12]
     67e:	68fb      	ldr	r3, [r7, #12]
     680:	2b00      	cmp	r3, #0
     682:	dae4      	bge.n	64e <printf_hex_upper+0x2e>
     684:	2300      	movs	r3, #0
     686:	4618      	mov	r0, r3
     688:	3710      	adds	r7, #16
     68a:	46bd      	mov	sp, r7
     68c:	bd80      	pop	{r7, pc}
     68e:	bf00      	nop
     690:	00001938 	andeq	r1, r0, r8, lsr r9

00000694 <printf_dec>:
     694:	b580      	push	{r7, lr}
     696:	b086      	sub	sp, #24
     698:	af00      	add	r7, sp, #0
     69a:	6078      	str	r0, [r7, #4]
     69c:	2300      	movs	r3, #0
     69e:	617b      	str	r3, [r7, #20]
     6a0:	2301      	movs	r3, #1
     6a2:	613b      	str	r3, [r7, #16]
     6a4:	2301      	movs	r3, #1
     6a6:	60fb      	str	r3, [r7, #12]
     6a8:	2300      	movs	r3, #0
     6aa:	72fb      	strb	r3, [r7, #11]
     6ac:	693b      	ldr	r3, [r7, #16]
     6ae:	00da      	lsls	r2, r3, #3
     6b0:	693b      	ldr	r3, [r7, #16]
     6b2:	005b      	lsls	r3, r3, #1
     6b4:	4413      	add	r3, r2
     6b6:	613b      	str	r3, [r7, #16]
     6b8:	697b      	ldr	r3, [r7, #20]
     6ba:	3301      	adds	r3, #1
     6bc:	617b      	str	r3, [r7, #20]
     6be:	693a      	ldr	r2, [r7, #16]
     6c0:	687b      	ldr	r3, [r7, #4]
     6c2:	429a      	cmp	r2, r3
     6c4:	d904      	bls.n	6d0 <printf_dec+0x3c>
     6c6:	bf00      	nop
     6c8:	697b      	ldr	r3, [r7, #20]
     6ca:	2b08      	cmp	r3, #8
     6cc:	d904      	bls.n	6d8 <printf_dec+0x44>
     6ce:	e000      	b.n	6d2 <printf_dec+0x3e>
     6d0:	e7ec      	b.n	6ac <printf_dec+0x18>
     6d2:	f04f 33ff 	mov.w	r3, #4294967295	; 0xffffffff
     6d6:	e10e      	b.n	8f6 <printf_dec+0x262>
     6d8:	e108      	b.n	8ec <printf_dec+0x258>
     6da:	697b      	ldr	r3, [r7, #20]
     6dc:	3b01      	subs	r3, #1
     6de:	4a88      	ldr	r2, [pc, #544]	; (900 <printf_dec+0x26c>)
     6e0:	f852 3023 	ldr.w	r3, [r2, r3, lsl #2]
     6e4:	00da      	lsls	r2, r3, #3
     6e6:	697b      	ldr	r3, [r7, #20]
     6e8:	3b01      	subs	r3, #1
     6ea:	4985      	ldr	r1, [pc, #532]	; (900 <printf_dec+0x26c>)
     6ec:	f851 3023 	ldr.w	r3, [r1, r3, lsl #2]
     6f0:	441a      	add	r2, r3
     6f2:	687b      	ldr	r3, [r7, #4]
     6f4:	429a      	cmp	r2, r3
     6f6:	d80f      	bhi.n	718 <printf_dec+0x84>
     6f8:	2309      	movs	r3, #9
     6fa:	613b      	str	r3, [r7, #16]
     6fc:	697b      	ldr	r3, [r7, #20]
     6fe:	3b01      	subs	r3, #1
     700:	4a7f      	ldr	r2, [pc, #508]	; (900 <printf_dec+0x26c>)
     702:	f852 3023 	ldr.w	r3, [r2, r3, lsl #2]
     706:	00da      	lsls	r2, r3, #3
     708:	697b      	ldr	r3, [r7, #20]
     70a:	3b01      	subs	r3, #1
     70c:	497c      	ldr	r1, [pc, #496]	; (900 <printf_dec+0x26c>)
     70e:	f851 3023 	ldr.w	r3, [r1, r3, lsl #2]
     712:	4413      	add	r3, r2
     714:	60fb      	str	r3, [r7, #12]
     716:	e0d9      	b.n	8cc <printf_dec+0x238>
     718:	697b      	ldr	r3, [r7, #20]
     71a:	3b01      	subs	r3, #1
     71c:	4a78      	ldr	r2, [pc, #480]	; (900 <printf_dec+0x26c>)
     71e:	f852 3023 	ldr.w	r3, [r2, r3, lsl #2]
     722:	00da      	lsls	r2, r3, #3
     724:	687b      	ldr	r3, [r7, #4]
     726:	429a      	cmp	r2, r3
     728:	d809      	bhi.n	73e <printf_dec+0xaa>
     72a:	2308      	movs	r3, #8
     72c:	613b      	str	r3, [r7, #16]
     72e:	697b      	ldr	r3, [r7, #20]
     730:	3b01      	subs	r3, #1
     732:	4a73      	ldr	r2, [pc, #460]	; (900 <printf_dec+0x26c>)
     734:	f852 3023 	ldr.w	r3, [r2, r3, lsl #2]
     738:	00db      	lsls	r3, r3, #3
     73a:	60fb      	str	r3, [r7, #12]
     73c:	e0c6      	b.n	8cc <printf_dec+0x238>
     73e:	697b      	ldr	r3, [r7, #20]
     740:	3b01      	subs	r3, #1
     742:	4a6f      	ldr	r2, [pc, #444]	; (900 <printf_dec+0x26c>)
     744:	f852 3023 	ldr.w	r3, [r2, r3, lsl #2]
     748:	009a      	lsls	r2, r3, #2
     74a:	697b      	ldr	r3, [r7, #20]
     74c:	3b01      	subs	r3, #1
     74e:	496c      	ldr	r1, [pc, #432]	; (900 <printf_dec+0x26c>)
     750:	f851 3023 	ldr.w	r3, [r1, r3, lsl #2]
     754:	005b      	lsls	r3, r3, #1
     756:	441a      	add	r2, r3
     758:	697b      	ldr	r3, [r7, #20]
     75a:	3b01      	subs	r3, #1
     75c:	4968      	ldr	r1, [pc, #416]	; (900 <printf_dec+0x26c>)
     75e:	f851 3023 	ldr.w	r3, [r1, r3, lsl #2]
     762:	441a      	add	r2, r3
     764:	687b      	ldr	r3, [r7, #4]
     766:	429a      	cmp	r2, r3
     768:	d816      	bhi.n	798 <printf_dec+0x104>
     76a:	2307      	movs	r3, #7
     76c:	613b      	str	r3, [r7, #16]
     76e:	697b      	ldr	r3, [r7, #20]
     770:	3b01      	subs	r3, #1
     772:	4a63      	ldr	r2, [pc, #396]	; (900 <printf_dec+0x26c>)
     774:	f852 3023 	ldr.w	r3, [r2, r3, lsl #2]
     778:	009a      	lsls	r2, r3, #2
     77a:	697b      	ldr	r3, [r7, #20]
     77c:	3b01      	subs	r3, #1
     77e:	4960      	ldr	r1, [pc, #384]	; (900 <printf_dec+0x26c>)
     780:	f851 3023 	ldr.w	r3, [r1, r3, lsl #2]
     784:	005b      	lsls	r3, r3, #1
     786:	441a      	add	r2, r3
     788:	697b      	ldr	r3, [r7, #20]
     78a:	3b01      	subs	r3, #1
     78c:	495c      	ldr	r1, [pc, #368]	; (900 <printf_dec+0x26c>)
     78e:	f851 3023 	ldr.w	r3, [r1, r3, lsl #2]
     792:	4413      	add	r3, r2
     794:	60fb      	str	r3, [r7, #12]
     796:	e099      	b.n	8cc <printf_dec+0x238>
     798:	697b      	ldr	r3, [r7, #20]
     79a:	3b01      	subs	r3, #1
     79c:	4a58      	ldr	r2, [pc, #352]	; (900 <printf_dec+0x26c>)
     79e:	f852 3023 	ldr.w	r3, [r2, r3, lsl #2]
     7a2:	009a      	lsls	r2, r3, #2
     7a4:	697b      	ldr	r3, [r7, #20]
     7a6:	3b01      	subs	r3, #1
     7a8:	4955      	ldr	r1, [pc, #340]	; (900 <printf_dec+0x26c>)
     7aa:	f851 3023 	ldr.w	r3, [r1, r3, lsl #2]
     7ae:	005b      	lsls	r3, r3, #1
     7b0:	441a      	add	r2, r3
     7b2:	687b      	ldr	r3, [r7, #4]
     7b4:	429a      	cmp	r2, r3
     7b6:	d810      	bhi.n	7da <printf_dec+0x146>
     7b8:	2306      	movs	r3, #6
     7ba:	613b      	str	r3, [r7, #16]
     7bc:	697b      	ldr	r3, [r7, #20]
     7be:	3b01      	subs	r3, #1
     7c0:	4a4f      	ldr	r2, [pc, #316]	; (900 <printf_dec+0x26c>)
     7c2:	f852 3023 	ldr.w	r3, [r2, r3, lsl #2]
     7c6:	009a      	lsls	r2, r3, #2
     7c8:	697b      	ldr	r3, [r7, #20]
     7ca:	3b01      	subs	r3, #1
     7cc:	494c      	ldr	r1, [pc, #304]	; (900 <printf_dec+0x26c>)
     7ce:	f851 3023 	ldr.w	r3, [r1, r3, lsl #2]
     7d2:	005b      	lsls	r3, r3, #1
     7d4:	4413      	add	r3, r2
     7d6:	60fb      	str	r3, [r7, #12]
     7d8:	e078      	b.n	8cc <printf_dec+0x238>
     7da:	697b      	ldr	r3, [r7, #20]
     7dc:	3b01      	subs	r3, #1
     7de:	4a48      	ldr	r2, [pc, #288]	; (900 <printf_dec+0x26c>)
     7e0:	f852 3023 	ldr.w	r3, [r2, r3, lsl #2]
     7e4:	009a      	lsls	r2, r3, #2
     7e6:	697b      	ldr	r3, [r7, #20]
     7e8:	3b01      	subs	r3, #1
     7ea:	4945      	ldr	r1, [pc, #276]	; (900 <printf_dec+0x26c>)
     7ec:	f851 3023 	ldr.w	r3, [r1, r3, lsl #2]
     7f0:	441a      	add	r2, r3
     7f2:	687b      	ldr	r3, [r7, #4]
     7f4:	429a      	cmp	r2, r3
     7f6:	d80f      	bhi.n	818 <printf_dec+0x184>
     7f8:	2305      	movs	r3, #5
     7fa:	613b      	str	r3, [r7, #16]
     7fc:	697b      	ldr	r3, [r7, #20]
     7fe:	3b01      	subs	r3, #1
     800:	4a3f      	ldr	r2, [pc, #252]	; (900 <printf_dec+0x26c>)
     802:	f852 3023 	ldr.w	r3, [r2, r3, lsl #2]
     806:	009a      	lsls	r2, r3, #2
     808:	697b      	ldr	r3, [r7, #20]
     80a:	3b01      	subs	r3, #1
     80c:	493c      	ldr	r1, [pc, #240]	; (900 <printf_dec+0x26c>)
     80e:	f851 3023 	ldr.w	r3, [r1, r3, lsl #2]
     812:	4413      	add	r3, r2
     814:	60fb      	str	r3, [r7, #12]
     816:	e059      	b.n	8cc <printf_dec+0x238>
     818:	697b      	ldr	r3, [r7, #20]
     81a:	3b01      	subs	r3, #1
     81c:	4a38      	ldr	r2, [pc, #224]	; (900 <printf_dec+0x26c>)
     81e:	f852 3023 	ldr.w	r3, [r2, r3, lsl #2]
     822:	009a      	lsls	r2, r3, #2
     824:	687b      	ldr	r3, [r7, #4]
     826:	429a      	cmp	r2, r3
     828:	d809      	bhi.n	83e <printf_dec+0x1aa>
     82a:	2304      	movs	r3, #4
     82c:	613b      	str	r3, [r7, #16]
     82e:	697b      	ldr	r3, [r7, #20]
     830:	3b01      	subs	r3, #1
     832:	4a33      	ldr	r2, [pc, #204]	; (900 <printf_dec+0x26c>)
     834:	f852 3023 	ldr.w	r3, [r2, r3, lsl #2]
     838:	009b      	lsls	r3, r3, #2
     83a:	60fb      	str	r3, [r7, #12]
     83c:	e046      	b.n	8cc <printf_dec+0x238>
     83e:	697b      	ldr	r3, [r7, #20]
     840:	3b01      	subs	r3, #1
     842:	4a2f      	ldr	r2, [pc, #188]	; (900 <printf_dec+0x26c>)
     844:	f852 3023 	ldr.w	r3, [r2, r3, lsl #2]
     848:	005a      	lsls	r2, r3, #1
     84a:	697b      	ldr	r3, [r7, #20]
     84c:	3b01      	subs	r3, #1
     84e:	492c      	ldr	r1, [pc, #176]	; (900 <printf_dec+0x26c>)
     850:	f851 3023 	ldr.w	r3, [r1, r3, lsl #2]
     854:	441a      	add	r2, r3
     856:	687b      	ldr	r3, [r7, #4]
     858:	429a      	cmp	r2, r3
     85a:	d80f      	bhi.n	87c <printf_dec+0x1e8>
     85c:	2303      	movs	r3, #3
     85e:	613b      	str	r3, [r7, #16]
     860:	697b      	ldr	r3, [r7, #20]
     862:	3b01      	subs	r3, #1
     864:	4a26      	ldr	r2, [pc, #152]	; (900 <printf_dec+0x26c>)
     866:	f852 3023 	ldr.w	r3, [r2, r3, lsl #2]
     86a:	005a      	lsls	r2, r3, #1
     86c:	697b      	ldr	r3, [r7, #20]
     86e:	3b01      	subs	r3, #1
     870:	4923      	ldr	r1, [pc, #140]	; (900 <printf_dec+0x26c>)
     872:	f851 3023 	ldr.w	r3, [r1, r3, lsl #2]
     876:	4413      	add	r3, r2
     878:	60fb      	str	r3, [r7, #12]
     87a:	e027      	b.n	8cc <printf_dec+0x238>
     87c:	697b      	ldr	r3, [r7, #20]
     87e:	3b01      	subs	r3, #1
     880:	4a1f      	ldr	r2, [pc, #124]	; (900 <printf_dec+0x26c>)
     882:	f852 3023 	ldr.w	r3, [r2, r3, lsl #2]
     886:	005a      	lsls	r2, r3, #1
     888:	687b      	ldr	r3, [r7, #4]
     88a:	429a      	cmp	r2, r3
     88c:	d809      	bhi.n	8a2 <printf_dec+0x20e>
     88e:	2302      	movs	r3, #2
     890:	613b      	str	r3, [r7, #16]
     892:	697b      	ldr	r3, [r7, #20]
     894:	3b01      	subs	r3, #1
     896:	4a1a      	ldr	r2, [pc, #104]	; (900 <printf_dec+0x26c>)
     898:	f852 3023 	ldr.w	r3, [r2, r3, lsl #2]
     89c:	005b      	lsls	r3, r3, #1
     89e:	60fb      	str	r3, [r7, #12]
     8a0:	e014      	b.n	8cc <printf_dec+0x238>
     8a2:	697b      	ldr	r3, [r7, #20]
     8a4:	3b01      	subs	r3, #1
     8a6:	4a16      	ldr	r2, [pc, #88]	; (900 <printf_dec+0x26c>)
     8a8:	f852 2023 	ldr.w	r2, [r2, r3, lsl #2]
     8ac:	687b      	ldr	r3, [r7, #4]
     8ae:	429a      	cmp	r2, r3
     8b0:	d808      	bhi.n	8c4 <printf_dec+0x230>
     8b2:	2301      	movs	r3, #1
     8b4:	613b      	str	r3, [r7, #16]
     8b6:	697b      	ldr	r3, [r7, #20]
     8b8:	3b01      	subs	r3, #1
     8ba:	4a11      	ldr	r2, [pc, #68]	; (900 <printf_dec+0x26c>)
     8bc:	f852 3023 	ldr.w	r3, [r2, r3, lsl #2]
     8c0:	60fb      	str	r3, [r7, #12]
     8c2:	e003      	b.n	8cc <printf_dec+0x238>
     8c4:	2300      	movs	r3, #0
     8c6:	613b      	str	r3, [r7, #16]
     8c8:	2300      	movs	r3, #0
     8ca:	60fb      	str	r3, [r7, #12]
     8cc:	4a0d      	ldr	r2, [pc, #52]	; (904 <printf_dec+0x270>)
     8ce:	693b      	ldr	r3, [r7, #16]
     8d0:	4413      	add	r3, r2
     8d2:	781b      	ldrb	r3, [r3, #0]
     8d4:	72fb      	strb	r3, [r7, #11]
     8d6:	7afb      	ldrb	r3, [r7, #11]
     8d8:	4618      	mov	r0, r3
     8da:	f7ff fe2f 	bl	53c <printf_char>
     8de:	697b      	ldr	r3, [r7, #20]
     8e0:	3b01      	subs	r3, #1
     8e2:	617b      	str	r3, [r7, #20]
     8e4:	687a      	ldr	r2, [r7, #4]
     8e6:	68fb      	ldr	r3, [r7, #12]
     8e8:	1ad3      	subs	r3, r2, r3
     8ea:	607b      	str	r3, [r7, #4]
     8ec:	697b      	ldr	r3, [r7, #20]
     8ee:	2b00      	cmp	r3, #0
     8f0:	f47f aef3 	bne.w	6da <printf_dec+0x46>
     8f4:	2300      	movs	r3, #0
     8f6:	4618      	mov	r0, r3
     8f8:	3718      	adds	r7, #24
     8fa:	46bd      	mov	sp, r7
     8fc:	bd80      	pop	{r7, pc}
     8fe:	bf00      	nop
     900:	00001948 	andeq	r1, r0, r8, asr #18
     904:	00001928 	andeq	r1, r0, r8, lsr #18

00000908 <no_printk>:
     908:	b40f      	push	{r0, r1, r2, r3}
     90a:	b480      	push	{r7}
     90c:	af00      	add	r7, sp, #0
     90e:	46bd      	mov	sp, r7
     910:	f85d 7b04 	ldr.w	r7, [sp], #4
     914:	b004      	add	sp, #16
     916:	4770      	bx	lr

00000918 <printk>:
     918:	b40f      	push	{r0, r1, r2, r3}
     91a:	b580      	push	{r7, lr}
     91c:	b084      	sub	sp, #16
     91e:	af00      	add	r7, sp, #0
     920:	2300      	movs	r3, #0
     922:	60fb      	str	r3, [r7, #12]
     924:	f107 031c 	add.w	r3, r7, #28
     928:	607b      	str	r3, [r7, #4]
     92a:	69bb      	ldr	r3, [r7, #24]
     92c:	781b      	ldrb	r3, [r3, #0]
     92e:	72fb      	strb	r3, [r7, #11]
     930:	7afb      	ldrb	r3, [r7, #11]
     932:	2b25      	cmp	r3, #37	; 0x25
     934:	d004      	beq.n	940 <printk+0x28>
     936:	7afb      	ldrb	r3, [r7, #11]
     938:	4618      	mov	r0, r3
     93a:	f7ff fdff 	bl	53c <printf_char>
     93e:	e09f      	b.n	a80 <printk+0x168>
     940:	69bb      	ldr	r3, [r7, #24]
     942:	3301      	adds	r3, #1
     944:	61bb      	str	r3, [r7, #24]
     946:	69bb      	ldr	r3, [r7, #24]
     948:	781b      	ldrb	r3, [r3, #0]
     94a:	72fb      	strb	r3, [r7, #11]
     94c:	7afb      	ldrb	r3, [r7, #11]
     94e:	2b64      	cmp	r3, #100	; 0x64
     950:	d00b      	beq.n	96a <printk+0x52>
     952:	7afb      	ldrb	r3, [r7, #11]
     954:	2b78      	cmp	r3, #120	; 0x78
     956:	d008      	beq.n	96a <printk+0x52>
     958:	7afb      	ldrb	r3, [r7, #11]
     95a:	2b58      	cmp	r3, #88	; 0x58
     95c:	d005      	beq.n	96a <printk+0x52>
     95e:	7afb      	ldrb	r3, [r7, #11]
     960:	2b73      	cmp	r3, #115	; 0x73
     962:	d002      	beq.n	96a <printk+0x52>
     964:	7afb      	ldrb	r3, [r7, #11]
     966:	2b63      	cmp	r3, #99	; 0x63
     968:	d114      	bne.n	994 <printk+0x7c>
     96a:	7afb      	ldrb	r3, [r7, #11]
     96c:	2b78      	cmp	r3, #120	; 0x78
     96e:	d002      	beq.n	976 <printk+0x5e>
     970:	7afb      	ldrb	r3, [r7, #11]
     972:	2b58      	cmp	r3, #88	; 0x58
     974:	d10d      	bne.n	992 <printk+0x7a>
     976:	69bb      	ldr	r3, [r7, #24]
     978:	3b01      	subs	r3, #1
     97a:	781b      	ldrb	r3, [r3, #0]
     97c:	2b25      	cmp	r3, #37	; 0x25
     97e:	d102      	bne.n	986 <printk+0x6e>
     980:	2308      	movs	r3, #8
     982:	60fb      	str	r3, [r7, #12]
     984:	e005      	b.n	992 <printk+0x7a>
     986:	69bb      	ldr	r3, [r7, #24]
     988:	3b01      	subs	r3, #1
     98a:	781b      	ldrb	r3, [r3, #0]
     98c:	3b30      	subs	r3, #48	; 0x30
     98e:	60fb      	str	r3, [r7, #12]
     990:	e001      	b.n	996 <printk+0x7e>
     992:	e000      	b.n	996 <printk+0x7e>
     994:	e7d4      	b.n	940 <printk+0x28>
     996:	7afb      	ldrb	r3, [r7, #11]
     998:	3b58      	subs	r3, #88	; 0x58
     99a:	2b20      	cmp	r3, #32
     99c:	d86f      	bhi.n	a7e <printk+0x166>
     99e:	a201      	add	r2, pc, #4	; (adr r2, 9a4 <printk+0x8c>)
     9a0:	f852 f023 	ldr.w	pc, [r2, r3, lsl #2]
     9a4:	00000a4b 	andeq	r0, r0, fp, asr #20
     9a8:	00000a7f 	andeq	r0, r0, pc, ror sl
     9ac:	00000a7f 	andeq	r0, r0, pc, ror sl
     9b0:	00000a7f 	andeq	r0, r0, pc, ror sl
     9b4:	00000a7f 	andeq	r0, r0, pc, ror sl
     9b8:	00000a7f 	andeq	r0, r0, pc, ror sl
     9bc:	00000a7f 	andeq	r0, r0, pc, ror sl
     9c0:	00000a7f 	andeq	r0, r0, pc, ror sl
     9c4:	00000a7f 	andeq	r0, r0, pc, ror sl
     9c8:	00000a7f 	andeq	r0, r0, pc, ror sl
     9cc:	00000a7f 	andeq	r0, r0, pc, ror sl
     9d0:	00000a6d 	andeq	r0, r0, sp, ror #20
     9d4:	00000a29 	andeq	r0, r0, r9, lsr #20
     9d8:	00000a7f 	andeq	r0, r0, pc, ror sl
     9dc:	00000a7f 	andeq	r0, r0, pc, ror sl
     9e0:	00000a7f 	andeq	r0, r0, pc, ror sl
     9e4:	00000a7f 	andeq	r0, r0, pc, ror sl
     9e8:	00000a7f 	andeq	r0, r0, pc, ror sl
     9ec:	00000a7f 	andeq	r0, r0, pc, ror sl
     9f0:	00000a7f 	andeq	r0, r0, pc, ror sl
     9f4:	00000a7f 	andeq	r0, r0, pc, ror sl
     9f8:	00000a7f 	andeq	r0, r0, pc, ror sl
     9fc:	00000a7f 	andeq	r0, r0, pc, ror sl
     a00:	00000a7f 	andeq	r0, r0, pc, ror sl
     a04:	00000a7f 	andeq	r0, r0, pc, ror sl
     a08:	00000a7f 	andeq	r0, r0, pc, ror sl
     a0c:	00000a7f 	andeq	r0, r0, pc, ror sl
     a10:	00000a5d 	andeq	r0, r0, sp, asr sl
     a14:	00000a7f 	andeq	r0, r0, pc, ror sl
     a18:	00000a7f 	andeq	r0, r0, pc, ror sl
     a1c:	00000a7f 	andeq	r0, r0, pc, ror sl
     a20:	00000a7f 	andeq	r0, r0, pc, ror sl
     a24:	00000a39 	andeq	r0, r0, r9, lsr sl
     a28:	687b      	ldr	r3, [r7, #4]
     a2a:	1d1a      	adds	r2, r3, #4
     a2c:	607a      	str	r2, [r7, #4]
     a2e:	681b      	ldr	r3, [r3, #0]
     a30:	4618      	mov	r0, r3
     a32:	f7ff fe2f 	bl	694 <printf_dec>
     a36:	e023      	b.n	a80 <printk+0x168>
     a38:	687b      	ldr	r3, [r7, #4]
     a3a:	1d1a      	adds	r2, r3, #4
     a3c:	607a      	str	r2, [r7, #4]
     a3e:	681b      	ldr	r3, [r3, #0]
     a40:	4618      	mov	r0, r3
     a42:	68f9      	ldr	r1, [r7, #12]
     a44:	f7ff fdb2 	bl	5ac <printf_hex>
     a48:	e01a      	b.n	a80 <printk+0x168>
     a4a:	687b      	ldr	r3, [r7, #4]
     a4c:	1d1a      	adds	r2, r3, #4
     a4e:	607a      	str	r2, [r7, #4]
     a50:	681b      	ldr	r3, [r3, #0]
     a52:	4618      	mov	r0, r3
     a54:	68f9      	ldr	r1, [r7, #12]
     a56:	f7ff fde3 	bl	620 <printf_hex_upper>
     a5a:	e011      	b.n	a80 <printk+0x168>
     a5c:	687b      	ldr	r3, [r7, #4]
     a5e:	1d1a      	adds	r2, r3, #4
     a60:	607a      	str	r2, [r7, #4]
     a62:	681b      	ldr	r3, [r3, #0]
     a64:	4618      	mov	r0, r3
     a66:	f7ff fd87 	bl	578 <printf_str>
     a6a:	e009      	b.n	a80 <printk+0x168>
     a6c:	687b      	ldr	r3, [r7, #4]
     a6e:	1d1a      	adds	r2, r3, #4
     a70:	607a      	str	r2, [r7, #4]
     a72:	681b      	ldr	r3, [r3, #0]
     a74:	b2db      	uxtb	r3, r3
     a76:	4618      	mov	r0, r3
     a78:	f7ff fd60 	bl	53c <printf_char>
     a7c:	e000      	b.n	a80 <printk+0x168>
     a7e:	bf00      	nop
     a80:	69bb      	ldr	r3, [r7, #24]
     a82:	3301      	adds	r3, #1
     a84:	61bb      	str	r3, [r7, #24]
     a86:	69bb      	ldr	r3, [r7, #24]
     a88:	781b      	ldrb	r3, [r3, #0]
     a8a:	2b00      	cmp	r3, #0
     a8c:	f47f af4d 	bne.w	92a <printk+0x12>
     a90:	3710      	adds	r7, #16
     a92:	46bd      	mov	sp, r7
     a94:	e8bd 4080 	ldmia.w	sp!, {r7, lr}
     a98:	b004      	add	sp, #16
     a9a:	4770      	bx	lr

00000a9c <memset>:
     a9c:	b480      	push	{r7}
     a9e:	b087      	sub	sp, #28
     aa0:	af00      	add	r7, sp, #0
     aa2:	60f8      	str	r0, [r7, #12]
     aa4:	460b      	mov	r3, r1
     aa6:	607a      	str	r2, [r7, #4]
     aa8:	72fb      	strb	r3, [r7, #11]
     aaa:	68fb      	ldr	r3, [r7, #12]
     aac:	617b      	str	r3, [r7, #20]
     aae:	2300      	movs	r3, #0
     ab0:	613b      	str	r3, [r7, #16]
     ab2:	2300      	movs	r3, #0
     ab4:	613b      	str	r3, [r7, #16]
     ab6:	e007      	b.n	ac8 <memset+0x2c>
     ab8:	693b      	ldr	r3, [r7, #16]
     aba:	3301      	adds	r3, #1
     abc:	613b      	str	r3, [r7, #16]
     abe:	697b      	ldr	r3, [r7, #20]
     ac0:	1c5a      	adds	r2, r3, #1
     ac2:	617a      	str	r2, [r7, #20]
     ac4:	7afa      	ldrb	r2, [r7, #11]
     ac6:	701a      	strb	r2, [r3, #0]
     ac8:	693a      	ldr	r2, [r7, #16]
     aca:	687b      	ldr	r3, [r7, #4]
     acc:	429a      	cmp	r2, r3
     ace:	d3f3      	bcc.n	ab8 <memset+0x1c>
     ad0:	2300      	movs	r3, #0
     ad2:	4618      	mov	r0, r3
     ad4:	371c      	adds	r7, #28
     ad6:	46bd      	mov	sp, r7
     ad8:	f85d 7b04 	ldr.w	r7, [sp], #4
     adc:	4770      	bx	lr
     ade:	bf00      	nop

00000ae0 <memcpy>:
     ae0:	b480      	push	{r7}
     ae2:	b089      	sub	sp, #36	; 0x24
     ae4:	af00      	add	r7, sp, #0
     ae6:	60f8      	str	r0, [r7, #12]
     ae8:	60b9      	str	r1, [r7, #8]
     aea:	607a      	str	r2, [r7, #4]
     aec:	68fb      	ldr	r3, [r7, #12]
     aee:	61fb      	str	r3, [r7, #28]
     af0:	68bb      	ldr	r3, [r7, #8]
     af2:	61bb      	str	r3, [r7, #24]
     af4:	2300      	movs	r3, #0
     af6:	617b      	str	r3, [r7, #20]
     af8:	2300      	movs	r3, #0
     afa:	617b      	str	r3, [r7, #20]
     afc:	e00a      	b.n	b14 <memcpy+0x34>
     afe:	697b      	ldr	r3, [r7, #20]
     b00:	3301      	adds	r3, #1
     b02:	617b      	str	r3, [r7, #20]
     b04:	69fb      	ldr	r3, [r7, #28]
     b06:	1c5a      	adds	r2, r3, #1
     b08:	61fa      	str	r2, [r7, #28]
     b0a:	69ba      	ldr	r2, [r7, #24]
     b0c:	1c51      	adds	r1, r2, #1
     b0e:	61b9      	str	r1, [r7, #24]
     b10:	7812      	ldrb	r2, [r2, #0]
     b12:	701a      	strb	r2, [r3, #0]
     b14:	697a      	ldr	r2, [r7, #20]
     b16:	687b      	ldr	r3, [r7, #4]
     b18:	429a      	cmp	r2, r3
     b1a:	d3f0      	bcc.n	afe <memcpy+0x1e>
     b1c:	2300      	movs	r3, #0
     b1e:	4618      	mov	r0, r3
     b20:	3724      	adds	r7, #36	; 0x24
     b22:	46bd      	mov	sp, r7
     b24:	f85d 7b04 	ldr.w	r7, [sp], #4
     b28:	4770      	bx	lr
     b2a:	bf00      	nop

00000b2c <memcmp>:
     b2c:	b480      	push	{r7}
     b2e:	b089      	sub	sp, #36	; 0x24
     b30:	af00      	add	r7, sp, #0
     b32:	60f8      	str	r0, [r7, #12]
     b34:	60b9      	str	r1, [r7, #8]
     b36:	607a      	str	r2, [r7, #4]
     b38:	68fb      	ldr	r3, [r7, #12]
     b3a:	61fb      	str	r3, [r7, #28]
     b3c:	68bb      	ldr	r3, [r7, #8]
     b3e:	61bb      	str	r3, [r7, #24]
     b40:	2300      	movs	r3, #0
     b42:	617b      	str	r3, [r7, #20]
     b44:	2300      	movs	r3, #0
     b46:	617b      	str	r3, [r7, #20]
     b48:	e00f      	b.n	b6a <memcmp+0x3e>
     b4a:	69fb      	ldr	r3, [r7, #28]
     b4c:	781a      	ldrb	r2, [r3, #0]
     b4e:	69bb      	ldr	r3, [r7, #24]
     b50:	781b      	ldrb	r3, [r3, #0]
     b52:	429a      	cmp	r2, r3
     b54:	d000      	beq.n	b58 <memcmp+0x2c>
     b56:	e00c      	b.n	b72 <memcmp+0x46>
     b58:	697b      	ldr	r3, [r7, #20]
     b5a:	3301      	adds	r3, #1
     b5c:	617b      	str	r3, [r7, #20]
     b5e:	69fb      	ldr	r3, [r7, #28]
     b60:	3301      	adds	r3, #1
     b62:	61fb      	str	r3, [r7, #28]
     b64:	69bb      	ldr	r3, [r7, #24]
     b66:	3301      	adds	r3, #1
     b68:	61bb      	str	r3, [r7, #24]
     b6a:	697a      	ldr	r2, [r7, #20]
     b6c:	687b      	ldr	r3, [r7, #4]
     b6e:	429a      	cmp	r2, r3
     b70:	d3eb      	bcc.n	b4a <memcmp+0x1e>
     b72:	697a      	ldr	r2, [r7, #20]
     b74:	687b      	ldr	r3, [r7, #4]
     b76:	429a      	cmp	r2, r3
     b78:	d201      	bcs.n	b7e <memcmp+0x52>
     b7a:	2301      	movs	r3, #1
     b7c:	e000      	b.n	b80 <memcmp+0x54>
     b7e:	2300      	movs	r3, #0
     b80:	4618      	mov	r0, r3
     b82:	3724      	adds	r7, #36	; 0x24
     b84:	46bd      	mov	sp, r7
     b86:	f85d 7b04 	ldr.w	r7, [sp], #4
     b8a:	4770      	bx	lr

00000b8c <strcmp>:
     b8c:	b480      	push	{r7}
     b8e:	b085      	sub	sp, #20
     b90:	af00      	add	r7, sp, #0
     b92:	6078      	str	r0, [r7, #4]
     b94:	6039      	str	r1, [r7, #0]
     b96:	687b      	ldr	r3, [r7, #4]
     b98:	60fb      	str	r3, [r7, #12]
     b9a:	683b      	ldr	r3, [r7, #0]
     b9c:	60bb      	str	r3, [r7, #8]
     b9e:	e005      	b.n	bac <strcmp+0x20>
     ba0:	68fb      	ldr	r3, [r7, #12]
     ba2:	3301      	adds	r3, #1
     ba4:	60fb      	str	r3, [r7, #12]
     ba6:	68bb      	ldr	r3, [r7, #8]
     ba8:	3301      	adds	r3, #1
     baa:	60bb      	str	r3, [r7, #8]
     bac:	68fb      	ldr	r3, [r7, #12]
     bae:	781b      	ldrb	r3, [r3, #0]
     bb0:	2b00      	cmp	r3, #0
     bb2:	d009      	beq.n	bc8 <strcmp+0x3c>
     bb4:	68bb      	ldr	r3, [r7, #8]
     bb6:	781b      	ldrb	r3, [r3, #0]
     bb8:	2b00      	cmp	r3, #0
     bba:	d005      	beq.n	bc8 <strcmp+0x3c>
     bbc:	68fb      	ldr	r3, [r7, #12]
     bbe:	781a      	ldrb	r2, [r3, #0]
     bc0:	68bb      	ldr	r3, [r7, #8]
     bc2:	781b      	ldrb	r3, [r3, #0]
     bc4:	429a      	cmp	r2, r3
     bc6:	d0eb      	beq.n	ba0 <strcmp+0x14>
     bc8:	68fb      	ldr	r3, [r7, #12]
     bca:	781b      	ldrb	r3, [r3, #0]
     bcc:	461a      	mov	r2, r3
     bce:	68bb      	ldr	r3, [r7, #8]
     bd0:	781b      	ldrb	r3, [r3, #0]
     bd2:	1ad3      	subs	r3, r2, r3
     bd4:	4618      	mov	r0, r3
     bd6:	3714      	adds	r7, #20
     bd8:	46bd      	mov	sp, r7
     bda:	f85d 7b04 	ldr.w	r7, [sp], #4
     bde:	4770      	bx	lr

00000be0 <strncmp>:
     be0:	b480      	push	{r7}
     be2:	b089      	sub	sp, #36	; 0x24
     be4:	af00      	add	r7, sp, #0
     be6:	60f8      	str	r0, [r7, #12]
     be8:	60b9      	str	r1, [r7, #8]
     bea:	607a      	str	r2, [r7, #4]
     bec:	68fb      	ldr	r3, [r7, #12]
     bee:	61fb      	str	r3, [r7, #28]
     bf0:	68bb      	ldr	r3, [r7, #8]
     bf2:	61bb      	str	r3, [r7, #24]
     bf4:	2300      	movs	r3, #0
     bf6:	617b      	str	r3, [r7, #20]
     bf8:	e019      	b.n	c2e <strncmp+0x4e>
     bfa:	69fb      	ldr	r3, [r7, #28]
     bfc:	781a      	ldrb	r2, [r3, #0]
     bfe:	69bb      	ldr	r3, [r7, #24]
     c00:	781b      	ldrb	r3, [r3, #0]
     c02:	429a      	cmp	r2, r3
     c04:	d901      	bls.n	c0a <strncmp+0x2a>
     c06:	2301      	movs	r3, #1
     c08:	e016      	b.n	c38 <strncmp+0x58>
     c0a:	69fb      	ldr	r3, [r7, #28]
     c0c:	781a      	ldrb	r2, [r3, #0]
     c0e:	69bb      	ldr	r3, [r7, #24]
     c10:	781b      	ldrb	r3, [r3, #0]
     c12:	429a      	cmp	r2, r3
     c14:	d202      	bcs.n	c1c <strncmp+0x3c>
     c16:	f04f 33ff 	mov.w	r3, #4294967295	; 0xffffffff
     c1a:	e00d      	b.n	c38 <strncmp+0x58>
     c1c:	697b      	ldr	r3, [r7, #20]
     c1e:	3301      	adds	r3, #1
     c20:	617b      	str	r3, [r7, #20]
     c22:	69fb      	ldr	r3, [r7, #28]
     c24:	3301      	adds	r3, #1
     c26:	61fb      	str	r3, [r7, #28]
     c28:	69bb      	ldr	r3, [r7, #24]
     c2a:	3301      	adds	r3, #1
     c2c:	61bb      	str	r3, [r7, #24]
     c2e:	697a      	ldr	r2, [r7, #20]
     c30:	687b      	ldr	r3, [r7, #4]
     c32:	429a      	cmp	r2, r3
     c34:	d3e1      	bcc.n	bfa <strncmp+0x1a>
     c36:	2300      	movs	r3, #0
     c38:	4618      	mov	r0, r3
     c3a:	3724      	adds	r7, #36	; 0x24
     c3c:	46bd      	mov	sp, r7
     c3e:	f85d 7b04 	ldr.w	r7, [sp], #4
     c42:	4770      	bx	lr

00000c44 <strtoul>:
     c44:	b580      	push	{r7, lr}
     c46:	b086      	sub	sp, #24
     c48:	af00      	add	r7, sp, #0
     c4a:	6078      	str	r0, [r7, #4]
     c4c:	6039      	str	r1, [r7, #0]
     c4e:	687b      	ldr	r3, [r7, #4]
     c50:	617b      	str	r3, [r7, #20]
     c52:	230a      	movs	r3, #10
     c54:	613b      	str	r3, [r7, #16]
     c56:	2300      	movs	r3, #0
     c58:	60fb      	str	r3, [r7, #12]
     c5a:	2300      	movs	r3, #0
     c5c:	60bb      	str	r3, [r7, #8]
     c5e:	697b      	ldr	r3, [r7, #20]
     c60:	781b      	ldrb	r3, [r3, #0]
     c62:	2b30      	cmp	r3, #48	; 0x30
     c64:	d10e      	bne.n	c84 <strtoul+0x40>
     c66:	697b      	ldr	r3, [r7, #20]
     c68:	3301      	adds	r3, #1
     c6a:	781b      	ldrb	r3, [r3, #0]
     c6c:	2b78      	cmp	r3, #120	; 0x78
     c6e:	d004      	beq.n	c7a <strtoul+0x36>
     c70:	697b      	ldr	r3, [r7, #20]
     c72:	3301      	adds	r3, #1
     c74:	781b      	ldrb	r3, [r3, #0]
     c76:	2b58      	cmp	r3, #88	; 0x58
     c78:	d104      	bne.n	c84 <strtoul+0x40>
     c7a:	697b      	ldr	r3, [r7, #20]
     c7c:	3302      	adds	r3, #2
     c7e:	617b      	str	r3, [r7, #20]
     c80:	2310      	movs	r3, #16
     c82:	613b      	str	r3, [r7, #16]
     c84:	e046      	b.n	d14 <strtoul+0xd0>
     c86:	693b      	ldr	r3, [r7, #16]
     c88:	2b10      	cmp	r3, #16
     c8a:	d12a      	bne.n	ce2 <strtoul+0x9e>
     c8c:	697b      	ldr	r3, [r7, #20]
     c8e:	781b      	ldrb	r3, [r3, #0]
     c90:	4618      	mov	r0, r3
     c92:	f7ff fc33 	bl	4fc <is_hex_asc>
     c96:	4603      	mov	r3, r0
     c98:	2b00      	cmp	r3, #0
     c9a:	d102      	bne.n	ca2 <strtoul+0x5e>
     c9c:	f04f 33ff 	mov.w	r3, #4294967295	; 0xffffffff
     ca0:	e040      	b.n	d24 <strtoul+0xe0>
     ca2:	697b      	ldr	r3, [r7, #20]
     ca4:	781b      	ldrb	r3, [r3, #0]
     ca6:	2b2f      	cmp	r3, #47	; 0x2f
     ca8:	d908      	bls.n	cbc <strtoul+0x78>
     caa:	697b      	ldr	r3, [r7, #20]
     cac:	781b      	ldrb	r3, [r3, #0]
     cae:	2b39      	cmp	r3, #57	; 0x39
     cb0:	d804      	bhi.n	cbc <strtoul+0x78>
     cb2:	697b      	ldr	r3, [r7, #20]
     cb4:	781b      	ldrb	r3, [r3, #0]
     cb6:	3b30      	subs	r3, #48	; 0x30
     cb8:	60bb      	str	r3, [r7, #8]
     cba:	e011      	b.n	ce0 <strtoul+0x9c>
     cbc:	697b      	ldr	r3, [r7, #20]
     cbe:	781b      	ldrb	r3, [r3, #0]
     cc0:	2b60      	cmp	r3, #96	; 0x60
     cc2:	d908      	bls.n	cd6 <strtoul+0x92>
     cc4:	697b      	ldr	r3, [r7, #20]
     cc6:	781b      	ldrb	r3, [r3, #0]
     cc8:	2b66      	cmp	r3, #102	; 0x66
     cca:	d804      	bhi.n	cd6 <strtoul+0x92>
     ccc:	697b      	ldr	r3, [r7, #20]
     cce:	781b      	ldrb	r3, [r3, #0]
     cd0:	3b57      	subs	r3, #87	; 0x57
     cd2:	60bb      	str	r3, [r7, #8]
     cd4:	e004      	b.n	ce0 <strtoul+0x9c>
     cd6:	697b      	ldr	r3, [r7, #20]
     cd8:	781b      	ldrb	r3, [r3, #0]
     cda:	3b37      	subs	r3, #55	; 0x37
     cdc:	60bb      	str	r3, [r7, #8]
     cde:	e00f      	b.n	d00 <strtoul+0xbc>
     ce0:	e00e      	b.n	d00 <strtoul+0xbc>
     ce2:	697b      	ldr	r3, [r7, #20]
     ce4:	781b      	ldrb	r3, [r3, #0]
     ce6:	4618      	mov	r0, r3
     ce8:	f7ff fbce 	bl	488 <is_dec_asc>
     cec:	4603      	mov	r3, r0
     cee:	2b00      	cmp	r3, #0
     cf0:	d102      	bne.n	cf8 <strtoul+0xb4>
     cf2:	f06f 0301 	mvn.w	r3, #1
     cf6:	e015      	b.n	d24 <strtoul+0xe0>
     cf8:	697b      	ldr	r3, [r7, #20]
     cfa:	781b      	ldrb	r3, [r3, #0]
     cfc:	3b30      	subs	r3, #48	; 0x30
     cfe:	60bb      	str	r3, [r7, #8]
     d00:	68fb      	ldr	r3, [r7, #12]
     d02:	693a      	ldr	r2, [r7, #16]
     d04:	fb02 f203 	mul.w	r2, r2, r3
     d08:	68bb      	ldr	r3, [r7, #8]
     d0a:	4413      	add	r3, r2
     d0c:	60fb      	str	r3, [r7, #12]
     d0e:	697b      	ldr	r3, [r7, #20]
     d10:	3301      	adds	r3, #1
     d12:	617b      	str	r3, [r7, #20]
     d14:	697b      	ldr	r3, [r7, #20]
     d16:	781b      	ldrb	r3, [r3, #0]
     d18:	2b00      	cmp	r3, #0
     d1a:	d1b4      	bne.n	c86 <strtoul+0x42>
     d1c:	683b      	ldr	r3, [r7, #0]
     d1e:	68fa      	ldr	r2, [r7, #12]
     d20:	601a      	str	r2, [r3, #0]
     d22:	2300      	movs	r3, #0
     d24:	4618      	mov	r0, r3
     d26:	3718      	adds	r7, #24
     d28:	46bd      	mov	sp, r7
     d2a:	bd80      	pop	{r7, pc}

00000d2c <strtol>:
     d2c:	b580      	push	{r7, lr}
     d2e:	b084      	sub	sp, #16
     d30:	af00      	add	r7, sp, #0
     d32:	6078      	str	r0, [r7, #4]
     d34:	6039      	str	r1, [r7, #0]
     d36:	687b      	ldr	r3, [r7, #4]
     d38:	60fb      	str	r3, [r7, #12]
     d3a:	68fb      	ldr	r3, [r7, #12]
     d3c:	781b      	ldrb	r3, [r3, #0]
     d3e:	2b2d      	cmp	r3, #45	; 0x2d
     d40:	d10e      	bne.n	d60 <strtol+0x34>
     d42:	68fb      	ldr	r3, [r7, #12]
     d44:	3301      	adds	r3, #1
     d46:	60fb      	str	r3, [r7, #12]
     d48:	68f8      	ldr	r0, [r7, #12]
     d4a:	6839      	ldr	r1, [r7, #0]
     d4c:	f7ff ff7a 	bl	c44 <strtoul>
     d50:	60b8      	str	r0, [r7, #8]
     d52:	683b      	ldr	r3, [r7, #0]
     d54:	681b      	ldr	r3, [r3, #0]
     d56:	425a      	negs	r2, r3
     d58:	683b      	ldr	r3, [r7, #0]
     d5a:	601a      	str	r2, [r3, #0]
     d5c:	68bb      	ldr	r3, [r7, #8]
     d5e:	e004      	b.n	d6a <strtol+0x3e>
     d60:	68f8      	ldr	r0, [r7, #12]
     d62:	6839      	ldr	r1, [r7, #0]
     d64:	f7ff ff6e 	bl	c44 <strtoul>
     d68:	4603      	mov	r3, r0
     d6a:	4618      	mov	r0, r3
     d6c:	3710      	adds	r7, #16
     d6e:	46bd      	mov	sp, r7
     d70:	bd80      	pop	{r7, pc}
     d72:	bf00      	nop

00000d74 <strlen>:
     d74:	b480      	push	{r7}
     d76:	b085      	sub	sp, #20
     d78:	af00      	add	r7, sp, #0
     d7a:	6078      	str	r0, [r7, #4]
     d7c:	687b      	ldr	r3, [r7, #4]
     d7e:	60fb      	str	r3, [r7, #12]
     d80:	bf00      	nop
     d82:	68fb      	ldr	r3, [r7, #12]
     d84:	1c5a      	adds	r2, r3, #1
     d86:	60fa      	str	r2, [r7, #12]
     d88:	781b      	ldrb	r3, [r3, #0]
     d8a:	2b00      	cmp	r3, #0
     d8c:	d1f9      	bne.n	d82 <strlen+0xe>
     d8e:	68fa      	ldr	r2, [r7, #12]
     d90:	687b      	ldr	r3, [r7, #4]
     d92:	1ad3      	subs	r3, r2, r3
     d94:	4618      	mov	r0, r3
     d96:	3714      	adds	r7, #20
     d98:	46bd      	mov	sp, r7
     d9a:	f85d 7b04 	ldr.w	r7, [sp], #4
     d9e:	4770      	bx	lr

00000da0 <strcpy>:
     da0:	b480      	push	{r7}
     da2:	b085      	sub	sp, #20
     da4:	af00      	add	r7, sp, #0
     da6:	6078      	str	r0, [r7, #4]
     da8:	6039      	str	r1, [r7, #0]
     daa:	687b      	ldr	r3, [r7, #4]
     dac:	60fb      	str	r3, [r7, #12]
     dae:	683b      	ldr	r3, [r7, #0]
     db0:	60bb      	str	r3, [r7, #8]
     db2:	e009      	b.n	dc8 <strcpy+0x28>
     db4:	68bb      	ldr	r3, [r7, #8]
     db6:	781a      	ldrb	r2, [r3, #0]
     db8:	68fb      	ldr	r3, [r7, #12]
     dba:	701a      	strb	r2, [r3, #0]
     dbc:	68fb      	ldr	r3, [r7, #12]
     dbe:	3301      	adds	r3, #1
     dc0:	60fb      	str	r3, [r7, #12]
     dc2:	68bb      	ldr	r3, [r7, #8]
     dc4:	3301      	adds	r3, #1
     dc6:	60bb      	str	r3, [r7, #8]
     dc8:	68bb      	ldr	r3, [r7, #8]
     dca:	781b      	ldrb	r3, [r3, #0]
     dcc:	2b00      	cmp	r3, #0
     dce:	d1f1      	bne.n	db4 <strcpy+0x14>
     dd0:	68fb      	ldr	r3, [r7, #12]
     dd2:	2200      	movs	r2, #0
     dd4:	701a      	strb	r2, [r3, #0]
     dd6:	2300      	movs	r3, #0
     dd8:	4618      	mov	r0, r3
     dda:	3714      	adds	r7, #20
     ddc:	46bd      	mov	sp, r7
     dde:	f85d 7b04 	ldr.w	r7, [sp], #4
     de2:	4770      	bx	lr

00000de4 <reset_handler>:
     de4:	f04f 0021 	mov.w	r0, #33	; 0x21
     de8:	f3ef 8014 	mrs	r0, CONTROL
     dec:	f04f 0102 	mov.w	r1, #2
     df0:	ea40 0001 	orr.w	r0, r0, r1
     df4:	f380 8814 	msr	CONTROL, r0
     df8:	4817      	ldr	r0, [pc, #92]	; (e58 <enable_irq+0x6>)
     dfa:	4685      	mov	sp, r0
     dfc:	4817      	ldr	r0, [pc, #92]	; (e5c <enable_irq+0xa>)
     dfe:	4780      	blx	r0
     e00:	e7fe      	b.n	e00 <reset_handler+0x1c>

00000e02 <get_psp>:
     e02:	f3ef 8009 	mrs	r0, PSP
     e06:	47f0      	blx	lr

00000e08 <set_psp>:
     e08:	f380 8809 	msr	PSP, r0
     e0c:	47f0      	blx	lr

00000e0e <get_msp>:
     e0e:	f3ef 8008 	mrs	r0, MSP
     e12:	47f0      	blx	lr

00000e14 <get_control_reg>:
     e14:	f3ef 8014 	mrs	r0, CONTROL
     e18:	47f0      	blx	lr

00000e1a <pendsv_handler>:
     e1a:	f3ef 8009 	mrs	r0, PSP
     e1e:	b120      	cbz	r0, e2a <pendsv_handler_nosave>
     e20:	e920 0ff0 	stmdb	r0!, {r4, r5, r6, r7, r8, r9, sl, fp}
     e24:	490e      	ldr	r1, [pc, #56]	; (e60 <enable_irq+0xe>)
     e26:	6809      	ldr	r1, [r1, #0]
     e28:	6008      	str	r0, [r1, #0]

00000e2a <pendsv_handler_nosave>:
     e2a:	480d      	ldr	r0, [pc, #52]	; (e60 <enable_irq+0xe>)
     e2c:	490d      	ldr	r1, [pc, #52]	; (e64 <enable_irq+0x12>)
     e2e:	680a      	ldr	r2, [r1, #0]
     e30:	6002      	str	r2, [r0, #0]
     e32:	6810      	ldr	r0, [r2, #0]
     e34:	e8b0 0ff0 	ldmia.w	r0!, {r4, r5, r6, r7, r8, r9, sl, fp}
     e38:	f380 8809 	msr	PSP, r0
     e3c:	f04e 0e04 	orr.w	lr, lr, #4
     e40:	4770      	bx	lr

00000e42 <get_primask>:
     e42:	f3ef 8010 	mrs	r0, PRIMASK
     e46:	47f0      	blx	lr

00000e48 <set_primask>:
     e48:	f380 8810 	msr	PRIMASK, r0
     e4c:	47f0      	blx	lr

00000e4e <disable_irq>:
     e4e:	b672      	cpsid	i
     e50:	47f0      	blx	lr

00000e52 <enable_irq>:
     e52:	b662      	cpsie	i
     e54:	47f0      	blx	lr
     e56:	80000000 	andhi	r0, r0, r0
     e5a:	03652000 	cmneq	r5, #0
     e5e:	40bc0000 	adcsmi	r0, ip, r0
     e62:	40b82000 	adcsmi	r2, r8, r0
     e66:	b4802000 	strlt	r2, [r0], #0

00000e68 <idle_task_entry>:
     e68:	b480      	push	{r7}
     e6a:	b083      	sub	sp, #12
     e6c:	af00      	add	r7, sp, #0
     e6e:	6078      	str	r0, [r7, #4]
     e70:	e7fe      	b.n	e70 <idle_task_entry+0x8>
     e72:	bf00      	nop

00000e74 <task_init>:
     e74:	b580      	push	{r7, lr}
     e76:	b084      	sub	sp, #16
     e78:	af00      	add	r7, sp, #0
     e7a:	60f8      	str	r0, [r7, #12]
     e7c:	60b9      	str	r1, [r7, #8]
     e7e:	607a      	str	r2, [r7, #4]
     e80:	603b      	str	r3, [r7, #0]
     e82:	484a      	ldr	r0, [pc, #296]	; (fac <task_init+0x138>)
     e84:	494a      	ldr	r1, [pc, #296]	; (fb0 <task_init+0x13c>)
     e86:	f7ff fd47 	bl	918 <printk>
     e8a:	69bb      	ldr	r3, [r7, #24]
     e8c:	3b04      	subs	r3, #4
     e8e:	61bb      	str	r3, [r7, #24]
     e90:	69bb      	ldr	r3, [r7, #24]
     e92:	f04f 7280 	mov.w	r2, #16777216	; 0x1000000
     e96:	601a      	str	r2, [r3, #0]
     e98:	69bb      	ldr	r3, [r7, #24]
     e9a:	3b04      	subs	r3, #4
     e9c:	61bb      	str	r3, [r7, #24]
     e9e:	68ba      	ldr	r2, [r7, #8]
     ea0:	69bb      	ldr	r3, [r7, #24]
     ea2:	601a      	str	r2, [r3, #0]
     ea4:	69bb      	ldr	r3, [r7, #24]
     ea6:	3b04      	subs	r3, #4
     ea8:	61bb      	str	r3, [r7, #24]
     eaa:	69bb      	ldr	r3, [r7, #24]
     eac:	220e      	movs	r2, #14
     eae:	601a      	str	r2, [r3, #0]
     eb0:	69bb      	ldr	r3, [r7, #24]
     eb2:	3b04      	subs	r3, #4
     eb4:	61bb      	str	r3, [r7, #24]
     eb6:	69bb      	ldr	r3, [r7, #24]
     eb8:	220c      	movs	r2, #12
     eba:	601a      	str	r2, [r3, #0]
     ebc:	69bb      	ldr	r3, [r7, #24]
     ebe:	3b04      	subs	r3, #4
     ec0:	61bb      	str	r3, [r7, #24]
     ec2:	69bb      	ldr	r3, [r7, #24]
     ec4:	2203      	movs	r2, #3
     ec6:	601a      	str	r2, [r3, #0]
     ec8:	69bb      	ldr	r3, [r7, #24]
     eca:	3b04      	subs	r3, #4
     ecc:	61bb      	str	r3, [r7, #24]
     ece:	69bb      	ldr	r3, [r7, #24]
     ed0:	2202      	movs	r2, #2
     ed2:	601a      	str	r2, [r3, #0]
     ed4:	69bb      	ldr	r3, [r7, #24]
     ed6:	3b04      	subs	r3, #4
     ed8:	61bb      	str	r3, [r7, #24]
     eda:	69bb      	ldr	r3, [r7, #24]
     edc:	2201      	movs	r2, #1
     ede:	601a      	str	r2, [r3, #0]
     ee0:	69bb      	ldr	r3, [r7, #24]
     ee2:	3b04      	subs	r3, #4
     ee4:	61bb      	str	r3, [r7, #24]
     ee6:	687a      	ldr	r2, [r7, #4]
     ee8:	69bb      	ldr	r3, [r7, #24]
     eea:	601a      	str	r2, [r3, #0]
     eec:	69bb      	ldr	r3, [r7, #24]
     eee:	3b04      	subs	r3, #4
     ef0:	61bb      	str	r3, [r7, #24]
     ef2:	69bb      	ldr	r3, [r7, #24]
     ef4:	220b      	movs	r2, #11
     ef6:	601a      	str	r2, [r3, #0]
     ef8:	69bb      	ldr	r3, [r7, #24]
     efa:	3b04      	subs	r3, #4
     efc:	61bb      	str	r3, [r7, #24]
     efe:	69bb      	ldr	r3, [r7, #24]
     f00:	220a      	movs	r2, #10
     f02:	601a      	str	r2, [r3, #0]
     f04:	69bb      	ldr	r3, [r7, #24]
     f06:	3b04      	subs	r3, #4
     f08:	61bb      	str	r3, [r7, #24]
     f0a:	69bb      	ldr	r3, [r7, #24]
     f0c:	2209      	movs	r2, #9
     f0e:	601a      	str	r2, [r3, #0]
     f10:	69bb      	ldr	r3, [r7, #24]
     f12:	3b04      	subs	r3, #4
     f14:	61bb      	str	r3, [r7, #24]
     f16:	69bb      	ldr	r3, [r7, #24]
     f18:	2208      	movs	r2, #8
     f1a:	601a      	str	r2, [r3, #0]
     f1c:	69bb      	ldr	r3, [r7, #24]
     f1e:	3b04      	subs	r3, #4
     f20:	61bb      	str	r3, [r7, #24]
     f22:	69bb      	ldr	r3, [r7, #24]
     f24:	2207      	movs	r2, #7
     f26:	601a      	str	r2, [r3, #0]
     f28:	69bb      	ldr	r3, [r7, #24]
     f2a:	3b04      	subs	r3, #4
     f2c:	61bb      	str	r3, [r7, #24]
     f2e:	69bb      	ldr	r3, [r7, #24]
     f30:	2206      	movs	r2, #6
     f32:	601a      	str	r2, [r3, #0]
     f34:	69bb      	ldr	r3, [r7, #24]
     f36:	3b04      	subs	r3, #4
     f38:	61bb      	str	r3, [r7, #24]
     f3a:	69bb      	ldr	r3, [r7, #24]
     f3c:	2205      	movs	r2, #5
     f3e:	601a      	str	r2, [r3, #0]
     f40:	69bb      	ldr	r3, [r7, #24]
     f42:	3b04      	subs	r3, #4
     f44:	61bb      	str	r3, [r7, #24]
     f46:	69bb      	ldr	r3, [r7, #24]
     f48:	2204      	movs	r2, #4
     f4a:	601a      	str	r2, [r3, #0]
     f4c:	68fb      	ldr	r3, [r7, #12]
     f4e:	69ba      	ldr	r2, [r7, #24]
     f50:	601a      	str	r2, [r3, #0]
     f52:	68fb      	ldr	r3, [r7, #12]
     f54:	2200      	movs	r2, #0
     f56:	605a      	str	r2, [r3, #4]
     f58:	68fb      	ldr	r3, [r7, #12]
     f5a:	2200      	movs	r2, #0
     f5c:	615a      	str	r2, [r3, #20]
     f5e:	68fb      	ldr	r3, [r7, #12]
     f60:	330c      	adds	r3, #12
     f62:	4618      	mov	r0, r3
     f64:	f000 fb18 	bl	1598 <list_node_init>
     f68:	68fb      	ldr	r3, [r7, #12]
     f6a:	683a      	ldr	r2, [r7, #0]
     f6c:	609a      	str	r2, [r3, #8]
     f6e:	68fb      	ldr	r3, [r7, #12]
     f70:	220a      	movs	r2, #10
     f72:	621a      	str	r2, [r3, #32]
     f74:	68fb      	ldr	r3, [r7, #12]
     f76:	3318      	adds	r3, #24
     f78:	4618      	mov	r0, r3
     f7a:	f000 fb0d 	bl	1598 <list_node_init>
     f7e:	683a      	ldr	r2, [r7, #0]
     f80:	4613      	mov	r3, r2
     f82:	005b      	lsls	r3, r3, #1
     f84:	4413      	add	r3, r2
     f86:	009b      	lsls	r3, r3, #2
     f88:	4a0a      	ldr	r2, [pc, #40]	; (fb4 <task_init+0x140>)
     f8a:	441a      	add	r2, r3
     f8c:	68fb      	ldr	r3, [r7, #12]
     f8e:	3318      	adds	r3, #24
     f90:	4610      	mov	r0, r2
     f92:	4619      	mov	r1, r3
     f94:	f000 fbee 	bl	1774 <list_append_last>
     f98:	4807      	ldr	r0, [pc, #28]	; (fb8 <task_init+0x144>)
     f9a:	6839      	ldr	r1, [r7, #0]
     f9c:	f000 fa8c 	bl	14b8 <bitmap_set>
     fa0:	68fb      	ldr	r3, [r7, #12]
     fa2:	2200      	movs	r2, #0
     fa4:	625a      	str	r2, [r3, #36]	; 0x24
     fa6:	3710      	adds	r7, #16
     fa8:	46bd      	mov	sp, r7
     faa:	bd80      	pop	{r7, pc}
     fac:	0000196c 	andeq	r1, r0, ip, ror #18
     fb0:	00001970 	andeq	r1, r0, r0, ror r9
     fb4:	200040c0 	andcs	r4, r0, r0, asr #1
     fb8:	20001030 	andcs	r1, r0, r0, lsr r0

00000fbc <task_sched>:
     fbc:	b580      	push	{r7, lr}
     fbe:	b082      	sub	sp, #8
     fc0:	af00      	add	r7, sp, #0
     fc2:	f000 f921 	bl	1208 <task_enter_critical>
     fc6:	6078      	str	r0, [r7, #4]
     fc8:	4b0c      	ldr	r3, [pc, #48]	; (ffc <task_sched+0x40>)
     fca:	781b      	ldrb	r3, [r3, #0]
     fcc:	2b00      	cmp	r3, #0
     fce:	d000      	beq.n	fd2 <task_sched+0x16>
     fd0:	e00c      	b.n	fec <task_sched+0x30>
     fd2:	f000 f969 	bl	12a8 <task_highest_ready>
     fd6:	6038      	str	r0, [r7, #0]
     fd8:	4b09      	ldr	r3, [pc, #36]	; (1000 <task_sched+0x44>)
     fda:	681b      	ldr	r3, [r3, #0]
     fdc:	683a      	ldr	r2, [r7, #0]
     fde:	429a      	cmp	r2, r3
     fe0:	d004      	beq.n	fec <task_sched+0x30>
     fe2:	4a08      	ldr	r2, [pc, #32]	; (1004 <task_sched+0x48>)
     fe4:	683b      	ldr	r3, [r7, #0]
     fe6:	6013      	str	r3, [r2, #0]
     fe8:	f000 f80e 	bl	1008 <task_switch>
     fec:	6878      	ldr	r0, [r7, #4]
     fee:	f000 f919 	bl	1224 <task_exit_critical>
     ff2:	bf00      	nop
     ff4:	3708      	adds	r7, #8
     ff6:	46bd      	mov	sp, r7
     ff8:	bd80      	pop	{r7, pc}
     ffa:	bf00      	nop
     ffc:	2000102c 	andcs	r1, r0, ip, lsr #32
    1000:	200040bc 	strhcs	r4, [r0], -ip
    1004:	200040b8 	strhcs	r4, [r0], -r8

00001008 <task_switch>:
    1008:	b480      	push	{r7}
    100a:	af00      	add	r7, sp, #0
    100c:	4b03      	ldr	r3, [pc, #12]	; (101c <task_switch+0x14>)
    100e:	f04f 5280 	mov.w	r2, #268435456	; 0x10000000
    1012:	601a      	str	r2, [r3, #0]
    1014:	46bd      	mov	sp, r7
    1016:	f85d 7b04 	ldr.w	r7, [sp], #4
    101a:	4770      	bx	lr
    101c:	e000ed04 	and	lr, r0, r4, lsl #26

00001020 <task_run_first>:
    1020:	b580      	push	{r7, lr}
    1022:	af00      	add	r7, sp, #0
    1024:	4807      	ldr	r0, [pc, #28]	; (1044 <task_run_first+0x24>)
    1026:	4908      	ldr	r1, [pc, #32]	; (1048 <task_run_first+0x28>)
    1028:	f7ff fc76 	bl	918 <printk>
    102c:	2000      	movs	r0, #0
    102e:	f7ff feeb 	bl	e08 <set_psp>
    1032:	4b06      	ldr	r3, [pc, #24]	; (104c <task_run_first+0x2c>)
    1034:	22ff      	movs	r2, #255	; 0xff
    1036:	701a      	strb	r2, [r3, #0]
    1038:	4b05      	ldr	r3, [pc, #20]	; (1050 <task_run_first+0x30>)
    103a:	f04f 5280 	mov.w	r2, #268435456	; 0x10000000
    103e:	601a      	str	r2, [r3, #0]
    1040:	bd80      	pop	{r7, pc}
    1042:	bf00      	nop
    1044:	0000196c 	andeq	r1, r0, ip, ror #18
    1048:	0000197c 	andeq	r1, r0, ip, ror r9
    104c:	e000ed22 	and	lr, r0, r2, lsr #26
    1050:	e000ed04 	and	lr, r0, r4, lsl #26

00001054 <task_delay>:
    1054:	b580      	push	{r7, lr}
    1056:	b084      	sub	sp, #16
    1058:	af00      	add	r7, sp, #0
    105a:	6078      	str	r0, [r7, #4]
    105c:	f000 f8d4 	bl	1208 <task_enter_critical>
    1060:	60f8      	str	r0, [r7, #12]
    1062:	4b09      	ldr	r3, [pc, #36]	; (1088 <task_delay+0x34>)
    1064:	681b      	ldr	r3, [r3, #0]
    1066:	4618      	mov	r0, r3
    1068:	6879      	ldr	r1, [r7, #4]
    106a:	f000 f98d 	bl	1388 <task_delay_wait>
    106e:	4b06      	ldr	r3, [pc, #24]	; (1088 <task_delay+0x34>)
    1070:	681b      	ldr	r3, [r3, #0]
    1072:	4618      	mov	r0, r3
    1074:	f000 f954 	bl	1320 <task_unready>
    1078:	68f8      	ldr	r0, [r7, #12]
    107a:	f000 f8d3 	bl	1224 <task_exit_critical>
    107e:	f7ff ff9d 	bl	fbc <task_sched>
    1082:	3710      	adds	r7, #16
    1084:	46bd      	mov	sp, r7
    1086:	bd80      	pop	{r7, pc}
    1088:	200040bc 	strhcs	r4, [r0], -ip

0000108c <task_delay_s>:
    108c:	b580      	push	{r7, lr}
    108e:	b082      	sub	sp, #8
    1090:	af00      	add	r7, sp, #0
    1092:	6078      	str	r0, [r7, #4]
    1094:	687b      	ldr	r3, [r7, #4]
    1096:	2264      	movs	r2, #100	; 0x64
    1098:	fb02 f303 	mul.w	r3, r2, r3
    109c:	4618      	mov	r0, r3
    109e:	f7ff ffd9 	bl	1054 <task_delay>
    10a2:	3708      	adds	r7, #8
    10a4:	46bd      	mov	sp, r7
    10a6:	bd80      	pop	{r7, pc}

000010a8 <task_system_tick_handler>:
    10a8:	b580      	push	{r7, lr}
    10aa:	b084      	sub	sp, #16
    10ac:	af00      	add	r7, sp, #0
    10ae:	f000 f8ab 	bl	1208 <task_enter_critical>
    10b2:	60b8      	str	r0, [r7, #8]
    10b4:	4b31      	ldr	r3, [pc, #196]	; (117c <task_system_tick_handler+0xd4>)
    10b6:	607b      	str	r3, [r7, #4]
    10b8:	687b      	ldr	r3, [r7, #4]
    10ba:	685b      	ldr	r3, [r3, #4]
    10bc:	60fb      	str	r3, [r7, #12]
    10be:	2300      	movs	r3, #0
    10c0:	603b      	str	r3, [r7, #0]
    10c2:	e014      	b.n	10ee <task_system_tick_handler+0x46>
    10c4:	68fb      	ldr	r3, [r7, #12]
    10c6:	3b0c      	subs	r3, #12
    10c8:	603b      	str	r3, [r7, #0]
    10ca:	68fb      	ldr	r3, [r7, #12]
    10cc:	685b      	ldr	r3, [r3, #4]
    10ce:	60fb      	str	r3, [r7, #12]
    10d0:	683b      	ldr	r3, [r7, #0]
    10d2:	685b      	ldr	r3, [r3, #4]
    10d4:	1e5a      	subs	r2, r3, #1
    10d6:	683b      	ldr	r3, [r7, #0]
    10d8:	605a      	str	r2, [r3, #4]
    10da:	683b      	ldr	r3, [r7, #0]
    10dc:	685b      	ldr	r3, [r3, #4]
    10de:	2b00      	cmp	r3, #0
    10e0:	d105      	bne.n	10ee <task_system_tick_handler+0x46>
    10e2:	6838      	ldr	r0, [r7, #0]
    10e4:	f000 f96a 	bl	13bc <task_delay_wakeup>
    10e8:	6838      	ldr	r0, [r7, #0]
    10ea:	f000 f8f9 	bl	12e0 <task_ready>
    10ee:	68fa      	ldr	r2, [r7, #12]
    10f0:	687b      	ldr	r3, [r7, #4]
    10f2:	429a      	cmp	r2, r3
    10f4:	d1e6      	bne.n	10c4 <task_system_tick_handler+0x1c>
    10f6:	4b22      	ldr	r3, [pc, #136]	; (1180 <task_system_tick_handler+0xd8>)
    10f8:	681b      	ldr	r3, [r3, #0]
    10fa:	6a1a      	ldr	r2, [r3, #32]
    10fc:	3a01      	subs	r2, #1
    10fe:	621a      	str	r2, [r3, #32]
    1100:	6a1b      	ldr	r3, [r3, #32]
    1102:	2b00      	cmp	r3, #0
    1104:	d132      	bne.n	116c <task_system_tick_handler+0xc4>
    1106:	4b1e      	ldr	r3, [pc, #120]	; (1180 <task_system_tick_handler+0xd8>)
    1108:	681b      	ldr	r3, [r3, #0]
    110a:	689a      	ldr	r2, [r3, #8]
    110c:	4613      	mov	r3, r2
    110e:	005b      	lsls	r3, r3, #1
    1110:	4413      	add	r3, r2
    1112:	009b      	lsls	r3, r3, #2
    1114:	4a1b      	ldr	r2, [pc, #108]	; (1184 <task_system_tick_handler+0xdc>)
    1116:	4413      	add	r3, r2
    1118:	4618      	mov	r0, r3
    111a:	f000 fa61 	bl	15e0 <list_count>
    111e:	4603      	mov	r3, r0
    1120:	2b00      	cmp	r3, #0
    1122:	d023      	beq.n	116c <task_system_tick_handler+0xc4>
    1124:	4b16      	ldr	r3, [pc, #88]	; (1180 <task_system_tick_handler+0xd8>)
    1126:	681b      	ldr	r3, [r3, #0]
    1128:	689a      	ldr	r2, [r3, #8]
    112a:	4613      	mov	r3, r2
    112c:	005b      	lsls	r3, r3, #1
    112e:	4413      	add	r3, r2
    1130:	009b      	lsls	r3, r3, #2
    1132:	4a14      	ldr	r2, [pc, #80]	; (1184 <task_system_tick_handler+0xdc>)
    1134:	441a      	add	r2, r3
    1136:	4b12      	ldr	r3, [pc, #72]	; (1180 <task_system_tick_handler+0xd8>)
    1138:	681b      	ldr	r3, [r3, #0]
    113a:	3318      	adds	r3, #24
    113c:	4610      	mov	r0, r2
    113e:	4619      	mov	r1, r3
    1140:	f000 fb76 	bl	1830 <list_remove>
    1144:	4b0e      	ldr	r3, [pc, #56]	; (1180 <task_system_tick_handler+0xd8>)
    1146:	681b      	ldr	r3, [r3, #0]
    1148:	689a      	ldr	r2, [r3, #8]
    114a:	4613      	mov	r3, r2
    114c:	005b      	lsls	r3, r3, #1
    114e:	4413      	add	r3, r2
    1150:	009b      	lsls	r3, r3, #2
    1152:	4a0c      	ldr	r2, [pc, #48]	; (1184 <task_system_tick_handler+0xdc>)
    1154:	441a      	add	r2, r3
    1156:	4b0a      	ldr	r3, [pc, #40]	; (1180 <task_system_tick_handler+0xd8>)
    1158:	681b      	ldr	r3, [r3, #0]
    115a:	3318      	adds	r3, #24
    115c:	4610      	mov	r0, r2
    115e:	4619      	mov	r1, r3
    1160:	f000 fb08 	bl	1774 <list_append_last>
    1164:	4b06      	ldr	r3, [pc, #24]	; (1180 <task_system_tick_handler+0xd8>)
    1166:	681b      	ldr	r3, [r3, #0]
    1168:	220a      	movs	r2, #10
    116a:	621a      	str	r2, [r3, #32]
    116c:	68b8      	ldr	r0, [r7, #8]
    116e:	f000 f859 	bl	1224 <task_exit_critical>
    1172:	f7ff ff23 	bl	fbc <task_sched>
    1176:	3710      	adds	r7, #16
    1178:	46bd      	mov	sp, r7
    117a:	bd80      	pop	{r7, pc}
    117c:	20001034 	andcs	r1, r0, r4, lsr r0
    1180:	200040bc 	strhcs	r4, [r0], -ip
    1184:	200040c0 	andcs	r4, r0, r0, asr #1

00001188 <init_task_module>:
    1188:	b580      	push	{r7, lr}
    118a:	b084      	sub	sp, #16
    118c:	af02      	add	r7, sp, #8
    118e:	4b16      	ldr	r3, [pc, #88]	; (11e8 <init_task_module+0x60>)
    1190:	2200      	movs	r2, #0
    1192:	701a      	strb	r2, [r3, #0]
    1194:	2300      	movs	r3, #0
    1196:	607b      	str	r3, [r7, #4]
    1198:	4814      	ldr	r0, [pc, #80]	; (11ec <init_task_module+0x64>)
    119a:	f000 f979 	bl	1490 <bitmap_init>
    119e:	4814      	ldr	r0, [pc, #80]	; (11f0 <init_task_module+0x68>)
    11a0:	f000 fa0c 	bl	15bc <list_init>
    11a4:	2300      	movs	r3, #0
    11a6:	607b      	str	r3, [r7, #4]
    11a8:	e00c      	b.n	11c4 <init_task_module+0x3c>
    11aa:	687a      	ldr	r2, [r7, #4]
    11ac:	4613      	mov	r3, r2
    11ae:	005b      	lsls	r3, r3, #1
    11b0:	4413      	add	r3, r2
    11b2:	009b      	lsls	r3, r3, #2
    11b4:	4a0f      	ldr	r2, [pc, #60]	; (11f4 <init_task_module+0x6c>)
    11b6:	4413      	add	r3, r2
    11b8:	4618      	mov	r0, r3
    11ba:	f000 f9ff 	bl	15bc <list_init>
    11be:	687b      	ldr	r3, [r7, #4]
    11c0:	3301      	adds	r3, #1
    11c2:	607b      	str	r3, [r7, #4]
    11c4:	687b      	ldr	r3, [r7, #4]
    11c6:	2b1f      	cmp	r3, #31
    11c8:	d9ef      	bls.n	11aa <init_task_module+0x22>
    11ca:	4b0b      	ldr	r3, [pc, #44]	; (11f8 <init_task_module+0x70>)
    11cc:	9300      	str	r3, [sp, #0]
    11ce:	480b      	ldr	r0, [pc, #44]	; (11fc <init_task_module+0x74>)
    11d0:	490b      	ldr	r1, [pc, #44]	; (1200 <init_task_module+0x78>)
    11d2:	2200      	movs	r2, #0
    11d4:	231f      	movs	r3, #31
    11d6:	f7ff fe4d 	bl	e74 <task_init>
    11da:	4b0a      	ldr	r3, [pc, #40]	; (1204 <init_task_module+0x7c>)
    11dc:	4a07      	ldr	r2, [pc, #28]	; (11fc <init_task_module+0x74>)
    11de:	601a      	str	r2, [r3, #0]
    11e0:	3708      	adds	r7, #8
    11e2:	46bd      	mov	sp, r7
    11e4:	bd80      	pop	{r7, pc}
    11e6:	bf00      	nop
    11e8:	2000102c 	andcs	r1, r0, ip, lsr #32
    11ec:	20001030 	andcs	r1, r0, r0, lsr r0
    11f0:	20001034 	andcs	r1, r0, r4, lsr r0
    11f4:	200040c0 	andcs	r4, r0, r0, asr #1
    11f8:	2000102c 	andcs	r1, r0, ip, lsr #32
    11fc:	20000000 	andcs	r0, r0, r0
    1200:	00000e69 	andeq	r0, r0, r9, ror #28
    1204:	20000028 	andcs	r0, r0, r8, lsr #32

00001208 <task_enter_critical>:
    1208:	b580      	push	{r7, lr}
    120a:	b082      	sub	sp, #8
    120c:	af00      	add	r7, sp, #0
    120e:	f7ff fe18 	bl	e42 <get_primask>
    1212:	6078      	str	r0, [r7, #4]
    1214:	f7ff fe1b 	bl	e4e <disable_irq>
    1218:	687b      	ldr	r3, [r7, #4]
    121a:	4618      	mov	r0, r3
    121c:	3708      	adds	r7, #8
    121e:	46bd      	mov	sp, r7
    1220:	bd80      	pop	{r7, pc}
    1222:	bf00      	nop

00001224 <task_exit_critical>:
    1224:	b580      	push	{r7, lr}
    1226:	b082      	sub	sp, #8
    1228:	af00      	add	r7, sp, #0
    122a:	6078      	str	r0, [r7, #4]
    122c:	6878      	ldr	r0, [r7, #4]
    122e:	f7ff fe0b 	bl	e48 <set_primask>
    1232:	f7ff fe0e 	bl	e52 <enable_irq>
    1236:	3708      	adds	r7, #8
    1238:	46bd      	mov	sp, r7
    123a:	bd80      	pop	{r7, pc}

0000123c <task_sched_disable>:
    123c:	b580      	push	{r7, lr}
    123e:	b082      	sub	sp, #8
    1240:	af00      	add	r7, sp, #0
    1242:	f7ff ffe1 	bl	1208 <task_enter_critical>
    1246:	6078      	str	r0, [r7, #4]
    1248:	4b07      	ldr	r3, [pc, #28]	; (1268 <task_sched_disable+0x2c>)
    124a:	781b      	ldrb	r3, [r3, #0]
    124c:	2bff      	cmp	r3, #255	; 0xff
    124e:	d005      	beq.n	125c <task_sched_disable+0x20>
    1250:	4b05      	ldr	r3, [pc, #20]	; (1268 <task_sched_disable+0x2c>)
    1252:	781b      	ldrb	r3, [r3, #0]
    1254:	3301      	adds	r3, #1
    1256:	b2da      	uxtb	r2, r3
    1258:	4b03      	ldr	r3, [pc, #12]	; (1268 <task_sched_disable+0x2c>)
    125a:	701a      	strb	r2, [r3, #0]
    125c:	6878      	ldr	r0, [r7, #4]
    125e:	f7ff ffe1 	bl	1224 <task_exit_critical>
    1262:	3708      	adds	r7, #8
    1264:	46bd      	mov	sp, r7
    1266:	bd80      	pop	{r7, pc}
    1268:	2000102c 	andcs	r1, r0, ip, lsr #32

0000126c <task_sched_enable>:
    126c:	b580      	push	{r7, lr}
    126e:	b082      	sub	sp, #8
    1270:	af00      	add	r7, sp, #0
    1272:	f7ff ffc9 	bl	1208 <task_enter_critical>
    1276:	6078      	str	r0, [r7, #4]
    1278:	4b0a      	ldr	r3, [pc, #40]	; (12a4 <task_sched_enable+0x38>)
    127a:	781b      	ldrb	r3, [r3, #0]
    127c:	2b00      	cmp	r3, #0
    127e:	d00b      	beq.n	1298 <task_sched_enable+0x2c>
    1280:	4b08      	ldr	r3, [pc, #32]	; (12a4 <task_sched_enable+0x38>)
    1282:	781b      	ldrb	r3, [r3, #0]
    1284:	3b01      	subs	r3, #1
    1286:	b2da      	uxtb	r2, r3
    1288:	4b06      	ldr	r3, [pc, #24]	; (12a4 <task_sched_enable+0x38>)
    128a:	701a      	strb	r2, [r3, #0]
    128c:	4b05      	ldr	r3, [pc, #20]	; (12a4 <task_sched_enable+0x38>)
    128e:	781b      	ldrb	r3, [r3, #0]
    1290:	2b00      	cmp	r3, #0
    1292:	d101      	bne.n	1298 <task_sched_enable+0x2c>
    1294:	f7ff fe92 	bl	fbc <task_sched>
    1298:	6878      	ldr	r0, [r7, #4]
    129a:	f7ff ffc3 	bl	1224 <task_exit_critical>
    129e:	3708      	adds	r7, #8
    12a0:	46bd      	mov	sp, r7
    12a2:	bd80      	pop	{r7, pc}
    12a4:	2000102c 	andcs	r1, r0, ip, lsr #32

000012a8 <task_highest_ready>:
    12a8:	b580      	push	{r7, lr}
    12aa:	b082      	sub	sp, #8
    12ac:	af00      	add	r7, sp, #0
    12ae:	480a      	ldr	r0, [pc, #40]	; (12d8 <task_highest_ready+0x30>)
    12b0:	f000 f92a 	bl	1508 <bitmap_get_first_set>
    12b4:	6078      	str	r0, [r7, #4]
    12b6:	687a      	ldr	r2, [r7, #4]
    12b8:	4613      	mov	r3, r2
    12ba:	005b      	lsls	r3, r3, #1
    12bc:	4413      	add	r3, r2
    12be:	009b      	lsls	r3, r3, #2
    12c0:	4a06      	ldr	r2, [pc, #24]	; (12dc <task_highest_ready+0x34>)
    12c2:	4413      	add	r3, r2
    12c4:	4618      	mov	r0, r3
    12c6:	f000 f99f 	bl	1608 <list_head>
    12ca:	6038      	str	r0, [r7, #0]
    12cc:	683b      	ldr	r3, [r7, #0]
    12ce:	3b18      	subs	r3, #24
    12d0:	4618      	mov	r0, r3
    12d2:	3708      	adds	r7, #8
    12d4:	46bd      	mov	sp, r7
    12d6:	bd80      	pop	{r7, pc}
    12d8:	20001030 	andcs	r1, r0, r0, lsr r0
    12dc:	200040c0 	andcs	r4, r0, r0, asr #1

000012e0 <task_ready>:
    12e0:	b580      	push	{r7, lr}
    12e2:	b082      	sub	sp, #8
    12e4:	af00      	add	r7, sp, #0
    12e6:	6078      	str	r0, [r7, #4]
    12e8:	687b      	ldr	r3, [r7, #4]
    12ea:	689a      	ldr	r2, [r3, #8]
    12ec:	4613      	mov	r3, r2
    12ee:	005b      	lsls	r3, r3, #1
    12f0:	4413      	add	r3, r2
    12f2:	009b      	lsls	r3, r3, #2
    12f4:	4a08      	ldr	r2, [pc, #32]	; (1318 <task_ready+0x38>)
    12f6:	441a      	add	r2, r3
    12f8:	687b      	ldr	r3, [r7, #4]
    12fa:	3318      	adds	r3, #24
    12fc:	4610      	mov	r0, r2
    12fe:	4619      	mov	r1, r3
    1300:	f000 fa38 	bl	1774 <list_append_last>
    1304:	687b      	ldr	r3, [r7, #4]
    1306:	689b      	ldr	r3, [r3, #8]
    1308:	4804      	ldr	r0, [pc, #16]	; (131c <task_ready+0x3c>)
    130a:	4619      	mov	r1, r3
    130c:	f000 f8d4 	bl	14b8 <bitmap_set>
    1310:	3708      	adds	r7, #8
    1312:	46bd      	mov	sp, r7
    1314:	bd80      	pop	{r7, pc}
    1316:	bf00      	nop
    1318:	200040c0 	andcs	r4, r0, r0, asr #1
    131c:	20001030 	andcs	r1, r0, r0, lsr r0

00001320 <task_unready>:
    1320:	b580      	push	{r7, lr}
    1322:	b082      	sub	sp, #8
    1324:	af00      	add	r7, sp, #0
    1326:	6078      	str	r0, [r7, #4]
    1328:	687b      	ldr	r3, [r7, #4]
    132a:	689a      	ldr	r2, [r3, #8]
    132c:	4613      	mov	r3, r2
    132e:	005b      	lsls	r3, r3, #1
    1330:	4413      	add	r3, r2
    1332:	009b      	lsls	r3, r3, #2
    1334:	4a12      	ldr	r2, [pc, #72]	; (1380 <task_unready+0x60>)
    1336:	441a      	add	r2, r3
    1338:	687b      	ldr	r3, [r7, #4]
    133a:	3318      	adds	r3, #24
    133c:	4610      	mov	r0, r2
    133e:	4619      	mov	r1, r3
    1340:	f000 fa76 	bl	1830 <list_remove>
    1344:	687b      	ldr	r3, [r7, #4]
    1346:	689a      	ldr	r2, [r3, #8]
    1348:	4613      	mov	r3, r2
    134a:	005b      	lsls	r3, r3, #1
    134c:	4413      	add	r3, r2
    134e:	009b      	lsls	r3, r3, #2
    1350:	4a0b      	ldr	r2, [pc, #44]	; (1380 <task_unready+0x60>)
    1352:	4413      	add	r3, r2
    1354:	4618      	mov	r0, r3
    1356:	f000 f943 	bl	15e0 <list_count>
    135a:	4603      	mov	r3, r0
    135c:	2b00      	cmp	r3, #0
    135e:	d105      	bne.n	136c <task_unready+0x4c>
    1360:	687b      	ldr	r3, [r7, #4]
    1362:	689b      	ldr	r3, [r3, #8]
    1364:	4807      	ldr	r0, [pc, #28]	; (1384 <task_unready+0x64>)
    1366:	4619      	mov	r1, r3
    1368:	f000 f8ba 	bl	14e0 <bitmap_clear>
    136c:	687b      	ldr	r3, [r7, #4]
    136e:	689b      	ldr	r3, [r3, #8]
    1370:	4804      	ldr	r0, [pc, #16]	; (1384 <task_unready+0x64>)
    1372:	4619      	mov	r1, r3
    1374:	f000 f8b4 	bl	14e0 <bitmap_clear>
    1378:	3708      	adds	r7, #8
    137a:	46bd      	mov	sp, r7
    137c:	bd80      	pop	{r7, pc}
    137e:	bf00      	nop
    1380:	200040c0 	andcs	r4, r0, r0, asr #1
    1384:	20001030 	andcs	r1, r0, r0, lsr r0

00001388 <task_delay_wait>:
    1388:	b580      	push	{r7, lr}
    138a:	b082      	sub	sp, #8
    138c:	af00      	add	r7, sp, #0
    138e:	6078      	str	r0, [r7, #4]
    1390:	6039      	str	r1, [r7, #0]
    1392:	687b      	ldr	r3, [r7, #4]
    1394:	683a      	ldr	r2, [r7, #0]
    1396:	605a      	str	r2, [r3, #4]
    1398:	687b      	ldr	r3, [r7, #4]
    139a:	330c      	adds	r3, #12
    139c:	4806      	ldr	r0, [pc, #24]	; (13b8 <task_delay_wait+0x30>)
    139e:	4619      	mov	r1, r3
    13a0:	f000 f9be 	bl	1720 <list_insert_head>
    13a4:	687b      	ldr	r3, [r7, #4]
    13a6:	695b      	ldr	r3, [r3, #20]
    13a8:	f043 0202 	orr.w	r2, r3, #2
    13ac:	687b      	ldr	r3, [r7, #4]
    13ae:	615a      	str	r2, [r3, #20]
    13b0:	3708      	adds	r7, #8
    13b2:	46bd      	mov	sp, r7
    13b4:	bd80      	pop	{r7, pc}
    13b6:	bf00      	nop
    13b8:	20001034 	andcs	r1, r0, r4, lsr r0

000013bc <task_delay_wakeup>:
    13bc:	b580      	push	{r7, lr}
    13be:	b082      	sub	sp, #8
    13c0:	af00      	add	r7, sp, #0
    13c2:	6078      	str	r0, [r7, #4]
    13c4:	687b      	ldr	r3, [r7, #4]
    13c6:	330c      	adds	r3, #12
    13c8:	4806      	ldr	r0, [pc, #24]	; (13e4 <task_delay_wakeup+0x28>)
    13ca:	4619      	mov	r1, r3
    13cc:	f000 fa30 	bl	1830 <list_remove>
    13d0:	687b      	ldr	r3, [r7, #4]
    13d2:	695b      	ldr	r3, [r3, #20]
    13d4:	f023 0202 	bic.w	r2, r3, #2
    13d8:	687b      	ldr	r3, [r7, #4]
    13da:	615a      	str	r2, [r3, #20]
    13dc:	3708      	adds	r7, #8
    13de:	46bd      	mov	sp, r7
    13e0:	bd80      	pop	{r7, pc}
    13e2:	bf00      	nop
    13e4:	20001034 	andcs	r1, r0, r4, lsr r0

000013e8 <task_suspend>:
    13e8:	b580      	push	{r7, lr}
    13ea:	b084      	sub	sp, #16
    13ec:	af00      	add	r7, sp, #0
    13ee:	6078      	str	r0, [r7, #4]
    13f0:	f7ff ff0a 	bl	1208 <task_enter_critical>
    13f4:	60f8      	str	r0, [r7, #12]
    13f6:	687b      	ldr	r3, [r7, #4]
    13f8:	695b      	ldr	r3, [r3, #20]
    13fa:	f003 0302 	and.w	r3, r3, #2
    13fe:	2b00      	cmp	r3, #0
    1400:	d116      	bne.n	1430 <task_suspend+0x48>
    1402:	687b      	ldr	r3, [r7, #4]
    1404:	6a5b      	ldr	r3, [r3, #36]	; 0x24
    1406:	1c59      	adds	r1, r3, #1
    1408:	687a      	ldr	r2, [r7, #4]
    140a:	6251      	str	r1, [r2, #36]	; 0x24
    140c:	2b00      	cmp	r3, #0
    140e:	d10f      	bne.n	1430 <task_suspend+0x48>
    1410:	687b      	ldr	r3, [r7, #4]
    1412:	695b      	ldr	r3, [r3, #20]
    1414:	f043 0204 	orr.w	r2, r3, #4
    1418:	687b      	ldr	r3, [r7, #4]
    141a:	615a      	str	r2, [r3, #20]
    141c:	6878      	ldr	r0, [r7, #4]
    141e:	f7ff ff7f 	bl	1320 <task_unready>
    1422:	4b06      	ldr	r3, [pc, #24]	; (143c <task_suspend+0x54>)
    1424:	681b      	ldr	r3, [r3, #0]
    1426:	687a      	ldr	r2, [r7, #4]
    1428:	429a      	cmp	r2, r3
    142a:	d101      	bne.n	1430 <task_suspend+0x48>
    142c:	f7ff fdc6 	bl	fbc <task_sched>
    1430:	68f8      	ldr	r0, [r7, #12]
    1432:	f7ff fef7 	bl	1224 <task_exit_critical>
    1436:	3710      	adds	r7, #16
    1438:	46bd      	mov	sp, r7
    143a:	bd80      	pop	{r7, pc}
    143c:	200040bc 	strhcs	r4, [r0], -ip

00001440 <task_resume>:
    1440:	b580      	push	{r7, lr}
    1442:	b084      	sub	sp, #16
    1444:	af00      	add	r7, sp, #0
    1446:	6078      	str	r0, [r7, #4]
    1448:	f7ff fede 	bl	1208 <task_enter_critical>
    144c:	60f8      	str	r0, [r7, #12]
    144e:	687b      	ldr	r3, [r7, #4]
    1450:	695b      	ldr	r3, [r3, #20]
    1452:	f003 0304 	and.w	r3, r3, #4
    1456:	2b00      	cmp	r3, #0
    1458:	d013      	beq.n	1482 <task_resume+0x42>
    145a:	687b      	ldr	r3, [r7, #4]
    145c:	6a5b      	ldr	r3, [r3, #36]	; 0x24
    145e:	1e5a      	subs	r2, r3, #1
    1460:	687b      	ldr	r3, [r7, #4]
    1462:	625a      	str	r2, [r3, #36]	; 0x24
    1464:	687b      	ldr	r3, [r7, #4]
    1466:	6a5b      	ldr	r3, [r3, #36]	; 0x24
    1468:	2b00      	cmp	r3, #0
    146a:	d10a      	bne.n	1482 <task_resume+0x42>
    146c:	687b      	ldr	r3, [r7, #4]
    146e:	695b      	ldr	r3, [r3, #20]
    1470:	f023 0204 	bic.w	r2, r3, #4
    1474:	687b      	ldr	r3, [r7, #4]
    1476:	615a      	str	r2, [r3, #20]
    1478:	6878      	ldr	r0, [r7, #4]
    147a:	f7ff ff31 	bl	12e0 <task_ready>
    147e:	f7ff fd9d 	bl	fbc <task_sched>
    1482:	68f8      	ldr	r0, [r7, #12]
    1484:	f7ff fece 	bl	1224 <task_exit_critical>
    1488:	3710      	adds	r7, #16
    148a:	46bd      	mov	sp, r7
    148c:	bd80      	pop	{r7, pc}
    148e:	bf00      	nop

00001490 <bitmap_init>:
    1490:	b480      	push	{r7}
    1492:	b083      	sub	sp, #12
    1494:	af00      	add	r7, sp, #0
    1496:	6078      	str	r0, [r7, #4]
    1498:	687b      	ldr	r3, [r7, #4]
    149a:	2200      	movs	r2, #0
    149c:	601a      	str	r2, [r3, #0]
    149e:	370c      	adds	r7, #12
    14a0:	46bd      	mov	sp, r7
    14a2:	f85d 7b04 	ldr.w	r7, [sp], #4
    14a6:	4770      	bx	lr

000014a8 <bitmap_count>:
    14a8:	b480      	push	{r7}
    14aa:	af00      	add	r7, sp, #0
    14ac:	2320      	movs	r3, #32
    14ae:	4618      	mov	r0, r3
    14b0:	46bd      	mov	sp, r7
    14b2:	f85d 7b04 	ldr.w	r7, [sp], #4
    14b6:	4770      	bx	lr

000014b8 <bitmap_set>:
    14b8:	b480      	push	{r7}
    14ba:	b083      	sub	sp, #12
    14bc:	af00      	add	r7, sp, #0
    14be:	6078      	str	r0, [r7, #4]
    14c0:	6039      	str	r1, [r7, #0]
    14c2:	687b      	ldr	r3, [r7, #4]
    14c4:	681b      	ldr	r3, [r3, #0]
    14c6:	683a      	ldr	r2, [r7, #0]
    14c8:	2101      	movs	r1, #1
    14ca:	fa01 f202 	lsl.w	r2, r1, r2
    14ce:	431a      	orrs	r2, r3
    14d0:	687b      	ldr	r3, [r7, #4]
    14d2:	601a      	str	r2, [r3, #0]
    14d4:	370c      	adds	r7, #12
    14d6:	46bd      	mov	sp, r7
    14d8:	f85d 7b04 	ldr.w	r7, [sp], #4
    14dc:	4770      	bx	lr
    14de:	bf00      	nop

000014e0 <bitmap_clear>:
    14e0:	b480      	push	{r7}
    14e2:	b083      	sub	sp, #12
    14e4:	af00      	add	r7, sp, #0
    14e6:	6078      	str	r0, [r7, #4]
    14e8:	6039      	str	r1, [r7, #0]
    14ea:	687b      	ldr	r3, [r7, #4]
    14ec:	681b      	ldr	r3, [r3, #0]
    14ee:	683a      	ldr	r2, [r7, #0]
    14f0:	2101      	movs	r1, #1
    14f2:	fa01 f202 	lsl.w	r2, r1, r2
    14f6:	43d2      	mvns	r2, r2
    14f8:	401a      	ands	r2, r3
    14fa:	687b      	ldr	r3, [r7, #4]
    14fc:	601a      	str	r2, [r3, #0]
    14fe:	370c      	adds	r7, #12
    1500:	46bd      	mov	sp, r7
    1502:	f85d 7b04 	ldr.w	r7, [sp], #4
    1506:	4770      	bx	lr

00001508 <bitmap_get_first_set>:
    1508:	b580      	push	{r7, lr}
    150a:	b084      	sub	sp, #16
    150c:	af00      	add	r7, sp, #0
    150e:	6078      	str	r0, [r7, #4]
    1510:	2320      	movs	r3, #32
    1512:	60fb      	str	r3, [r7, #12]
    1514:	687b      	ldr	r3, [r7, #4]
    1516:	681b      	ldr	r3, [r3, #0]
    1518:	b2db      	uxtb	r3, r3
    151a:	2b00      	cmp	r3, #0
    151c:	d006      	beq.n	152c <bitmap_get_first_set+0x24>
    151e:	687b      	ldr	r3, [r7, #4]
    1520:	681b      	ldr	r3, [r3, #0]
    1522:	b2db      	uxtb	r3, r3
    1524:	4a1b      	ldr	r2, [pc, #108]	; (1594 <bitmap_get_first_set+0x8c>)
    1526:	5cd3      	ldrb	r3, [r2, r3]
    1528:	60fb      	str	r3, [r7, #12]
    152a:	e02e      	b.n	158a <bitmap_get_first_set+0x82>
    152c:	687b      	ldr	r3, [r7, #4]
    152e:	681b      	ldr	r3, [r3, #0]
    1530:	f403 437f 	and.w	r3, r3, #65280	; 0xff00
    1534:	2b00      	cmp	r3, #0
    1536:	d008      	beq.n	154a <bitmap_get_first_set+0x42>
    1538:	687b      	ldr	r3, [r7, #4]
    153a:	681b      	ldr	r3, [r3, #0]
    153c:	0a1b      	lsrs	r3, r3, #8
    153e:	b2db      	uxtb	r3, r3
    1540:	4a14      	ldr	r2, [pc, #80]	; (1594 <bitmap_get_first_set+0x8c>)
    1542:	5cd3      	ldrb	r3, [r2, r3]
    1544:	3308      	adds	r3, #8
    1546:	60fb      	str	r3, [r7, #12]
    1548:	e01f      	b.n	158a <bitmap_get_first_set+0x82>
    154a:	687b      	ldr	r3, [r7, #4]
    154c:	681b      	ldr	r3, [r3, #0]
    154e:	f403 037f 	and.w	r3, r3, #16711680	; 0xff0000
    1552:	2b00      	cmp	r3, #0
    1554:	d008      	beq.n	1568 <bitmap_get_first_set+0x60>
    1556:	687b      	ldr	r3, [r7, #4]
    1558:	681b      	ldr	r3, [r3, #0]
    155a:	0c1b      	lsrs	r3, r3, #16
    155c:	b2db      	uxtb	r3, r3
    155e:	4a0d      	ldr	r2, [pc, #52]	; (1594 <bitmap_get_first_set+0x8c>)
    1560:	5cd3      	ldrb	r3, [r2, r3]
    1562:	3310      	adds	r3, #16
    1564:	60fb      	str	r3, [r7, #12]
    1566:	e010      	b.n	158a <bitmap_get_first_set+0x82>
    1568:	687b      	ldr	r3, [r7, #4]
    156a:	681b      	ldr	r3, [r3, #0]
    156c:	f003 437f 	and.w	r3, r3, #4278190080	; 0xff000000
    1570:	2b00      	cmp	r3, #0
    1572:	d007      	beq.n	1584 <bitmap_get_first_set+0x7c>
    1574:	687b      	ldr	r3, [r7, #4]
    1576:	681b      	ldr	r3, [r3, #0]
    1578:	0e1b      	lsrs	r3, r3, #24
    157a:	4a06      	ldr	r2, [pc, #24]	; (1594 <bitmap_get_first_set+0x8c>)
    157c:	5cd3      	ldrb	r3, [r2, r3]
    157e:	3318      	adds	r3, #24
    1580:	60fb      	str	r3, [r7, #12]
    1582:	e002      	b.n	158a <bitmap_get_first_set+0x82>
    1584:	f7ff ff90 	bl	14a8 <bitmap_count>
    1588:	60f8      	str	r0, [r7, #12]
    158a:	68fb      	ldr	r3, [r7, #12]
    158c:	4618      	mov	r0, r3
    158e:	3710      	adds	r7, #16
    1590:	46bd      	mov	sp, r7
    1592:	bd80      	pop	{r7, pc}
    1594:	0000198c 	andeq	r1, r0, ip, lsl #19

00001598 <list_node_init>:
    1598:	b480      	push	{r7}
    159a:	b083      	sub	sp, #12
    159c:	af00      	add	r7, sp, #0
    159e:	6078      	str	r0, [r7, #4]
    15a0:	687b      	ldr	r3, [r7, #4]
    15a2:	2b00      	cmp	r3, #0
    15a4:	d005      	beq.n	15b2 <list_node_init+0x1a>
    15a6:	687b      	ldr	r3, [r7, #4]
    15a8:	687a      	ldr	r2, [r7, #4]
    15aa:	601a      	str	r2, [r3, #0]
    15ac:	687b      	ldr	r3, [r7, #4]
    15ae:	687a      	ldr	r2, [r7, #4]
    15b0:	605a      	str	r2, [r3, #4]
    15b2:	370c      	adds	r7, #12
    15b4:	46bd      	mov	sp, r7
    15b6:	f85d 7b04 	ldr.w	r7, [sp], #4
    15ba:	4770      	bx	lr

000015bc <list_init>:
    15bc:	b580      	push	{r7, lr}
    15be:	b082      	sub	sp, #8
    15c0:	af00      	add	r7, sp, #0
    15c2:	6078      	str	r0, [r7, #4]
    15c4:	687b      	ldr	r3, [r7, #4]
    15c6:	2b00      	cmp	r3, #0
    15c8:	d006      	beq.n	15d8 <list_init+0x1c>
    15ca:	687b      	ldr	r3, [r7, #4]
    15cc:	2200      	movs	r2, #0
    15ce:	609a      	str	r2, [r3, #8]
    15d0:	687b      	ldr	r3, [r7, #4]
    15d2:	4618      	mov	r0, r3
    15d4:	f7ff ffe0 	bl	1598 <list_node_init>
    15d8:	3708      	adds	r7, #8
    15da:	46bd      	mov	sp, r7
    15dc:	bd80      	pop	{r7, pc}
    15de:	bf00      	nop

000015e0 <list_count>:
    15e0:	b480      	push	{r7}
    15e2:	b085      	sub	sp, #20
    15e4:	af00      	add	r7, sp, #0
    15e6:	6078      	str	r0, [r7, #4]
    15e8:	2300      	movs	r3, #0
    15ea:	60fb      	str	r3, [r7, #12]
    15ec:	687b      	ldr	r3, [r7, #4]
    15ee:	2b00      	cmp	r3, #0
    15f0:	d002      	beq.n	15f8 <list_count+0x18>
    15f2:	687b      	ldr	r3, [r7, #4]
    15f4:	689b      	ldr	r3, [r3, #8]
    15f6:	60fb      	str	r3, [r7, #12]
    15f8:	68fb      	ldr	r3, [r7, #12]
    15fa:	4618      	mov	r0, r3
    15fc:	3714      	adds	r7, #20
    15fe:	46bd      	mov	sp, r7
    1600:	f85d 7b04 	ldr.w	r7, [sp], #4
    1604:	4770      	bx	lr
    1606:	bf00      	nop

00001608 <list_head>:
    1608:	b480      	push	{r7}
    160a:	b085      	sub	sp, #20
    160c:	af00      	add	r7, sp, #0
    160e:	6078      	str	r0, [r7, #4]
    1610:	687b      	ldr	r3, [r7, #4]
    1612:	60bb      	str	r3, [r7, #8]
    1614:	2300      	movs	r3, #0
    1616:	60fb      	str	r3, [r7, #12]
    1618:	687b      	ldr	r3, [r7, #4]
    161a:	689b      	ldr	r3, [r3, #8]
    161c:	2b00      	cmp	r3, #0
    161e:	d002      	beq.n	1626 <list_head+0x1e>
    1620:	68bb      	ldr	r3, [r7, #8]
    1622:	685b      	ldr	r3, [r3, #4]
    1624:	60fb      	str	r3, [r7, #12]
    1626:	68fb      	ldr	r3, [r7, #12]
    1628:	4618      	mov	r0, r3
    162a:	3714      	adds	r7, #20
    162c:	46bd      	mov	sp, r7
    162e:	f85d 7b04 	ldr.w	r7, [sp], #4
    1632:	4770      	bx	lr

00001634 <list_tail>:
    1634:	b480      	push	{r7}
    1636:	b085      	sub	sp, #20
    1638:	af00      	add	r7, sp, #0
    163a:	6078      	str	r0, [r7, #4]
    163c:	687b      	ldr	r3, [r7, #4]
    163e:	60bb      	str	r3, [r7, #8]
    1640:	2300      	movs	r3, #0
    1642:	60fb      	str	r3, [r7, #12]
    1644:	687b      	ldr	r3, [r7, #4]
    1646:	689b      	ldr	r3, [r3, #8]
    1648:	2b00      	cmp	r3, #0
    164a:	d002      	beq.n	1652 <list_tail+0x1e>
    164c:	68bb      	ldr	r3, [r7, #8]
    164e:	681b      	ldr	r3, [r3, #0]
    1650:	60fb      	str	r3, [r7, #12]
    1652:	68fb      	ldr	r3, [r7, #12]
    1654:	4618      	mov	r0, r3
    1656:	3714      	adds	r7, #20
    1658:	46bd      	mov	sp, r7
    165a:	f85d 7b04 	ldr.w	r7, [sp], #4
    165e:	4770      	bx	lr

00001660 <node_prev>:
    1660:	b480      	push	{r7}
    1662:	b085      	sub	sp, #20
    1664:	af00      	add	r7, sp, #0
    1666:	6078      	str	r0, [r7, #4]
    1668:	2300      	movs	r3, #0
    166a:	60fb      	str	r3, [r7, #12]
    166c:	687b      	ldr	r3, [r7, #4]
    166e:	2b00      	cmp	r3, #0
    1670:	d002      	beq.n	1678 <node_prev+0x18>
    1672:	687b      	ldr	r3, [r7, #4]
    1674:	681b      	ldr	r3, [r3, #0]
    1676:	60fb      	str	r3, [r7, #12]
    1678:	68fb      	ldr	r3, [r7, #12]
    167a:	4618      	mov	r0, r3
    167c:	3714      	adds	r7, #20
    167e:	46bd      	mov	sp, r7
    1680:	f85d 7b04 	ldr.w	r7, [sp], #4
    1684:	4770      	bx	lr
    1686:	bf00      	nop

00001688 <node_next>:
    1688:	b480      	push	{r7}
    168a:	b085      	sub	sp, #20
    168c:	af00      	add	r7, sp, #0
    168e:	6078      	str	r0, [r7, #4]
    1690:	2300      	movs	r3, #0
    1692:	60fb      	str	r3, [r7, #12]
    1694:	687b      	ldr	r3, [r7, #4]
    1696:	2b00      	cmp	r3, #0
    1698:	d002      	beq.n	16a0 <node_next+0x18>
    169a:	687b      	ldr	r3, [r7, #4]
    169c:	685b      	ldr	r3, [r3, #4]
    169e:	60fb      	str	r3, [r7, #12]
    16a0:	68fb      	ldr	r3, [r7, #12]
    16a2:	4618      	mov	r0, r3
    16a4:	3714      	adds	r7, #20
    16a6:	46bd      	mov	sp, r7
    16a8:	f85d 7b04 	ldr.w	r7, [sp], #4
    16ac:	4770      	bx	lr
    16ae:	bf00      	nop

000016b0 <list_remove_all>:
    16b0:	b480      	push	{r7}
    16b2:	b087      	sub	sp, #28
    16b4:	af00      	add	r7, sp, #0
    16b6:	6078      	str	r0, [r7, #4]
    16b8:	2300      	movs	r3, #0
    16ba:	60fb      	str	r3, [r7, #12]
    16bc:	2300      	movs	r3, #0
    16be:	613b      	str	r3, [r7, #16]
    16c0:	2300      	movs	r3, #0
    16c2:	60bb      	str	r3, [r7, #8]
    16c4:	687b      	ldr	r3, [r7, #4]
    16c6:	2b00      	cmp	r3, #0
    16c8:	d100      	bne.n	16cc <list_remove_all+0x1c>
    16ca:	e022      	b.n	1712 <list_remove_all+0x62>
    16cc:	687b      	ldr	r3, [r7, #4]
    16ce:	60fb      	str	r3, [r7, #12]
    16d0:	68fb      	ldr	r3, [r7, #12]
    16d2:	685b      	ldr	r3, [r3, #4]
    16d4:	613b      	str	r3, [r7, #16]
    16d6:	687b      	ldr	r3, [r7, #4]
    16d8:	689b      	ldr	r3, [r3, #8]
    16da:	617b      	str	r3, [r7, #20]
    16dc:	e00d      	b.n	16fa <list_remove_all+0x4a>
    16de:	693b      	ldr	r3, [r7, #16]
    16e0:	60bb      	str	r3, [r7, #8]
    16e2:	68bb      	ldr	r3, [r7, #8]
    16e4:	685b      	ldr	r3, [r3, #4]
    16e6:	613b      	str	r3, [r7, #16]
    16e8:	68bb      	ldr	r3, [r7, #8]
    16ea:	68ba      	ldr	r2, [r7, #8]
    16ec:	605a      	str	r2, [r3, #4]
    16ee:	68bb      	ldr	r3, [r7, #8]
    16f0:	68ba      	ldr	r2, [r7, #8]
    16f2:	601a      	str	r2, [r3, #0]
    16f4:	697b      	ldr	r3, [r7, #20]
    16f6:	3b01      	subs	r3, #1
    16f8:	617b      	str	r3, [r7, #20]
    16fa:	697b      	ldr	r3, [r7, #20]
    16fc:	2b00      	cmp	r3, #0
    16fe:	d1ee      	bne.n	16de <list_remove_all+0x2e>
    1700:	68fb      	ldr	r3, [r7, #12]
    1702:	68fa      	ldr	r2, [r7, #12]
    1704:	601a      	str	r2, [r3, #0]
    1706:	68fb      	ldr	r3, [r7, #12]
    1708:	68fa      	ldr	r2, [r7, #12]
    170a:	605a      	str	r2, [r3, #4]
    170c:	687b      	ldr	r3, [r7, #4]
    170e:	2200      	movs	r2, #0
    1710:	609a      	str	r2, [r3, #8]
    1712:	bf00      	nop
    1714:	371c      	adds	r7, #28
    1716:	46bd      	mov	sp, r7
    1718:	f85d 7b04 	ldr.w	r7, [sp], #4
    171c:	4770      	bx	lr
    171e:	bf00      	nop

00001720 <list_insert_head>:
    1720:	b480      	push	{r7}
    1722:	b085      	sub	sp, #20
    1724:	af00      	add	r7, sp, #0
    1726:	6078      	str	r0, [r7, #4]
    1728:	6039      	str	r1, [r7, #0]
    172a:	2300      	movs	r3, #0
    172c:	60fb      	str	r3, [r7, #12]
    172e:	2300      	movs	r3, #0
    1730:	60bb      	str	r3, [r7, #8]
    1732:	687b      	ldr	r3, [r7, #4]
    1734:	2b00      	cmp	r3, #0
    1736:	d100      	bne.n	173a <list_insert_head+0x1a>
    1738:	e015      	b.n	1766 <list_insert_head+0x46>
    173a:	687b      	ldr	r3, [r7, #4]
    173c:	60fb      	str	r3, [r7, #12]
    173e:	68fb      	ldr	r3, [r7, #12]
    1740:	685b      	ldr	r3, [r3, #4]
    1742:	60bb      	str	r3, [r7, #8]
    1744:	68fb      	ldr	r3, [r7, #12]
    1746:	683a      	ldr	r2, [r7, #0]
    1748:	605a      	str	r2, [r3, #4]
    174a:	68bb      	ldr	r3, [r7, #8]
    174c:	683a      	ldr	r2, [r7, #0]
    174e:	601a      	str	r2, [r3, #0]
    1750:	683b      	ldr	r3, [r7, #0]
    1752:	68fa      	ldr	r2, [r7, #12]
    1754:	601a      	str	r2, [r3, #0]
    1756:	683b      	ldr	r3, [r7, #0]
    1758:	68ba      	ldr	r2, [r7, #8]
    175a:	605a      	str	r2, [r3, #4]
    175c:	687b      	ldr	r3, [r7, #4]
    175e:	689b      	ldr	r3, [r3, #8]
    1760:	1c5a      	adds	r2, r3, #1
    1762:	687b      	ldr	r3, [r7, #4]
    1764:	609a      	str	r2, [r3, #8]
    1766:	bf00      	nop
    1768:	3714      	adds	r7, #20
    176a:	46bd      	mov	sp, r7
    176c:	f85d 7b04 	ldr.w	r7, [sp], #4
    1770:	4770      	bx	lr
    1772:	bf00      	nop

00001774 <list_append_last>:
    1774:	b480      	push	{r7}
    1776:	b085      	sub	sp, #20
    1778:	af00      	add	r7, sp, #0
    177a:	6078      	str	r0, [r7, #4]
    177c:	6039      	str	r1, [r7, #0]
    177e:	2300      	movs	r3, #0
    1780:	60fb      	str	r3, [r7, #12]
    1782:	2300      	movs	r3, #0
    1784:	60bb      	str	r3, [r7, #8]
    1786:	687b      	ldr	r3, [r7, #4]
    1788:	2b00      	cmp	r3, #0
    178a:	d100      	bne.n	178e <list_append_last+0x1a>
    178c:	e015      	b.n	17ba <list_append_last+0x46>
    178e:	687b      	ldr	r3, [r7, #4]
    1790:	60fb      	str	r3, [r7, #12]
    1792:	68fb      	ldr	r3, [r7, #12]
    1794:	685b      	ldr	r3, [r3, #4]
    1796:	60bb      	str	r3, [r7, #8]
    1798:	68fb      	ldr	r3, [r7, #12]
    179a:	683a      	ldr	r2, [r7, #0]
    179c:	601a      	str	r2, [r3, #0]
    179e:	68bb      	ldr	r3, [r7, #8]
    17a0:	683a      	ldr	r2, [r7, #0]
    17a2:	605a      	str	r2, [r3, #4]
    17a4:	683b      	ldr	r3, [r7, #0]
    17a6:	68fa      	ldr	r2, [r7, #12]
    17a8:	605a      	str	r2, [r3, #4]
    17aa:	683b      	ldr	r3, [r7, #0]
    17ac:	68ba      	ldr	r2, [r7, #8]
    17ae:	601a      	str	r2, [r3, #0]
    17b0:	687b      	ldr	r3, [r7, #4]
    17b2:	689b      	ldr	r3, [r3, #8]
    17b4:	1c5a      	adds	r2, r3, #1
    17b6:	687b      	ldr	r3, [r7, #4]
    17b8:	609a      	str	r2, [r3, #8]
    17ba:	bf00      	nop
    17bc:	3714      	adds	r7, #20
    17be:	46bd      	mov	sp, r7
    17c0:	f85d 7b04 	ldr.w	r7, [sp], #4
    17c4:	4770      	bx	lr
    17c6:	bf00      	nop

000017c8 <list_remove_first>:
    17c8:	b480      	push	{r7}
    17ca:	b087      	sub	sp, #28
    17cc:	af00      	add	r7, sp, #0
    17ce:	6078      	str	r0, [r7, #4]
    17d0:	2300      	movs	r3, #0
    17d2:	613b      	str	r3, [r7, #16]
    17d4:	2300      	movs	r3, #0
    17d6:	60fb      	str	r3, [r7, #12]
    17d8:	2300      	movs	r3, #0
    17da:	617b      	str	r3, [r7, #20]
    17dc:	687b      	ldr	r3, [r7, #4]
    17de:	2b00      	cmp	r3, #0
    17e0:	d100      	bne.n	17e4 <list_remove_first+0x1c>
    17e2:	e01d      	b.n	1820 <list_remove_first+0x58>
    17e4:	687b      	ldr	r3, [r7, #4]
    17e6:	613b      	str	r3, [r7, #16]
    17e8:	693b      	ldr	r3, [r7, #16]
    17ea:	685b      	ldr	r3, [r3, #4]
    17ec:	617b      	str	r3, [r7, #20]
    17ee:	697a      	ldr	r2, [r7, #20]
    17f0:	693b      	ldr	r3, [r7, #16]
    17f2:	429a      	cmp	r2, r3
    17f4:	d100      	bne.n	17f8 <list_remove_first+0x30>
    17f6:	e013      	b.n	1820 <list_remove_first+0x58>
    17f8:	697b      	ldr	r3, [r7, #20]
    17fa:	685b      	ldr	r3, [r3, #4]
    17fc:	60fb      	str	r3, [r7, #12]
    17fe:	693b      	ldr	r3, [r7, #16]
    1800:	68fa      	ldr	r2, [r7, #12]
    1802:	605a      	str	r2, [r3, #4]
    1804:	68fb      	ldr	r3, [r7, #12]
    1806:	693a      	ldr	r2, [r7, #16]
    1808:	601a      	str	r2, [r3, #0]
    180a:	697b      	ldr	r3, [r7, #20]
    180c:	697a      	ldr	r2, [r7, #20]
    180e:	605a      	str	r2, [r3, #4]
    1810:	697b      	ldr	r3, [r7, #20]
    1812:	697a      	ldr	r2, [r7, #20]
    1814:	601a      	str	r2, [r3, #0]
    1816:	687b      	ldr	r3, [r7, #4]
    1818:	689b      	ldr	r3, [r3, #8]
    181a:	1e5a      	subs	r2, r3, #1
    181c:	687b      	ldr	r3, [r7, #4]
    181e:	609a      	str	r2, [r3, #8]
    1820:	697b      	ldr	r3, [r7, #20]
    1822:	4618      	mov	r0, r3
    1824:	371c      	adds	r7, #28
    1826:	46bd      	mov	sp, r7
    1828:	f85d 7b04 	ldr.w	r7, [sp], #4
    182c:	4770      	bx	lr
    182e:	bf00      	nop

00001830 <list_remove>:
    1830:	b580      	push	{r7, lr}
    1832:	b084      	sub	sp, #16
    1834:	af00      	add	r7, sp, #0
    1836:	6078      	str	r0, [r7, #4]
    1838:	6039      	str	r1, [r7, #0]
    183a:	2300      	movs	r3, #0
    183c:	60fb      	str	r3, [r7, #12]
    183e:	2300      	movs	r3, #0
    1840:	60bb      	str	r3, [r7, #8]
    1842:	687b      	ldr	r3, [r7, #4]
    1844:	2b00      	cmp	r3, #0
    1846:	d01c      	beq.n	1882 <list_remove+0x52>
    1848:	683b      	ldr	r3, [r7, #0]
    184a:	2b00      	cmp	r3, #0
    184c:	d019      	beq.n	1882 <list_remove+0x52>
    184e:	683b      	ldr	r3, [r7, #0]
    1850:	685b      	ldr	r3, [r3, #4]
    1852:	60fb      	str	r3, [r7, #12]
    1854:	683b      	ldr	r3, [r7, #0]
    1856:	681b      	ldr	r3, [r3, #0]
    1858:	60bb      	str	r3, [r7, #8]
    185a:	68fb      	ldr	r3, [r7, #12]
    185c:	2b00      	cmp	r3, #0
    185e:	d010      	beq.n	1882 <list_remove+0x52>
    1860:	68bb      	ldr	r3, [r7, #8]
    1862:	2b00      	cmp	r3, #0
    1864:	d00d      	beq.n	1882 <list_remove+0x52>
    1866:	68bb      	ldr	r3, [r7, #8]
    1868:	68fa      	ldr	r2, [r7, #12]
    186a:	605a      	str	r2, [r3, #4]
    186c:	68fb      	ldr	r3, [r7, #12]
    186e:	68ba      	ldr	r2, [r7, #8]
    1870:	601a      	str	r2, [r3, #0]
    1872:	687b      	ldr	r3, [r7, #4]
    1874:	689b      	ldr	r3, [r3, #8]
    1876:	1e5a      	subs	r2, r3, #1
    1878:	687b      	ldr	r3, [r7, #4]
    187a:	609a      	str	r2, [r3, #8]
    187c:	6838      	ldr	r0, [r7, #0]
    187e:	f7ff fe8b 	bl	1598 <list_node_init>
    1882:	bf00      	nop
    1884:	3710      	adds	r7, #16
    1886:	46bd      	mov	sp, r7
    1888:	bd80      	pop	{r7, pc}
    188a:	bf00      	nop
    188c:	44746e49 	ldrbtmi	r6, [r4], #-3657	; 0xfffff1b7
    1890:	75616665 	strbvc	r6, [r1, #-1637]!	; 0xfffff99b
    1894:	6148746c 	cmpvs	r8, ip, ror #8
    1898:	656c646e 	strbvs	r6, [ip, #-1134]!	; 0xfffffb92
    189c:	00000a72 	andeq	r0, r0, r2, ror sl
    18a0:	623a7325 	eorsvs	r7, sl, #-1811939328	; 0x94000000
    18a4:	726f6665 	rsbvc	r6, pc, #105906176	; 0x6500000
    18a8:	75732065 	ldrbvc	r2, [r3, #-101]!	; 0xffffff9b
    18ac:	6e657073 	mcrvs	0, 3, r7, cr5, cr3, {3}
    18b0:	00000a64 	andeq	r0, r0, r4, ror #20
    18b4:	613a7325 	teqvs	sl, r5, lsr #6
    18b8:	72657466 	rsbvc	r7, r5, #1711276032	; 0x66000000
    18bc:	73757320 	cmnvc	r5, #32, 6	; 0x80000000
    18c0:	646e6570 	strbtvs	r6, [lr], #-1392	; 0xfffffa90
    18c4:	0000000a 	andeq	r0, r0, sl
    18c8:	000a7325 	andeq	r7, sl, r5, lsr #6
    18cc:	6c6c6548 	cfstr64vs	mvdx6, [ip], #-288	; 0xfffffee0
    18d0:	5452206f 	ldrbpl	r2, [r2], #-111	; 0xffffff91
    18d4:	4320534f 			; <UNDEFINED> instruction: 0x4320534f
    18d8:	445f3330 	ldrbmi	r3, [pc], #-816	; 18e0 <list_remove+0xb0>
    18dc:	79616c65 	stmdbvc	r1!, {r0, r2, r5, r6, sl, fp, sp, lr}^
    18e0:	73694c5f 	cmnvc	r9, #24320	; 0x5f00
    18e4:	00000a74 	andeq	r0, r0, r4, ror sl
    18e8:	3a707370 	bcc	1c1e6b0 <_etext+0x1c1cc24>
    18ec:	78257830 	stmdavc	r5!, {r4, r5, fp, ip, sp, lr}
    18f0:	0000000a 	andeq	r0, r0, sl
    18f4:	3a70736d 	bcc	1c1e6b0 <_etext+0x1c1cc24>
    18f8:	78257830 	stmdavc	r5!, {r4, r5, fp, ip, sp, lr}
    18fc:	0000000a 	andeq	r0, r0, sl

00001900 <__func__.3861>:
    1900:	6b736174 	blvs	1cd9ed8 <_etext+0x1cd844c>
    1904:	6e655f31 	mcrvs	15, 3, r5, cr5, cr1, {1}
    1908:	00797274 	rsbseq	r7, r9, r4, ror r2

0000190c <__func__.3872>:
    190c:	6b736174 	blvs	1cd9ee4 <_etext+0x1cd8458>
    1910:	6e655f32 	mcrvs	15, 3, r5, cr5, cr2, {1}
    1914:	00797274 	rsbseq	r7, r9, r4, ror r2

00001918 <__func__.3877>:
    1918:	6b736174 	blvs	1cd9ef0 <_etext+0x1cd8464>
    191c:	6e655f33 	mcrvs	15, 3, r5, cr5, cr3, {1}
    1920:	00797274 	rsbseq	r7, r9, r4, ror r2

00001924 <UART0DR>:
    1924:	4000c000 	andmi	ip, r0, r0

00001928 <hex_asc_table>:
    1928:	33323130 	teqcc	r2, #48, 2
    192c:	37363534 			; <UNDEFINED> instruction: 0x37363534
    1930:	62613938 	rsbvs	r3, r1, #56, 18	; 0xe0000
    1934:	66656463 	strbtvs	r6, [r5], -r3, ror #8

00001938 <upper_hex_asc_table>:
    1938:	33323130 	teqcc	r2, #48, 2
    193c:	37363534 			; <UNDEFINED> instruction: 0x37363534
    1940:	42413938 	submi	r3, r1, #56, 18	; 0xe0000
    1944:	46454443 	strbmi	r4, [r5], -r3, asr #8

00001948 <hex_weight_value_table>:
    1948:	00000001 	andeq	r0, r0, r1
    194c:	0000000a 	andeq	r0, r0, sl
    1950:	00000064 	andeq	r0, r0, r4, rrx
    1954:	000003e8 	andeq	r0, r0, r8, ror #7
    1958:	00002710 	andeq	r2, r0, r0, lsl r7
    195c:	000186a0 	andeq	r8, r1, r0, lsr #13
    1960:	000f4240 	andeq	r4, pc, r0, asr #4
    1964:	00989680 	addseq	r9, r8, r0, lsl #13
    1968:	05f5e100 	ldrbeq	lr, [r5, #256]!	; 0x100
    196c:	000a7325 	andeq	r7, sl, r5, lsr #6

00001970 <__func__.3864>:
    1970:	6b736174 	blvs	1cd9f48 <_etext+0x1cd84bc>
    1974:	696e695f 	stmdbvs	lr!, {r0, r1, r2, r3, r4, r6, r8, fp, sp, lr}^
    1978:	00000074 	andeq	r0, r0, r4, ror r0

0000197c <__func__.3874>:
    197c:	6b736174 	blvs	1cd9f54 <_etext+0x1cd84c8>
    1980:	6e75725f 	mrcvs	2, 3, r7, cr5, cr15, {2}
    1984:	7269665f 	rsbvc	r6, r9, #99614720	; 0x5f00000
    1988:	00007473 	andeq	r7, r0, r3, ror r4

0000198c <quick_table.3774>:
    198c:	000100ff 	strdeq	r0, [r1], -pc	; <UNPREDICTABLE>
    1990:	00010002 	andeq	r0, r1, r2
    1994:	00010003 	andeq	r0, r1, r3
    1998:	00010002 	andeq	r0, r1, r2
    199c:	00010004 	andeq	r0, r1, r4
    19a0:	00010002 	andeq	r0, r1, r2
    19a4:	00010003 	andeq	r0, r1, r3
    19a8:	00010002 	andeq	r0, r1, r2
    19ac:	00010005 	andeq	r0, r1, r5
    19b0:	00010002 	andeq	r0, r1, r2
    19b4:	00010003 	andeq	r0, r1, r3
    19b8:	00010002 	andeq	r0, r1, r2
    19bc:	00010004 	andeq	r0, r1, r4
    19c0:	00010002 	andeq	r0, r1, r2
    19c4:	00010003 	andeq	r0, r1, r3
    19c8:	00010002 	andeq	r0, r1, r2
    19cc:	00010006 	andeq	r0, r1, r6
    19d0:	00010002 	andeq	r0, r1, r2
    19d4:	00010003 	andeq	r0, r1, r3
    19d8:	00010002 	andeq	r0, r1, r2
    19dc:	00010004 	andeq	r0, r1, r4
    19e0:	00010002 	andeq	r0, r1, r2
    19e4:	00010003 	andeq	r0, r1, r3
    19e8:	00010002 	andeq	r0, r1, r2
    19ec:	00010005 	andeq	r0, r1, r5
    19f0:	00010002 	andeq	r0, r1, r2
    19f4:	00010003 	andeq	r0, r1, r3
    19f8:	00010002 	andeq	r0, r1, r2
    19fc:	00010004 	andeq	r0, r1, r4
    1a00:	00010002 	andeq	r0, r1, r2
    1a04:	00010003 	andeq	r0, r1, r3
    1a08:	00010002 	andeq	r0, r1, r2
    1a0c:	00010007 	andeq	r0, r1, r7
    1a10:	00010002 	andeq	r0, r1, r2
    1a14:	00010003 	andeq	r0, r1, r3
    1a18:	00010002 	andeq	r0, r1, r2
    1a1c:	00010004 	andeq	r0, r1, r4
    1a20:	00010002 	andeq	r0, r1, r2
    1a24:	00010003 	andeq	r0, r1, r3
    1a28:	00010002 	andeq	r0, r1, r2
    1a2c:	00010005 	andeq	r0, r1, r5
    1a30:	00010002 	andeq	r0, r1, r2
    1a34:	00010003 	andeq	r0, r1, r3
    1a38:	00010002 	andeq	r0, r1, r2
    1a3c:	00010004 	andeq	r0, r1, r4
    1a40:	00010002 	andeq	r0, r1, r2
    1a44:	00010003 	andeq	r0, r1, r3
    1a48:	00010002 	andeq	r0, r1, r2
    1a4c:	00010006 	andeq	r0, r1, r6
    1a50:	00010002 	andeq	r0, r1, r2
    1a54:	00010003 	andeq	r0, r1, r3
    1a58:	00010002 	andeq	r0, r1, r2
    1a5c:	00010004 	andeq	r0, r1, r4
    1a60:	00010002 	andeq	r0, r1, r2
    1a64:	00010003 	andeq	r0, r1, r3
    1a68:	00010002 	andeq	r0, r1, r2
    1a6c:	00010005 	andeq	r0, r1, r5
    1a70:	00010002 	andeq	r0, r1, r2
    1a74:	00010003 	andeq	r0, r1, r3
    1a78:	00010002 	andeq	r0, r1, r2
    1a7c:	00010004 	andeq	r0, r1, r4
    1a80:	00010002 	andeq	r0, r1, r2
    1a84:	00010003 	andeq	r0, r1, r3
    1a88:	00010002 	andeq	r0, r1, r2

Disassembly of section .bss:

20000000 <_bss>:
	...

20000028 <g_idle_task>:
20000028:	00000000 	andeq	r0, r0, r0

2000002c <g_idle_task_stk>:
	...

2000102c <g_sched_lock>:
2000102c:	00000000 	andeq	r0, r0, r0

20001030 <g_task_prio_bitmap>:
20001030:	00000000 	andeq	r0, r0, r0

20001034 <g_task_delay_list>:
	...

20001040 <task1_stk>:
	...

20002040 <task1>:
	...

20002068 <task2>:
	...

20002090 <task2_stk>:
	...

20003090 <task3_stk>:
	...

20004090 <task3>:
	...

200040b8 <g_next_task>:
200040b8:	00000000 	andeq	r0, r0, r0

200040bc <g_current_task>:
200040bc:	00000000 	andeq	r0, r0, r0

200040c0 <g_task_table>:
	...

Disassembly of section .debug_info:

00000000 <.debug_info>:
       0:	000000d5 	ldrdeq	r0, [r0], -r5
       4:	00000002 	andeq	r0, r0, r2
       8:	01040000 	mrseq	r0, (UNDEF: 4)
       c:	0000008d 	andeq	r0, r0, sp, lsl #1
      10:	00012401 	andeq	r2, r1, r1, lsl #8
      14:	00000d00 	andeq	r0, r0, r0, lsl #26
      18:	00026c00 	andeq	r6, r2, r0, lsl #24
      1c:	00028c00 	andeq	r8, r2, r0, lsl #24
      20:	00000000 	andeq	r0, r0, r0
      24:	06010200 	streq	r0, [r1], -r0, lsl #4
      28:	0000003c 	andeq	r0, r0, ip, lsr r0
      2c:	3a080102 	bcc	20043c <_etext+0x1fe9b0>
      30:	02000000 	andeq	r0, r0, #0
      34:	01140502 	tsteq	r4, r2, lsl #10
      38:	02020000 	andeq	r0, r2, #0
      3c:	00004807 	andeq	r4, r0, r7, lsl #16
      40:	05040200 	streq	r0, [r4, #-512]	; 0xfffffe00
      44:	0000010b 	andeq	r0, r0, fp, lsl #2
      48:	7b070402 	blvc	1c1058 <_etext+0x1bf5cc>
      4c:	02000000 	andeq	r0, r0, #0
      50:	01060508 	tsteq	r6, r8, lsl #10
      54:	08020000 	stmdaeq	r2, {}	; <UNPREDICTABLE>
      58:	00007607 	andeq	r7, r0, r7, lsl #12
      5c:	05040300 	streq	r0, [r4, #-768]	; 0xfffffd00
      60:	00746e69 	rsbseq	r6, r4, r9, ror #28
      64:	80070402 	andhi	r0, r7, r2, lsl #8
      68:	04000000 	streq	r0, [r0], #-0
      6c:	0000011e 	andeq	r0, r0, lr, lsl r1
      70:	6c01af01 	stcvs	15, cr10, [r1], {1}
      74:	72000002 	andvc	r0, r0, #2
      78:	00000002 	andeq	r0, r0, r2
      7c:	04000000 	streq	r0, [r0], #-0
      80:	0000006d 	andeq	r0, r0, sp, rrx
      84:	7401b301 	strvc	fp, [r1], #-769	; 0xfffffcff
      88:	7a000002 	bvc	98 <_text+0x98>
      8c:	2c000002 	stccs	0, cr0, [r0], {2}
      90:	04000000 	streq	r0, [r0], #-0
      94:	0000005b 	andeq	r0, r0, fp, asr r0
      98:	7c01b701 	stcvc	7, cr11, [r1], {1}
      9c:	8c000002 	stchi	0, cr0, [r0], {2}
      a0:	58000002 	stmdapl	r0, {r1}
      a4:	05000000 	streq	r0, [r0, #-0]
      a8:	000000be 	strheq	r0, [r0], -lr
      ac:	000000b7 	strheq	r0, [r0], -r7
      b0:	0000b706 	andeq	fp, r0, r6, lsl #14
      b4:	02009a00 	andeq	r9, r0, #0, 20
      b8:	00fd0704 	rscseq	r0, sp, r4, lsl #14
      bc:	04070000 	streq	r0, [r7], #-0
      c0:	000000c4 	andeq	r0, r0, r4, asr #1
      c4:	00090108 	andeq	r0, r9, r8, lsl #2
      c8:	01000000 	mrseq	r0, (UNDEF: 0)
      cc:	0000a710 	andeq	sl, r0, r0, lsl r7
      d0:	03050100 	movweq	r0, #20736	; 0x5100
      d4:	00000000 	andeq	r0, r0, r0
      d8:	00035500 	andeq	r5, r3, r0, lsl #10
      dc:	70000200 	andvc	r0, r0, r0, lsl #4
      e0:	04000000 	streq	r0, [r0], #-0
      e4:	00008d01 	andeq	r8, r0, r1, lsl #26
      e8:	01f10100 	mvnseq	r0, r0, lsl #2
      ec:	000d0000 	andeq	r0, sp, r0
      f0:	028c0000 	addeq	r0, ip, #0
      f4:	03f00000 	mvnseq	r0, #0
      f8:	00430000 	subeq	r0, r3, r0
      fc:	01020000 	mrseq	r0, (UNDEF: 2)
     100:	00003c06 	andeq	r3, r0, r6, lsl #24
     104:	018f0300 	orreq	r0, pc, r0, lsl #6
     108:	1d020000 	stcne	0, cr0, [r2, #-0]
     10c:	00000037 	andeq	r0, r0, r7, lsr r0
     110:	3a080102 	bcc	200520 <_etext+0x1fea94>
     114:	02000000 	andeq	r0, r0, #0
     118:	01140502 	tsteq	r4, r2, lsl #10
     11c:	02020000 	andeq	r0, r2, #0
     120:	00004807 	andeq	r4, r0, r7, lsl #16
     124:	05040200 	streq	r0, [r4, #-512]	; 0xfffffe00
     128:	0000010b 	andeq	r0, r0, fp, lsl #2
     12c:	00015303 	andeq	r5, r1, r3, lsl #6
     130:	5e410200 	cdppl	2, 4, cr0, cr1, cr0, {0}
     134:	02000000 	andeq	r0, r0, #0
     138:	007b0704 	rsbseq	r0, fp, r4, lsl #14
     13c:	08020000 	stmdaeq	r2, {}	; <UNPREDICTABLE>
     140:	00010605 	andeq	r0, r1, r5, lsl #12
     144:	07080200 	streq	r0, [r8, -r0, lsl #4]
     148:	00000076 	andeq	r0, r0, r6, ror r0
     14c:	69050404 	stmdbvs	r5, {r2, sl}
     150:	0200746e 	andeq	r7, r0, #1845493760	; 0x6e000000
     154:	00800704 	addeq	r0, r0, r4, lsl #14
     158:	91030000 	mrsls	r0, (UNDEF: 3)
     15c:	03000001 	movweq	r0, #1
     160:	00002c14 	andeq	r2, r0, r4, lsl ip
     164:	01550300 	cmpeq	r5, r0, lsl #6
     168:	20030000 	andcs	r0, r3, r0
     16c:	00000053 	andeq	r0, r0, r3, asr r0
     170:	00015e05 	andeq	r5, r1, r5, lsl #28
     174:	12040800 	andne	r0, r4, #0, 16
     178:	000000c0 	andeq	r0, r0, r0, asr #1
     17c:	00073606 	andeq	r3, r7, r6, lsl #12
     180:	c0130400 	andsgt	r0, r3, r0, lsl #8
     184:	02000000 	andeq	r0, r0, #0
     188:	40060023 	andmi	r0, r6, r3, lsr #32
     18c:	04000007 	streq	r0, [r0], #-7
     190:	0000c014 	andeq	ip, r0, r4, lsl r0
     194:	04230200 	strteq	r0, [r3], #-512	; 0xfffffe00
     198:	97040700 	strls	r0, [r4, -r0, lsl #14]
     19c:	03000000 	movweq	r0, #0
     1a0:	00000142 	andeq	r0, r0, r2, asr #2
     1a4:	00971504 	addseq	r1, r7, r4, lsl #10
     1a8:	04030000 	streq	r0, [r3], #-0
     1ac:	05000002 	streq	r0, [r0, #-2]
     1b0:	00008c0b 	andeq	r8, r0, fp, lsl #24
     1b4:	01990500 	orrseq	r0, r9, r0, lsl #10
     1b8:	05280000 	streq	r0, [r8, #-0]!
     1bc:	0001590d 	andeq	r5, r1, sp, lsl #18
     1c0:	01b20600 			; <UNDEFINED> instruction: 0x01b20600
     1c4:	0f050000 	svceq	0x00050000
     1c8:	00000159 	andeq	r0, r0, r9, asr r1
     1cc:	06002302 	streq	r2, [r0], -r2, lsl #6
     1d0:	000001e5 	andeq	r0, r0, r5, ror #3
     1d4:	008c1005 	addeq	r1, ip, r5
     1d8:	23020000 	movwcs	r0, #8192	; 0x2000
     1dc:	04910604 	ldreq	r0, [r1], #1540	; 0x604
     1e0:	11050000 	mrsne	r0, (UNDEF: 5)
     1e4:	0000008c 	andeq	r0, r0, ip, lsl #1
     1e8:	06082302 	streq	r2, [r8], -r2, lsl #6
     1ec:	00000131 	andeq	r0, r0, r1, lsr r1
     1f0:	00c61405 	sbceq	r1, r6, r5, lsl #8
     1f4:	23020000 	movwcs	r0, #8192	; 0x2000
     1f8:	013c060c 	teqeq	ip, ip, lsl #12
     1fc:	15050000 	strne	r0, [r5, #-0]
     200:	0000008c 	andeq	r0, r0, ip, lsl #1
     204:	06142302 	ldreq	r2, [r4], -r2, lsl #6
     208:	0000022d 	andeq	r0, r0, sp, lsr #4
     20c:	00c61805 	sbceq	r1, r6, r5, lsl #16
     210:	23020000 	movwcs	r0, #8192	; 0x2000
     214:	01ac0618 			; <UNDEFINED> instruction: 0x01ac0618
     218:	19050000 	stmdbne	r5, {}	; <UNPREDICTABLE>
     21c:	0000008c 	andeq	r0, r0, ip, lsl #1
     220:	06202302 	strteq	r2, [r0], -r2, lsl #6
     224:	000001f8 	strdeq	r0, [r0], -r8
     228:	008c1c05 	addeq	r1, ip, r5, lsl #24
     22c:	23020000 	movwcs	r0, #8192	; 0x2000
     230:	04070024 	streq	r0, [r7], #-36	; 0xffffffdc
     234:	000000d1 	ldrdeq	r0, [r0], -r1
     238:	00017603 	andeq	r7, r1, r3, lsl #12
     23c:	dc1d0500 	cfldr32le	mvfx0, [sp], {-0}
     240:	08000000 	stmdaeq	r0, {}	; <UNPREDICTABLE>
     244:	00000223 	andeq	r0, r0, r3, lsr #4
     248:	8c010901 	stchi	9, cr0, [r1], {1}
     24c:	c4000002 	strgt	r0, [r0], #-2
     250:	84000002 	strhi	r0, [r0], #-2
     254:	91000000 	mrsls	r0, (UNDEF: 0)
     258:	09000001 	stmdbeq	r0, {r0}
     25c:	000001c7 	andeq	r0, r0, r7, asr #3
     260:	01910b01 	orrseq	r0, r1, r1, lsl #22
     264:	91020000 	mrsls	r0, (UNDEF: 2)
     268:	04070074 	streq	r0, [r7], #-116	; 0xffffff8c
     26c:	00000081 	andeq	r0, r0, r1, lsl #1
     270:	0246010a 	subeq	r0, r6, #-2147483646	; 0x80000002
     274:	19010000 	stmdbne	r1, {}	; <UNPREDICTABLE>
     278:	0002c401 	andeq	ip, r2, r1, lsl #8
     27c:	0002fc00 	andeq	pc, r2, r0, lsl #24
     280:	0000e000 	andeq	lr, r0, r0
     284:	0001cf00 	andeq	ip, r1, r0, lsl #30
     288:	01b80b00 			; <UNDEFINED> instruction: 0x01b80b00
     28c:	19010000 	stmdbne	r1, {}	; <UNPREDICTABLE>
     290:	000001cf 	andeq	r0, r0, pc, asr #3
     294:	0c749102 	ldfeqp	f1, [r4], #-8
     298:	000001be 			; <UNDEFINED> instruction: 0x000001be
     29c:	000001ef 	andeq	r0, r0, pc, ror #3
     2a0:	00030501 	andeq	r0, r3, r1, lsl #10
     2a4:	00000019 	andeq	r0, r0, r9, lsl r0
     2a8:	e80e040d 	stmda	lr, {r0, r2, r3, sl}
     2ac:	e1000001 	tst	r0, r1
     2b0:	0f000001 	svceq	0x00000001
     2b4:	000001e1 	andeq	r0, r0, r1, ror #3
     2b8:	0402000b 	streq	r0, [r2], #-11
     2bc:	0000fd07 	andeq	pc, r0, r7, lsl #26
     2c0:	08010200 	stmdaeq	r1, {r9}
     2c4:	00000043 	andeq	r0, r0, r3, asr #32
     2c8:	0001d110 	andeq	sp, r1, r0, lsl r1
     2cc:	bd010a00 	vstrlt	s0, [r1, #-0]
     2d0:	01000004 	tsteq	r0, r4
     2d4:	02fc0123 	rscseq	r0, ip, #-1073741816	; 0xc0000008
     2d8:	031a0000 	tsteq	sl, #0
     2dc:	01180000 	tsteq	r8, r0
     2e0:	021c0000 	andseq	r0, ip, #0
     2e4:	bd0b0000 	stclt	0, cr0, [fp, #-0]
     2e8:	01000004 	tsteq	r0, r4
     2ec:	00008c23 	andeq	r8, r0, r3, lsr #24
     2f0:	74910200 	ldrvc	r0, [r1], #512	; 0x200
     2f4:	d9010a00 	stmdble	r1, {r9, fp}
     2f8:	01000001 	tsteq	r0, r1
     2fc:	031c0128 	tsteq	ip, #40, 2
     300:	03480000 	movteq	r0, #32768	; 0x8000
     304:	01740000 	cmneq	r4, r0
     308:	02540000 	subseq	r0, r4, #0
     30c:	b80b0000 	stmdalt	fp, {}	; <UNPREDICTABLE>
     310:	01000001 	tsteq	r0, r1
     314:	0001cf28 	andeq	ip, r1, r8, lsr #30
     318:	74910200 	ldrvc	r0, [r1], #512	; 0x200
     31c:	0001be0c 	andeq	fp, r1, ip, lsl #28
     320:	00025400 	andeq	r5, r2, r0, lsl #8
     324:	03050100 	movweq	r0, #20736	; 0x5100
     328:	0000190c 	andeq	r1, r0, ip, lsl #18
     32c:	01d11000 	bicseq	r1, r1, r0
     330:	010a0000 	mrseq	r0, (UNDEF: 10)
     334:	000001cd 	andeq	r0, r0, sp, asr #3
     338:	48013201 	stmdami	r1, {r0, r9, ip, sp}
     33c:	64000003 	strvs	r0, [r0], #-3
     340:	ac000003 	stcge	0, cr0, [r0], {3}
     344:	91000001 	tstls	r0, r1
     348:	0b000002 	bleq	358 <task3_entry+0x10>
     34c:	000001b8 			; <UNDEFINED> instruction: 0x000001b8
     350:	01cf3201 	biceq	r3, pc, r1, lsl #4
     354:	91020000 	mrsls	r0, (UNDEF: 2)
     358:	01be0c74 			; <UNDEFINED> instruction: 0x01be0c74
     35c:	02910000 	addseq	r0, r1, #0
     360:	05010000 	streq	r0, [r1, #-0]
     364:	00191803 	andseq	r1, r9, r3, lsl #16
     368:	d1100000 	tstle	r0, r0
     36c:	11000001 	tstne	r0, r1
     370:	00014e01 	andeq	r4, r1, r1, lsl #28
     374:	733a0100 	teqvc	sl, #0, 2
     378:	64000000 	strvs	r0, [r0], #-0
     37c:	f0000003 			; <UNDEFINED> instruction: 0xf0000003
     380:	e4000003 	str	r0, [r0], #-3
     384:	12000001 	andne	r0, r0, #1
     388:	0000017d 	andeq	r0, r0, sp, ror r1
     38c:	02bb2005 	adcseq	r2, fp, #5
     390:	01010000 	mrseq	r0, (UNDEF: 1)
     394:	015f0407 	cmpeq	pc, r7, lsl #8
     398:	28120000 	ldmdacs	r2, {}	; <UNPREDICTABLE>
     39c:	01000002 	tsteq	r0, r2
     3a0:	00008c06 	andeq	r8, r0, r6, lsl #24
     3a4:	12010100 	andne	r0, r1, #0, 2
     3a8:	00000189 	andeq	r0, r0, r9, lsl #3
     3ac:	008c0701 	addeq	r0, ip, r1, lsl #14
     3b0:	01010000 	mrseq	r0, (UNDEF: 1)
     3b4:	00021113 	andeq	r1, r2, r3, lsl r1
     3b8:	5f120100 	svcpl	0x00120100
     3bc:	01000001 	tsteq	r0, r1
     3c0:	20400305 	subcs	r0, r0, r5, lsl #6
     3c4:	17132000 	ldrne	r2, [r3, -r0]
     3c8:	01000002 	tsteq	r0, r2
     3cc:	00015f13 	andeq	r5, r1, r3, lsl pc
     3d0:	03050100 	movweq	r0, #20736	; 0x5100
     3d4:	20002068 	andcs	r2, r0, r8, rrx
     3d8:	00021d13 	andeq	r1, r2, r3, lsl sp
     3dc:	5f140100 	svcpl	0x00140100
     3e0:	01000001 	tsteq	r0, r1
     3e4:	40900305 	addsmi	r0, r0, r5, lsl #6
     3e8:	d10e2000 	mrsle	r2, (UNDEF: 14)
     3ec:	22000000 	andcs	r0, r0, #0
     3f0:	14000003 	strne	r0, [r0], #-3
     3f4:	000001e1 	andeq	r0, r0, r1, ror #3
     3f8:	130003ff 	movwne	r0, #1023	; 0x3ff
     3fc:	0000016c 	andeq	r0, r0, ip, ror #2
     400:	03111501 	tsteq	r1, #4194304	; 0x400000
     404:	05010000 	streq	r0, [r1, #-0]
     408:	00104003 	andseq	r4, r0, r3
     40c:	01a21320 			; <UNDEFINED> instruction: 0x01a21320
     410:	16010000 	strne	r0, [r1], -r0
     414:	00000311 	andeq	r0, r0, r1, lsl r3
     418:	90030501 	andls	r0, r3, r1, lsl #10
     41c:	13200020 			; <UNDEFINED> instruction: 0x13200020
     420:	0000023c 	andeq	r0, r0, ip, lsr r2
     424:	03111701 	tsteq	r1, #262144	; 0x40000
     428:	05010000 	streq	r0, [r1, #-0]
     42c:	00309003 	eorseq	r9, r0, r3
     430:	01620020 	cmneq	r2, r0, lsr #32
     434:	00020000 	andeq	r0, r2, r0
     438:	00000185 	andeq	r0, r0, r5, lsl #3
     43c:	008d0104 	addeq	r0, sp, r4, lsl #2
     440:	aa010000 	bge	40448 <_etext+0x3e9bc>
     444:	0d000002 	stceq	0, cr0, [r0, #-8]
     448:	f0000000 			; <UNDEFINED> instruction: 0xf0000000
     44c:	64000003 	strvs	r0, [r0], #-3
     450:	10000004 	andne	r0, r0, r4
     454:	02000001 	andeq	r0, r0, #1
     458:	003c0601 	eorseq	r0, ip, r1, lsl #12
     45c:	8f030000 	svchi	0x00030000
     460:	02000001 	andeq	r0, r0, #1
     464:	0000371d 	andeq	r3, r0, sp, lsl r7
     468:	08010200 	stmdaeq	r1, {r9}
     46c:	0000003a 	andeq	r0, r0, sl, lsr r0
     470:	14050202 	strne	r0, [r5], #-514	; 0xfffffdfe
     474:	02000001 	andeq	r0, r0, #1
     478:	00480702 	subeq	r0, r8, r2, lsl #14
     47c:	04020000 	streq	r0, [r2], #-0
     480:	00010b05 	andeq	r0, r1, r5, lsl #22
     484:	01530300 	cmpeq	r3, r0, lsl #6
     488:	41020000 	mrsmi	r0, (UNDEF: 2)
     48c:	0000005e 	andeq	r0, r0, lr, asr r0
     490:	7b070402 	blvc	1c14a0 <_etext+0x1bfa14>
     494:	02000000 	andeq	r0, r0, #0
     498:	01060508 	tsteq	r6, r8, lsl #10
     49c:	08020000 	stmdaeq	r2, {}	; <UNPREDICTABLE>
     4a0:	00007607 	andeq	r7, r0, r7, lsl #12
     4a4:	05040400 	streq	r0, [r4, #-1024]	; 0xfffffc00
     4a8:	00746e69 	rsbseq	r6, r4, r9, ror #28
     4ac:	80070402 	andhi	r0, r7, r2, lsl #8
     4b0:	03000000 	movweq	r0, #0
     4b4:	00000191 	muleq	r0, r1, r1
     4b8:	002c1403 	eoreq	r1, ip, r3, lsl #8
     4bc:	55030000 	strpl	r0, [r3, #-0]
     4c0:	03000001 	movweq	r0, #1
     4c4:	00005320 	andeq	r5, r0, r0, lsr #6
     4c8:	02770500 	rsbseq	r0, r7, #0, 10
     4cc:	04100000 	ldreq	r0, [r0], #-0
     4d0:	0000dc13 	andeq	sp, r0, r3, lsl ip
     4d4:	02830600 	addeq	r0, r3, #0, 12
     4d8:	14040000 	strne	r0, [r4], #-0
     4dc:	000000dc 	ldrdeq	r0, [r0], -ip
     4e0:	06002302 	streq	r2, [r0], -r2, lsl #6
     4e4:	000002a5 	andeq	r0, r0, r5, lsr #5
     4e8:	00dc1504 	sbcseq	r1, ip, r4, lsl #10
     4ec:	23020000 	movwcs	r0, #8192	; 0x2000
     4f0:	61760704 	cmnvs	r6, r4, lsl #14
     4f4:	1604006c 	strne	r0, [r4], -ip, rrx
     4f8:	000000dc 	ldrdeq	r0, [r0], -ip
     4fc:	06082302 	streq	r2, [r8], -r2, lsl #6
     500:	000002ba 			; <UNDEFINED> instruction: 0x000002ba
     504:	00dc1704 	sbcseq	r1, ip, r4, lsl #14
     508:	23020000 	movwcs	r0, #8192	; 0x2000
     50c:	8c08000c 	stchi	0, cr0, [r8], {12}
     510:	03000000 	movweq	r0, #0
     514:	00000252 	andeq	r0, r0, r2, asr r2
     518:	00971804 	addseq	r1, r7, r4, lsl #16
     51c:	01090000 	mrseq	r0, (UNDEF: 9)
     520:	00000298 	muleq	r0, r8, r2
     524:	f0010501 			; <UNDEFINED> instruction: 0xf0010501
     528:	34000003 	strcc	r0, [r0], #-3
     52c:	1c000004 	stcne	0, cr0, [r0], {4}
     530:	2f000002 	svccs	0x00000002
     534:	0a000001 	beq	540 <printf_char+0x4>
     538:	0100736d 	tsteq	r0, sp, ror #6
     53c:	00008c05 	andeq	r8, r0, r5, lsl #24
     540:	6c910200 	lfmvs	f0, 4, [r1], {0}
     544:	0002b00b 	andeq	fp, r2, fp
     548:	2f070100 	svccs	0x00070100
     54c:	02000001 	andeq	r0, r0, #1
     550:	6c0b7491 	cfstrsvs	mvf7, [fp], {145}	; 0x91
     554:	01000002 	tsteq	r0, r2
     558:	00013508 	andeq	r3, r1, r8, lsl #10
     55c:	70910200 	addsvc	r0, r1, r0, lsl #4
     560:	e1040c00 	tst	r4, r0, lsl #24
     564:	0c000000 	stceq	0, cr0, [r0], {-0}
     568:	00008104 	andeq	r8, r0, r4, lsl #2
     56c:	5c010d00 	stcpl	13, cr0, [r1], {-0}
     570:	01000002 	tsteq	r0, r2
     574:	0434010f 	ldrteq	r0, [r4], #-271	; 0xfffffef1
     578:	043e0000 	ldrteq	r0, [lr], #-0
     57c:	02780000 	rsbseq	r0, r8, #0
     580:	010d0000 	mrseq	r0, (UNDEF: 13)
     584:	00000288 	andeq	r0, r0, r8, lsl #5
     588:	40011501 	andmi	r1, r1, r1, lsl #10
     58c:	64000004 	strvs	r0, [r0], #-4
     590:	a4000004 	strge	r0, [r0], #-4
     594:	00000002 	andeq	r0, r0, r2
     598:	000007cc 	andeq	r0, r0, ip, asr #15
     59c:	02430002 	subeq	r0, r3, #2
     5a0:	01040000 	mrseq	r0, (UNDEF: 4)
     5a4:	0000008d 	andeq	r0, r0, sp, lsl #1
     5a8:	0003bb01 	andeq	fp, r3, r1, lsl #22
     5ac:	00000d00 	andeq	r0, r0, r0, lsl #26
     5b0:	00046400 	andeq	r6, r4, r0, lsl #8
     5b4:	000de400 	andeq	lr, sp, r0, lsl #8
     5b8:	0001b700 	andeq	fp, r1, r0, lsl #14
     5bc:	03cd0200 	biceq	r0, sp, #0, 4
     5c0:	28020000 	stmdacs	r2, {}	; <UNPREDICTABLE>
     5c4:	00000030 	andeq	r0, r0, r0, lsr r0
     5c8:	00032703 	andeq	r2, r3, r3, lsl #14
     5cc:	00050400 	andeq	r0, r5, r0, lsl #8
     5d0:	0000004a 	andeq	r0, r0, sl, asr #32
     5d4:	00038404 	andeq	r8, r3, r4, lsl #8
     5d8:	00004a00 	andeq	r4, r0, r0, lsl #20
     5dc:	00230200 	eoreq	r0, r3, r0, lsl #4
     5e0:	04050001 	streq	r0, [r5], #-1
     5e4:	00032902 	andeq	r2, r3, r2, lsl #18
     5e8:	25620200 	strbcs	r0, [r2, #-512]!	; 0xfffffe00
     5ec:	06000000 	streq	r0, [r0], -r0
     5f0:	003c0601 	eorseq	r0, ip, r1, lsl #12
     5f4:	8f020000 	svchi	0x00020000
     5f8:	03000001 	movweq	r0, #1
     5fc:	0000691d 	andeq	r6, r0, sp, lsl r9
     600:	08010600 	stmdaeq	r1, {r9, sl}
     604:	0000003a 	andeq	r0, r0, sl, lsr r0
     608:	14050206 	strne	r0, [r5], #-518	; 0xfffffdfa
     60c:	06000001 	streq	r0, [r0], -r1
     610:	00480702 	subeq	r0, r8, r2, lsl #14
     614:	04060000 	streq	r0, [r6], #-0
     618:	00010b05 	andeq	r0, r1, r5, lsl #22
     61c:	01530200 	cmpeq	r3, r0, lsl #4
     620:	41030000 	mrsmi	r0, (UNDEF: 3)
     624:	00000090 	muleq	r0, r0, r0
     628:	7b070406 	blvc	1c1648 <_etext+0x1bfbbc>
     62c:	06000000 	streq	r0, [r0], -r0
     630:	01060508 	tsteq	r6, r8, lsl #10
     634:	08060000 	stmdaeq	r6, {}	; <UNPREDICTABLE>
     638:	00007607 	andeq	r7, r0, r7, lsl #12
     63c:	05040700 	streq	r0, [r4, #-1792]	; 0xfffff900
     640:	00746e69 	rsbseq	r6, r4, r9, ror #28
     644:	80070406 	andhi	r0, r7, r6, lsl #8
     648:	02000000 	andeq	r0, r0, #0
     64c:	00000191 	muleq	r0, r1, r1
     650:	005e1404 	subseq	r1, lr, r4, lsl #8
     654:	55020000 	strpl	r0, [r2, #-0]
     658:	04000001 	streq	r0, [r0], #-1
     65c:	00008520 	andeq	r8, r0, r0, lsr #10
     660:	aa010800 	bge	42668 <_etext+0x40bdc>
     664:	01000003 	tsteq	r0, r3
     668:	00f40106 	rscseq	r0, r4, r6, lsl #2
     66c:	04640000 	strbteq	r0, [r4], #-0
     670:	04880000 	streq	r0, [r8], #0
     674:	02e80000 	rsceq	r0, r8, #0
     678:	00f40000 	rscseq	r0, r4, r0
     67c:	63090000 	movwvs	r0, #36864	; 0x9000
     680:	06010068 	streq	r0, [r1], -r8, rrx
     684:	000000fb 	strdeq	r0, [r0], -fp
     688:	00749102 	rsbseq	r9, r4, r2, lsl #2
     68c:	43080106 	movwmi	r0, #33030	; 0x8106
     690:	0a000000 	beq	698 <printf_dec+0x4>
     694:	0000b304 	andeq	fp, r0, r4, lsl #6
     698:	eb010800 	bl	426a0 <_etext+0x40c14>
     69c:	01000003 	tsteq	r0, r3
     6a0:	00a50111 	adceq	r0, r5, r1, lsl r1
     6a4:	04880000 	streq	r0, [r8], #0
     6a8:	04c80000 	strbeq	r0, [r8], #0
     6ac:	03440000 	movteq	r0, #16384	; 0x4000
     6b0:	01380000 	teqeq	r8, r0
     6b4:	63090000 	movwvs	r0, #36864	; 0x9000
     6b8:	11010068 	tstne	r1, r8, rrx
     6bc:	000000f4 	strdeq	r0, [r0], -r4
     6c0:	0b6f9102 	bleq	1be4ad0 <_etext+0x1be3044>
     6c4:	13010069 	movwne	r0, #4201	; 0x1069
     6c8:	000000be 	strheq	r0, [r0], -lr
     6cc:	00749102 	rsbseq	r9, r4, r2, lsl #2
     6d0:	03dc0108 	bicseq	r0, ip, #8, 2
     6d4:	1c010000 	stcne	0, cr0, [r1], {-0}
     6d8:	0000a501 	andeq	sl, r0, r1, lsl #10
     6dc:	0004c800 	andeq	ip, r4, r0, lsl #16
     6e0:	0004fc00 	andeq	pc, r4, r0, lsl #24
     6e4:	0003a000 	andeq	sl, r3, r0
     6e8:	00016300 	andeq	r6, r1, r0, lsl #6
     6ec:	68630900 	stmdavs	r3!, {r8, fp}^
     6f0:	f41c0100 			; <UNDEFINED> instruction: 0xf41c0100
     6f4:	02000000 	andeq	r0, r0, #0
     6f8:	08007791 	stmdaeq	r0, {r0, r4, r7, r8, r9, sl, ip, sp, lr}
     6fc:	00040101 	andeq	r0, r4, r1, lsl #2
     700:	01210100 			; <UNDEFINED> instruction: 0x01210100
     704:	000000a5 	andeq	r0, r0, r5, lsr #1
     708:	000004fc 	strdeq	r0, [r0], -ip
     70c:	0000053c 	andeq	r0, r0, ip, lsr r5
     710:	000003fc 	strdeq	r0, [r0], -ip
     714:	0000018e 	andeq	r0, r0, lr, lsl #3
     718:	00686309 	rsbeq	r6, r8, r9, lsl #6
     71c:	00f42101 	rscseq	r2, r4, r1, lsl #2
     720:	91020000 	mrsls	r0, (UNDEF: 2)
     724:	01080077 	tsteq	r8, r7, ror r0
     728:	00000397 	muleq	r0, r7, r3
     72c:	a5012601 	strge	r2, [r1, #-1537]	; 0xfffff9ff
     730:	3c000000 	stccc	0, cr0, [r0], {-0}
     734:	76000005 	strvc	r0, [r0], -r5
     738:	58000005 	stmdapl	r0, {r0, r2}
     73c:	d3000004 	movwle	r0, #4
     740:	09000001 	stmdbeq	r0, {r0}
     744:	01006863 	tsteq	r0, r3, ror #16
     748:	0000f426 	andeq	pc, r0, r6, lsr #8
     74c:	6f910200 	svcvs	0x00910200
     750:	0031630b 	eorseq	r6, r1, fp, lsl #6
     754:	00b32801 	adcseq	r2, r3, r1, lsl #16
     758:	91020000 	mrsls	r0, (UNDEF: 2)
     75c:	32630b77 	rsbcc	r0, r3, #121856	; 0x1dc00
     760:	b3290100 			; <UNDEFINED> instruction: 0xb3290100
     764:	02000000 	andeq	r0, r0, #0
     768:	08007691 	stmdaeq	r0, {r0, r4, r7, r9, sl, ip, sp, lr}
     76c:	00030501 	andeq	r0, r3, r1, lsl #10
     770:	01360100 	teqeq	r6, r0, lsl #2
     774:	000000a5 	andeq	r0, r0, r5, lsr #1
     778:	00000578 	andeq	r0, r0, r8, ror r5
     77c:	000005aa 	andeq	r0, r0, sl, lsr #11
     780:	000004a8 	andeq	r0, r0, r8, lsr #9
     784:	000001ff 	strdeq	r0, [r0], -pc	; <UNPREDICTABLE>
     788:	72747309 	rsbsvc	r7, r4, #603979776	; 0x24000000
     78c:	ff360100 			; <UNDEFINED> instruction: 0xff360100
     790:	02000001 	andeq	r0, r0, #1
     794:	0a007491 	beq	1d9e0 <_etext+0x1bf54>
     798:	0000f404 	andeq	pc, r0, r4, lsl #8
     79c:	46010800 	strmi	r0, [r1], -r0, lsl #16
     7a0:	01000003 	tsteq	r0, r3
     7a4:	00a50140 	adceq	r0, r5, r0, asr #2
     7a8:	05ac0000 	streq	r0, [ip, #0]!
     7ac:	06200000 	strteq	r0, [r0], -r0
     7b0:	04f80000 	ldrbteq	r0, [r8], #0
     7b4:	02670000 	rsbeq	r0, r7, #0
     7b8:	76090000 	strvc	r0, [r9], -r0
     7bc:	01006c61 	tsteq	r0, r1, ror #24
     7c0:	0000be40 	andeq	fp, r0, r0, asr #28
     7c4:	6c910200 	lfmvs	f0, 4, [r1], {0}
     7c8:	0003100c 	andeq	r1, r3, ip
     7cc:	be400100 	dvflts	f0, f0, f0
     7d0:	02000000 	andeq	r0, r0, #0
     7d4:	690b6891 	stmdbvs	fp, {r0, r4, r7, fp, sp, lr}
     7d8:	a5420100 	strbge	r0, [r2, #-256]	; 0xffffff00
     7dc:	02000000 	andeq	r0, r0, #0
     7e0:	7c0d7491 	cfstrsvc	mvf7, [sp], {145}	; 0x91
     7e4:	01000003 	tsteq	r0, r3
     7e8:	0000f443 	andeq	pc, r0, r3, asr #8
     7ec:	73910200 	orrsvc	r0, r1, #0, 4
     7f0:	6373610b 	cmnvs	r3, #-1073741822	; 0xc0000002
     7f4:	f4430100 	vst4.8	{d16,d18,d20,d22}, [r3], r0
     7f8:	02000000 	andeq	r0, r0, #0
     7fc:	08007291 	stmdaeq	r0, {r0, r4, r7, r9, ip, sp, lr}
     800:	00040c01 	andeq	r0, r4, r1, lsl #24
     804:	01510100 	cmpeq	r1, r0, lsl #2
     808:	000000a5 	andeq	r0, r0, r5, lsr #1
     80c:	00000620 	andeq	r0, r0, r0, lsr #12
     810:	00000694 	muleq	r0, r4, r6
     814:	00000548 	andeq	r0, r0, r8, asr #10
     818:	000002c9 	andeq	r0, r0, r9, asr #5
     81c:	6c617609 	stclvs	6, cr7, [r1], #-36	; 0xffffffdc
     820:	be510100 	rdflts	f0, f1, f0
     824:	02000000 	andeq	r0, r0, #0
     828:	100c6c91 	mulne	ip, r1, ip
     82c:	01000003 	tsteq	r0, r3
     830:	0000be51 	andeq	fp, r0, r1, asr lr
     834:	68910200 	ldmvs	r1, {r9}
     838:	0100690b 	tsteq	r0, fp, lsl #18
     83c:	0000a553 	andeq	sl, r0, r3, asr r5
     840:	74910200 	ldrvc	r0, [r1], #512	; 0x200
     844:	00037c0d 	andeq	r7, r3, sp, lsl #24
     848:	f4540100 			; <UNDEFINED> instruction: 0xf4540100
     84c:	02000000 	andeq	r0, r0, #0
     850:	610b7391 			; <UNDEFINED> instruction: 0x610b7391
     854:	01006373 	tsteq	r0, r3, ror r3
     858:	0000f454 	andeq	pc, r0, r4, asr r4	; <UNPREDICTABLE>
     85c:	72910200 	addsvc	r0, r1, #0, 4
     860:	f6010800 			; <UNDEFINED> instruction: 0xf6010800
     864:	01000003 	tsteq	r0, r3
     868:	00a5017c 	adceq	r0, r5, ip, ror r1
     86c:	06940000 	ldreq	r0, [r4], r0
     870:	09080000 	stmdbeq	r8, {}	; <UNPREDICTABLE>
     874:	05980000 	ldreq	r0, [r8]
     878:	032b0000 			; <UNDEFINED> instruction: 0x032b0000
     87c:	76090000 	strvc	r0, [r9], -r0
     880:	01006c61 	tsteq	r0, r1, ror #24
     884:	0000be7c 	andeq	fp, r0, ip, ror lr
     888:	64910200 	ldrvs	r0, [r1], #512	; 0x200
     88c:	0100690b 	tsteq	r0, fp, lsl #18
     890:	0000be7e 	andeq	fp, r0, lr, ror lr
     894:	74910200 	ldrvc	r0, [r1], #512	; 0x200
     898:	706d740b 	rsbvc	r7, sp, fp, lsl #8
     89c:	be7f0100 	rpwlte	f0, f7, f0
     8a0:	02000000 	andeq	r0, r0, #0
     8a4:	5f0d7091 	svcpl	0x000d7091
     8a8:	01000003 	tsteq	r0, r3
     8ac:	0000be7f 	andeq	fp, r0, pc, ror lr
     8b0:	6c910200 	lfmvs	f0, 4, [r1], {0}
     8b4:	6373610b 	cmnvs	r3, #-1073741822	; 0xc0000002
     8b8:	f4800100 	vst2.8	{d0[0],d1[0]}, [r0], r0
     8bc:	02000000 	andeq	r0, r0, #0
     8c0:	0e006b91 	vmoveq.32	d16[0], r6
     8c4:	00031d01 	andeq	r1, r3, r1, lsl #26
     8c8:	01c00100 	biceq	r0, r0, r0, lsl #2
     8cc:	00000908 	andeq	r0, r0, r8, lsl #18
     8d0:	00000918 	andeq	r0, r0, r8, lsl r9
     8d4:	000005e8 	andeq	r0, r0, r8, ror #11
     8d8:	00000354 	andeq	r0, r0, r4, asr r3
     8dc:	746d6609 	strbtvc	r6, [sp], #-1545	; 0xfffff9f7
     8e0:	54c00100 	strbpl	r0, [r0], #256	; 0x100
     8e4:	02000003 	andeq	r0, r0, #3
     8e8:	000f7091 	muleq	pc, r1, r0	; <UNPREDICTABLE>
     8ec:	035a040a 	cmpeq	sl, #167772160	; 0xa000000
     8f0:	f4100000 			; <UNDEFINED> instruction: 0xf4100000
     8f4:	0e000000 	cdpeq	0, 0, cr0, cr0, cr0, {0}
     8f8:	00032001 	andeq	r2, r3, r1
     8fc:	01c50100 	biceq	r0, r5, r0, lsl #2
     900:	00000918 	andeq	r0, r0, r8, lsl r9
     904:	00000a9c 	muleq	r0, ip, sl
     908:	00000644 	andeq	r0, r0, r4, asr #12
     90c:	000003b0 			; <UNDEFINED> instruction: 0x000003b0
     910:	746d6609 	strbtvc	r6, [sp], #-1545	; 0xfffff9f7
     914:	54c50100 	strbpl	r0, [r5], #256	; 0x100
     918:	02000003 	andeq	r0, r0, #3
     91c:	0b0f7091 	bleq	3dcb68 <_etext+0x3db0dc>
     920:	c7010063 	strgt	r0, [r1, -r3, rrx]
     924:	000000f4 	strdeq	r0, [r0], -r4
     928:	0d639102 	stfeqp	f1, [r3, #-8]!
     92c:	00000310 	andeq	r0, r0, r0, lsl r3
     930:	00bec801 	adcseq	ip, lr, r1, lsl #16
     934:	91020000 	mrsls	r0, (UNDEF: 2)
     938:	03b40d64 			; <UNDEFINED> instruction: 0x03b40d64
     93c:	c9010000 	stmdbgt	r1, {}	; <UNPREDICTABLE>
     940:	0000004c 	andeq	r0, r0, ip, asr #32
     944:	005c9102 	subseq	r9, ip, r2, lsl #2
     948:	03310108 	teqeq	r1, #8, 2
     94c:	f9010000 			; <UNDEFINED> instruction: 0xf9010000
     950:	0000a501 	andeq	sl, r0, r1, lsl #10
     954:	000a9c00 	andeq	r9, sl, r0, lsl #24
     958:	000ade00 	andeq	sp, sl, r0, lsl #28
     95c:	0006b800 	andeq	fp, r6, r0, lsl #16
     960:	00040f00 	andeq	r0, r4, r0, lsl #30
     964:	656d0900 	strbvs	r0, [sp, #-2304]!	; 0xfffff700
     968:	f901006d 			; <UNDEFINED> instruction: 0xf901006d
     96c:	0000004a 	andeq	r0, r0, sl, asr #32
     970:	096c9102 	stmdbeq	ip!, {r1, r8, ip, pc}^
     974:	006c6176 	rsbeq	r6, ip, r6, ror r1
     978:	00b3f901 	adcseq	pc, r3, r1, lsl #18
     97c:	91020000 	mrsls	r0, (UNDEF: 2)
     980:	7a73096b 	bvc	1cc2f34 <_etext+0x1cc14a8>
     984:	bef90100 	cdplt	1, 15, cr0, cr9, cr0, {0}
     988:	02000000 	andeq	r0, r0, #0
     98c:	700b6491 	mulvc	fp, r1, r4
     990:	fbfb0100 	blx	ffec0d9a <_stack_top+0xdfeb4d9a>
     994:	02000000 	andeq	r0, r0, #0
     998:	690b7491 	stmdbvs	fp, {r0, r4, r7, sl, ip, sp, lr}
     99c:	a5fc0100 	ldrbge	r0, [ip, #256]!	; 0x100
     9a0:	02000000 	andeq	r0, r0, #0
     9a4:	11007091 	swpne	r7, r1, [r0]
     9a8:	0002f801 	andeq	pc, r2, r1, lsl #16
     9ac:	01030100 	mrseq	r0, (UNDEF: 19)
     9b0:	0000a501 	andeq	sl, r0, r1, lsl #10
     9b4:	000ae000 	andeq	lr, sl, r0
     9b8:	000b2a00 	andeq	r2, fp, r0, lsl #20
     9bc:	00071400 	andeq	r1, r7, r0, lsl #8
     9c0:	00048500 	andeq	r8, r4, r0, lsl #10
     9c4:	73641200 	cmnvc	r4, #0, 4
     9c8:	03010074 	movweq	r0, #4212	; 0x1074
     9cc:	00004a01 	andeq	r4, r0, r1, lsl #20
     9d0:	64910200 	ldrvs	r0, [r1], #512	; 0x200
     9d4:	63727312 	cmnvs	r2, #1207959552	; 0x48000000
     9d8:	01030100 	mrseq	r0, (UNDEF: 19)
     9dc:	00000485 	andeq	r0, r0, r5, lsl #9
     9e0:	12609102 	rsbne	r9, r0, #-2147483648	; 0x80000000
     9e4:	01007a73 	tsteq	r0, r3, ror sl
     9e8:	00be0103 	adcseq	r0, lr, r3, lsl #2
     9ec:	91020000 	mrsls	r0, (UNDEF: 2)
     9f0:	0359135c 	cmpeq	r9, #92, 6	; 0x70000001
     9f4:	05010000 	streq	r0, [r1, #-0]
     9f8:	0000fb01 	andeq	pc, r0, r1, lsl #22
     9fc:	74910200 	ldrvc	r0, [r1], #512	; 0x200
     a00:	0002ff13 	andeq	pc, r2, r3, lsl pc	; <UNPREDICTABLE>
     a04:	01060100 	mrseq	r0, (UNDEF: 22)
     a08:	000000fb 	strdeq	r0, [r0], -fp
     a0c:	14709102 	ldrbtne	r9, [r0], #-258	; 0xfffffefe
     a10:	07010069 	streq	r0, [r1, -r9, rrx]
     a14:	0000a501 	andeq	sl, r0, r1, lsl #10
     a18:	6c910200 	lfmvs	f0, 4, [r1], {0}
     a1c:	8b040a00 	blhi	103224 <_etext+0x101798>
     a20:	15000004 	strne	r0, [r0, #-4]
     a24:	03160111 	tsteq	r6, #1073741828	; 0x40000004
     a28:	0e010000 	cdpeq	0, 0, cr0, cr1, cr0, {0}
     a2c:	00a50101 	adceq	r0, r5, r1, lsl #2
     a30:	0b2c0000 	bleq	b00a38 <_etext+0xafefac>
     a34:	0b8c0000 	bleq	fe300a3c <_stack_top+0xde2f4a3c>
     a38:	07700000 	ldrbeq	r0, [r0, -r0]!
     a3c:	05020000 	streq	r0, [r2, #-0]
     a40:	41160000 	tstmi	r6, r0
     a44:	01000003 	tsteq	r0, r3
     a48:	004a010e 	subeq	r0, sl, lr, lsl #2
     a4c:	91020000 	mrsls	r0, (UNDEF: 2)
     a50:	03a51664 			; <UNDEFINED> instruction: 0x03a51664
     a54:	0e010000 	cdpeq	0, 0, cr0, cr1, cr0, {0}
     a58:	00004a01 	andeq	r4, r0, r1, lsl #20
     a5c:	60910200 	addsvs	r0, r1, r0, lsl #4
     a60:	007a7312 	rsbseq	r7, sl, r2, lsl r3
     a64:	be010e01 	cdplt	14, 0, cr0, cr1, cr1, {0}
     a68:	02000000 	andeq	r0, r0, #0
     a6c:	3f135c91 	svccc	0x00135c91
     a70:	01000003 	tsteq	r0, r3
     a74:	00fb0110 	rscseq	r0, fp, r0, lsl r1
     a78:	91020000 	mrsls	r0, (UNDEF: 2)
     a7c:	03a31374 			; <UNDEFINED> instruction: 0x03a31374
     a80:	11010000 	mrsne	r0, (UNDEF: 1)
     a84:	0000fb01 	andeq	pc, r0, r1, lsl #22
     a88:	70910200 	addsvc	r0, r1, r0, lsl #4
     a8c:	01006914 	tsteq	r0, r4, lsl r9
     a90:	00a50112 	adceq	r0, r5, r2, lsl r1
     a94:	91020000 	mrsls	r0, (UNDEF: 2)
     a98:	0111006c 	tsteq	r1, ip, rrx
     a9c:	000003c6 	andeq	r0, r0, r6, asr #7
     aa0:	01012101 	tsteq	r1, r1, lsl #2
     aa4:	000000a5 	andeq	r0, r0, r5, lsr #1
     aa8:	00000b8c 	andeq	r0, r0, ip, lsl #23
     aac:	00000be0 	andeq	r0, r0, r0, ror #23
     ab0:	000007cc 	andeq	r0, r0, ip, asr #15
     ab4:	0000055b 	andeq	r0, r0, fp, asr r5
     ab8:	0002c716 	andeq	ip, r2, r6, lsl r7
     abc:	01210100 			; <UNDEFINED> instruction: 0x01210100
     ac0:	000001ff 	strdeq	r0, [r0], -pc	; <UNPREDICTABLE>
     ac4:	166c9102 	strbtne	r9, [ip], -r2, lsl #2
     ac8:	000002df 	ldrdeq	r0, [r0], -pc	; <UNPREDICTABLE>
     acc:	ff012101 			; <UNDEFINED> instruction: 0xff012101
     ad0:	02000001 	andeq	r0, r0, #1
     ad4:	70146891 	mulsvc	r4, r1, r8
     ad8:	23010031 	movwcs	r0, #4145	; 0x1031
     adc:	0001ff01 	andeq	pc, r1, r1, lsl #30
     ae0:	74910200 	ldrvc	r0, [r1], #512	; 0x200
     ae4:	00327014 	eorseq	r7, r2, r4, lsl r0
     ae8:	ff012301 			; <UNDEFINED> instruction: 0xff012301
     aec:	02000001 	andeq	r0, r0, #1
     af0:	11007091 	swpne	r7, r1, [r0]
     af4:	0003e301 	andeq	lr, r3, r1, lsl #6
     af8:	012d0100 			; <UNDEFINED> instruction: 0x012d0100
     afc:	0000a501 	andeq	sl, r0, r1, lsl #10
     b00:	000be000 	andeq	lr, fp, r0
     b04:	000c4400 	andeq	r4, ip, r0, lsl #8
     b08:	00082800 	andeq	r2, r8, r0, lsl #16
     b0c:	0005cf00 	andeq	ip, r5, r0, lsl #30
     b10:	02c71600 	sbceq	r1, r7, #0, 12
     b14:	2d010000 	stccs	0, cr0, [r1, #-0]
     b18:	0001ff01 	andeq	pc, r1, r1, lsl #30
     b1c:	64910200 	ldrvs	r0, [r1], #512	; 0x200
     b20:	0002df16 	andeq	sp, r2, r6, lsl pc
     b24:	012d0100 			; <UNDEFINED> instruction: 0x012d0100
     b28:	000001ff 	strdeq	r0, [r0], -pc	; <UNPREDICTABLE>
     b2c:	12609102 	rsbne	r9, r0, #-2147483648	; 0x80000000
     b30:	01007a73 	tsteq	r0, r3, ror sl
     b34:	00be012d 	adcseq	r0, lr, sp, lsr #2
     b38:	91020000 	mrsls	r0, (UNDEF: 2)
     b3c:	3170145c 	cmncc	r0, ip, asr r4
     b40:	012f0100 			; <UNDEFINED> instruction: 0x012f0100
     b44:	000001ff 	strdeq	r0, [r0], -pc	; <UNPREDICTABLE>
     b48:	14749102 	ldrbtne	r9, [r4], #-258	; 0xfffffefe
     b4c:	01003270 	tsteq	r0, r0, ror r2
     b50:	01ff012f 	mvnseq	r0, pc, lsr #2
     b54:	91020000 	mrsls	r0, (UNDEF: 2)
     b58:	00691470 	rsbeq	r1, r9, r0, ror r4
     b5c:	a5013001 	strge	r3, [r1, #-1]
     b60:	02000000 	andeq	r0, r0, #0
     b64:	11006c91 			; <UNDEFINED> instruction: 0x11006c91
     b68:	00035101 	andeq	r5, r3, r1, lsl #2
     b6c:	013e0100 	teqeq	lr, r0, lsl #2
     b70:	0000a501 	andeq	sl, r0, r1, lsl #10
     b74:	000c4400 	andeq	r4, ip, r0, lsl #8
     b78:	000d2c00 	andeq	r2, sp, r0, lsl #24
     b7c:	00088400 	andeq	r8, r8, r0, lsl #8
     b80:	00064600 	andeq	r4, r6, r0, lsl #12
     b84:	74731200 	ldrbtvc	r1, [r3], #-512	; 0xfffffe00
     b88:	3e010072 	mcrcc	0, 0, r0, cr1, cr2, {3}
     b8c:	0001ff01 	andeq	pc, r1, r1, lsl #30
     b90:	64910200 	ldrvs	r0, [r1], #512	; 0x200
     b94:	6c617612 	stclvs	6, cr7, [r1], #-72	; 0xffffffb8
     b98:	013e0100 	teqeq	lr, r0, lsl #2
     b9c:	00000646 	andeq	r0, r0, r6, asr #12
     ba0:	14609102 	strbtne	r9, [r0], #-258	; 0xfffffefe
     ba4:	40010070 	andmi	r0, r1, r0, ror r0
     ba8:	0001ff01 	andeq	pc, r1, r1, lsl #30
     bac:	74910200 	ldrvc	r0, [r1], #512	; 0x200
     bb0:	0002cc13 	andeq	ip, r2, r3, lsl ip
     bb4:	01410100 	mrseq	r0, (UNDEF: 81)
     bb8:	000000be 	strheq	r0, [r0], -lr
     bbc:	13709102 	cmnne	r0, #-2147483648	; 0x80000000
     bc0:	000002c0 	andeq	r0, r0, r0, asr #5
     bc4:	be014201 	cdplt	2, 0, cr4, cr1, cr1, {0}
     bc8:	02000000 	andeq	r0, r0, #0
     bcc:	6e146c91 	mrcvs	12, 0, r6, cr4, cr1, {4}
     bd0:	01006d75 	tsteq	r0, r5, ror sp
     bd4:	00be0142 	adcseq	r0, lr, r2, asr #2
     bd8:	91020000 	mrsls	r0, (UNDEF: 2)
     bdc:	040a0068 	streq	r0, [sl], #-104	; 0xffffff98
     be0:	000000be 	strheq	r0, [r0], -lr
     be4:	03380111 	teqeq	r8, #1073741828	; 0x40000004
     be8:	67010000 	strvs	r0, [r1, -r0]
     bec:	00a50101 	adceq	r0, r5, r1, lsl #2
     bf0:	0d2c0000 	stceq	0, cr0, [ip, #-0]
     bf4:	0d720000 	ldcleq	0, cr0, [r2, #-0]
     bf8:	08d40000 	ldmeq	r4, {}^	; <UNPREDICTABLE>
     bfc:	06a50000 	strteq	r0, [r5], r0
     c00:	73120000 	tstvc	r2, #0
     c04:	01007274 	tsteq	r0, r4, ror r2
     c08:	01ff0167 	mvnseq	r0, r7, ror #2
     c0c:	91020000 	mrsls	r0, (UNDEF: 2)
     c10:	6176126c 	cmnvs	r6, ip, ror #4
     c14:	6701006c 	strvs	r0, [r1, -ip, rrx]
     c18:	0006a501 	andeq	sl, r6, r1, lsl #10
     c1c:	68910200 	ldmvs	r1, {r9}
     c20:	01007014 	tsteq	r0, r4, lsl r0
     c24:	01ff0169 	mvnseq	r0, r9, ror #2
     c28:	91020000 	mrsls	r0, (UNDEF: 2)
     c2c:	65721474 	ldrbvs	r1, [r2, #-1140]!	; 0xfffffb8c
     c30:	6a010074 	bvs	40e08 <_etext+0x3f37c>
     c34:	0000a501 	andeq	sl, r0, r1, lsl #10
     c38:	70910200 	addsvc	r0, r1, r0, lsl #4
     c3c:	a5040a00 	strge	r0, [r4, #-2560]	; 0xfffff600
     c40:	11000000 	mrsne	r0, (UNDEF: 0)
     c44:	00038901 	andeq	r8, r3, r1, lsl #18
     c48:	01750100 	cmneq	r5, r0, lsl #2
     c4c:	0000be01 	andeq	fp, r0, r1, lsl #28
     c50:	000d7400 	andeq	r7, sp, r0, lsl #8
     c54:	000da000 	andeq	sl, sp, r0
     c58:	00092400 	andeq	r2, r9, r0, lsl #8
     c5c:	0006e600 	andeq	lr, r6, r0, lsl #12
     c60:	74731200 	ldrbtvc	r1, [r3], #-512	; 0xfffffe00
     c64:	75010072 	strvc	r0, [r1, #-114]	; 0xffffff8e
     c68:	0001ff01 	andeq	pc, r1, r1, lsl #30
     c6c:	6c910200 	lfmvs	f0, 4, [r1], {0}
     c70:	01007014 	tsteq	r0, r4, lsl r0
     c74:	01ff0177 	mvnseq	r0, r7, ror r1
     c78:	91020000 	mrsls	r0, (UNDEF: 2)
     c7c:	01110074 	tsteq	r1, r4, ror r0
     c80:	00000390 	muleq	r0, r0, r3
     c84:	01017e01 	tsteq	r1, r1, lsl #28
     c88:	000000a5 	andeq	r0, r0, r5, lsr #1
     c8c:	00000da0 	andeq	r0, r0, r0, lsr #27
     c90:	00000de4 	andeq	r0, r0, r4, ror #27
     c94:	00000980 	andeq	r0, r0, r0, lsl #19
     c98:	00000741 	andeq	r0, r0, r1, asr #14
     c9c:	74736412 	ldrbtvc	r6, [r3], #-1042	; 0xfffffbee
     ca0:	017e0100 	cmneq	lr, r0, lsl #2
     ca4:	000001ff 	strdeq	r0, [r0], -pc	; <UNPREDICTABLE>
     ca8:	126c9102 	rsbne	r9, ip, #-2147483648	; 0x80000000
     cac:	00637273 	rsbeq	r7, r3, r3, ror r2
     cb0:	ff017e01 			; <UNDEFINED> instruction: 0xff017e01
     cb4:	02000001 	andeq	r0, r0, #1
     cb8:	59136891 	ldmdbpl	r3, {r0, r4, r7, fp, sp, lr}
     cbc:	01000003 	tsteq	r0, r3
     cc0:	01ff0180 	mvnseq	r0, r0, lsl #3
     cc4:	91020000 	mrsls	r0, (UNDEF: 2)
     cc8:	02ff1374 	rscseq	r1, pc, #116, 6	; 0xd0000001
     ccc:	80010000 	andhi	r0, r1, r0
     cd0:	0001ff01 	andeq	pc, r1, r1, lsl #30
     cd4:	70910200 	addsvc	r0, r1, r0, lsl #4
     cd8:	02d71700 	sbcseq	r1, r7, #0, 14
     cdc:	04010000 	streq	r0, [r1], #-0
     ce0:	00000753 	andeq	r0, r0, r3, asr r7
     ce4:	24030501 	strcs	r0, [r3], #-1281	; 0xfffffaff
     ce8:	10000019 	andne	r0, r0, r9, lsl r0
     cec:	00000758 	andeq	r0, r0, r8, asr r7
     cf0:	075e040a 	ldrbeq	r0, [lr, -sl, lsl #8]
     cf4:	be180000 	cdplt	0, 1, cr0, cr8, cr0, {0}
     cf8:	19000000 	stmdbne	r0, {}	; <UNPREDICTABLE>
     cfc:	000000f4 	strdeq	r0, [r0], -r4
     d00:	00000773 	andeq	r0, r0, r3, ror r7
     d04:	0007731a 	andeq	r7, r7, sl, lsl r3
     d08:	06000f00 	streq	r0, [r0], -r0, lsl #30
     d0c:	00fd0704 	rscseq	r0, sp, r4, lsl #14
     d10:	ea170000 	b	5c0d18 <_etext+0x5bf28c>
     d14:	01000002 	tsteq	r0, r2
     d18:	00078c0c 	andeq	r8, r7, ip, lsl #24
     d1c:	03050100 	movweq	r0, #20736	; 0x5100
     d20:	00001928 	andeq	r1, r0, r8, lsr #18
     d24:	00076310 	andeq	r6, r7, r0, lsl r3
     d28:	02e41700 	rsceq	r1, r4, #0, 14
     d2c:	0e010000 	cdpeq	0, 0, cr0, cr1, cr0, {0}
     d30:	000007a3 	andeq	r0, r0, r3, lsr #15
     d34:	38030501 	stmdacc	r3, {r0, r8, sl}
     d38:	10000019 	andne	r0, r0, r9, lsl r0
     d3c:	00000763 	andeq	r0, r0, r3, ror #14
     d40:	0000be19 	andeq	fp, r0, r9, lsl lr
     d44:	0007b800 	andeq	fp, r7, r0, lsl #16
     d48:	07731a00 	ldrbeq	r1, [r3, -r0, lsl #20]!
     d4c:	00080000 	andeq	r0, r8, r0
     d50:	00036517 	andeq	r6, r3, r7, lsl r5
     d54:	ca790100 	bgt	1e4115c <_etext+0x1e3f6d0>
     d58:	01000007 	tsteq	r0, r7
     d5c:	19480305 	stmdbne	r8, {r0, r2, r8, r9}^
     d60:	a8100000 	ldmdage	r0, {}	; <UNPREDICTABLE>
     d64:	00000007 	andeq	r0, r0, r7
     d68:	00000057 	andeq	r0, r0, r7, asr r0
     d6c:	03a20002 			; <UNDEFINED> instruction: 0x03a20002
     d70:	01040000 	mrseq	r0, (UNDEF: 4)
     d74:	000003c8 	andeq	r0, r0, r8, asr #7
     d78:	00000de4 	andeq	r0, r0, r4, ror #27
     d7c:	00000e68 	andeq	r0, r0, r8, ror #28
     d80:	5f336d63 	svcpl	0x00336d63
     d84:	00732e73 	rsbseq	r2, r3, r3, ror lr
     d88:	746e6d2f 	strbtvc	r6, [lr], #-3375	; 0xfffff2d1
     d8c:	772f652f 	strvc	r6, [pc, -pc, lsr #10]!
     d90:	65746972 	ldrbvs	r6, [r4, #-2418]!	; 0xfffff68e
     d94:	6f74725f 	svcvs	0x0074725f
     d98:	6e695f73 	mcrvs	15, 3, r5, cr9, cr3, {3}
     d9c:	6164335f 	cmnvs	r4, pc, asr r3
     da0:	302f7379 	eorcc	r7, pc, r9, ror r3	; <UNPREDICTABLE>
     da4:	75735f39 	ldrbvc	r5, [r3, #-3897]!	; 0xfffff0c7
     da8:	6e657073 	mcrvs	0, 3, r7, cr5, cr3, {3}
     dac:	65725f64 	ldrbvs	r5, [r2, #-3940]!	; 0xfffff09c
     db0:	656d7573 	strbvs	r7, [sp, #-1395]!	; 0xfffffa8d
     db4:	554e4700 	strbpl	r4, [lr, #-1792]	; 0xfffff900
     db8:	20534120 	subscs	r4, r3, r0, lsr #2
     dbc:	36322e32 			; <UNDEFINED> instruction: 0x36322e32
     dc0:	c4800100 	strgt	r0, [r0], #256	; 0x100
     dc4:	02000006 	andeq	r0, r0, #6
     dc8:	0003b600 	andeq	fp, r3, r0, lsl #12
     dcc:	8d010400 	cfstrshi	mvf0, [r1, #-0]
     dd0:	01000000 	mrseq	r0, (UNDEF: 0)
     dd4:	00000462 	andeq	r0, r0, r2, ror #8
     dd8:	0000000d 	andeq	r0, r0, sp
     ddc:	00000e68 	andeq	r0, r0, r8, ror #28
     de0:	0000148e 	andeq	r1, r0, lr, lsl #9
     de4:	00000430 	andeq	r0, r0, r0, lsr r4
     de8:	3c060102 	stfccs	f0, [r6], {2}
     dec:	03000000 	movweq	r0, #0
     df0:	0000018f 	andeq	r0, r0, pc, lsl #3
     df4:	00371d02 	eorseq	r1, r7, r2, lsl #26
     df8:	01020000 	mrseq	r0, (UNDEF: 2)
     dfc:	00003a08 	andeq	r3, r0, r8, lsl #20
     e00:	05020200 	streq	r0, [r2, #-512]	; 0xfffffe00
     e04:	00000114 	andeq	r0, r0, r4, lsl r1
     e08:	48070202 	stmdami	r7, {r1, r9}
     e0c:	02000000 	andeq	r0, r0, #0
     e10:	010b0504 	tsteq	fp, r4, lsl #10
     e14:	53030000 	movwpl	r0, #12288	; 0x3000
     e18:	02000001 	andeq	r0, r0, #1
     e1c:	00005e41 	andeq	r5, r0, r1, asr #28
     e20:	07040200 	streq	r0, [r4, -r0, lsl #4]
     e24:	0000007b 	andeq	r0, r0, fp, ror r0
     e28:	06050802 	streq	r0, [r5], -r2, lsl #16
     e2c:	02000001 	andeq	r0, r0, #1
     e30:	00760708 	rsbseq	r0, r6, r8, lsl #14
     e34:	04040000 	streq	r0, [r4], #-0
     e38:	746e6905 	strbtvc	r6, [lr], #-2309	; 0xfffff6fb
     e3c:	07040200 	streq	r0, [r4, -r0, lsl #4]
     e40:	00000080 	andeq	r0, r0, r0, lsl #1
     e44:	00019103 	andeq	r9, r1, r3, lsl #2
     e48:	2c140300 	ldccs	3, cr0, [r4], {-0}
     e4c:	03000000 	movweq	r0, #0
     e50:	00000155 	andeq	r0, r0, r5, asr r1
     e54:	00532003 	subseq	r2, r3, r3
     e58:	36050000 	strcc	r0, [r5], -r0
     e5c:	04000006 	streq	r0, [r0], #-6
     e60:	00b20704 	adcseq	r0, r2, r4, lsl #14
     e64:	0a060000 	beq	180e6c <_etext+0x17f3e0>
     e68:	04000006 	streq	r0, [r0], #-6
     e6c:	00008c08 	andeq	r8, r0, r8, lsl #24
     e70:	00230200 	eoreq	r0, r3, r0, lsl #4
     e74:	04af0300 	strteq	r0, [pc], #768	; e7c <task_init+0x8>
     e78:	09040000 	stmdbeq	r4, {}	; <UNPREDICTABLE>
     e7c:	00000097 	muleq	r0, r7, r0
     e80:	00015e05 	andeq	r5, r1, r5, lsl #28
     e84:	12040800 	andne	r0, r4, #0, 16
     e88:	000000e6 	andeq	r0, r0, r6, ror #1
     e8c:	00073606 	andeq	r3, r7, r6, lsl #12
     e90:	e6130400 	ldr	r0, [r3], -r0, lsl #8
     e94:	02000000 	andeq	r0, r0, #0
     e98:	40060023 	andmi	r0, r6, r3, lsr #32
     e9c:	04000007 	streq	r0, [r0], #-7
     ea0:	0000e614 	andeq	lr, r0, r4, lsl r6
     ea4:	04230200 	strteq	r0, [r3], #-512	; 0xfffffe00
     ea8:	bd040700 	stclt	7, cr0, [r4, #-0]
     eac:	03000000 	movweq	r0, #0
     eb0:	00000142 	andeq	r0, r0, r2, asr #2
     eb4:	00bd1504 	adcseq	r1, sp, r4, lsl #10
     eb8:	69050000 	stmdbvs	r5, {}	; <UNPREDICTABLE>
     ebc:	0c000004 	stceq	0, cr0, [r0], {4}
     ec0:	01201904 			; <UNDEFINED> instruction: 0x01201904
     ec4:	1c060000 	stcne	0, cr0, [r6], {-0}
     ec8:	04000007 	streq	r0, [r0], #-7
     ecc:	0000ec1a 	andeq	lr, r0, sl, lsl ip
     ed0:	00230200 	eoreq	r0, r3, r0, lsl #4
     ed4:	00047e06 	andeq	r7, r4, r6, lsl #28
     ed8:	8c1b0400 	cfldrshi	mvf0, [fp], {-0}
     edc:	02000000 	andeq	r0, r0, #0
     ee0:	03000823 	movweq	r0, #2083	; 0x823
     ee4:	0000045b 	andeq	r0, r0, fp, asr r4
     ee8:	00f71c04 	rscseq	r1, r7, r4, lsl #24
     eec:	04030000 	streq	r0, [r3], #-0
     ef0:	05000002 	streq	r0, [r0, #-2]
     ef4:	00008c0b 	andeq	r8, r0, fp, lsl #24
     ef8:	01990500 	orrseq	r0, r9, r0, lsl #10
     efc:	05280000 	streq	r0, [r8, #-0]!
     f00:	0001b30d 	andeq	fp, r1, sp, lsl #6
     f04:	01b20600 			; <UNDEFINED> instruction: 0x01b20600
     f08:	0f050000 	svceq	0x00050000
     f0c:	000001b3 			; <UNDEFINED> instruction: 0x000001b3
     f10:	06002302 	streq	r2, [r0], -r2, lsl #6
     f14:	000001e5 	andeq	r0, r0, r5, ror #3
     f18:	008c1005 	addeq	r1, ip, r5
     f1c:	23020000 	movwcs	r0, #8192	; 0x2000
     f20:	04910604 	ldreq	r0, [r1], #1540	; 0x604
     f24:	11050000 	mrsne	r0, (UNDEF: 5)
     f28:	0000008c 	andeq	r0, r0, ip, lsl #1
     f2c:	06082302 	streq	r2, [r8], -r2, lsl #6
     f30:	00000131 	andeq	r0, r0, r1, lsr r1
     f34:	00ec1405 	rsceq	r1, ip, r5, lsl #8
     f38:	23020000 	movwcs	r0, #8192	; 0x2000
     f3c:	013c060c 	teqeq	ip, ip, lsl #12
     f40:	15050000 	strne	r0, [r5, #-0]
     f44:	0000008c 	andeq	r0, r0, ip, lsl #1
     f48:	06142302 	ldreq	r2, [r4], -r2, lsl #6
     f4c:	0000022d 	andeq	r0, r0, sp, lsr #4
     f50:	00ec1805 	rsceq	r1, ip, r5, lsl #16
     f54:	23020000 	movwcs	r0, #8192	; 0x2000
     f58:	01ac0618 			; <UNDEFINED> instruction: 0x01ac0618
     f5c:	19050000 	stmdbne	r5, {}	; <UNPREDICTABLE>
     f60:	0000008c 	andeq	r0, r0, ip, lsl #1
     f64:	06202302 	strteq	r2, [r0], -r2, lsl #6
     f68:	000001f8 	strdeq	r0, [r0], -r8
     f6c:	008c1c05 	addeq	r1, ip, r5, lsl #24
     f70:	23020000 	movwcs	r0, #8192	; 0x2000
     f74:	04070024 	streq	r0, [r7], #-36	; 0xffffffdc
     f78:	0000012b 	andeq	r0, r0, fp, lsr #2
     f7c:	00017603 	andeq	r7, r1, r3, lsl #12
     f80:	361d0500 	ldrcc	r0, [sp], -r0, lsl #10
     f84:	08000001 	stmdaeq	r0, {r0}
     f88:	0000041d 	andeq	r0, r0, sp, lsl r4
     f8c:	68011101 	stmdavs	r1, {r0, r8, ip}
     f90:	7200000e 	andvc	r0, r0, #14
     f94:	dc00000e 	stcle	0, cr0, [r0], {14}
     f98:	eb000009 	bl	fc4 <task_sched+0x8>
     f9c:	09000001 	stmdbeq	r0, {r0}
     fa0:	000001b8 			; <UNDEFINED> instruction: 0x000001b8
     fa4:	01eb1101 	mvneq	r1, r1, lsl #2
     fa8:	91020000 	mrsls	r0, (UNDEF: 2)
     fac:	040a0074 	streq	r0, [sl], #-116	; 0xffffff8c
     fb0:	050d010b 	streq	r0, [sp, #-267]	; 0xfffffef5
     fb4:	16010000 	strne	r0, [r1], -r0
     fb8:	000e7401 	andeq	r7, lr, r1, lsl #8
     fbc:	000fbc00 	andeq	fp, pc, r0, lsl #24
     fc0:	000a1400 	andeq	r1, sl, r0, lsl #8
     fc4:	00025d00 	andeq	r5, r2, r0, lsl #26
     fc8:	04790900 	ldrbteq	r0, [r9], #-2304	; 0xfffff700
     fcc:	16010000 	strne	r0, [r1], -r0
     fd0:	0000025d 	andeq	r0, r0, sp, asr r2
     fd4:	09749102 	ldmdbeq	r4!, {r1, r8, ip, pc}^
     fd8:	0000024c 	andeq	r0, r0, ip, asr #4
     fdc:	026f1601 	rsbeq	r1, pc, #1048576	; 0x100000
     fe0:	91020000 	mrsls	r0, (UNDEF: 2)
     fe4:	01b80970 			; <UNDEFINED> instruction: 0x01b80970
     fe8:	16010000 	strne	r0, [r1], -r0
     fec:	000001eb 	andeq	r0, r0, fp, ror #3
     ff0:	096c9102 	stmdbeq	ip!, {r1, r8, ip, pc}^
     ff4:	00000491 	muleq	r0, r1, r4
     ff8:	008c1601 	addeq	r1, ip, r1, lsl #12
     ffc:	91020000 	mrsls	r0, (UNDEF: 2)
    1000:	01b20968 			; <UNDEFINED> instruction: 0x01b20968
    1004:	16010000 	strne	r0, [r1], -r0
    1008:	00000275 	andeq	r0, r0, r5, ror r2
    100c:	0c009102 	stfeqd	f1, [r0], {2}
    1010:	000001be 			; <UNDEFINED> instruction: 0x000001be
    1014:	00000299 	muleq	r0, r9, r2
    1018:	70030501 	andvc	r0, r3, r1, lsl #10
    101c:	00000019 	andeq	r0, r0, r9, lsl r0
    1020:	01b90407 			; <UNDEFINED> instruction: 0x01b90407
    1024:	010d0000 	mrseq	r0, (UNDEF: 13)
    1028:	0000026f 	andeq	r0, r0, pc, ror #4
    102c:	0001eb0e 	andeq	lr, r1, lr, lsl #22
    1030:	04070000 	streq	r0, [r7], #-0
    1034:	00000263 	andeq	r0, r0, r3, ror #4
    1038:	008c0407 	addeq	r0, ip, r7, lsl #8
    103c:	920f0000 	andls	r0, pc, #0
    1040:	8b000002 	blhi	1050 <task_run_first+0x30>
    1044:	10000002 	andne	r0, r0, r2
    1048:	0000028b 	andeq	r0, r0, fp, lsl #5
    104c:	04020009 	streq	r0, [r2], #-9
    1050:	0000fd07 	andeq	pc, r0, r7, lsl #26
    1054:	08010200 	stmdaeq	r1, {r9}
    1058:	00000043 	andeq	r0, r0, r3, asr #32
    105c:	00027b11 	andeq	r7, r2, r1, lsl fp
    1060:	91010b00 	tstls	r1, r0, lsl #22
    1064:	01000005 	tsteq	r0, r5
    1068:	0fbc013a 	svceq	0x00bc013a
    106c:	10080000 	andne	r0, r8, r0
    1070:	0a640000 	beq	1901078 <_etext+0x18ff5ec>
    1074:	02df0000 	sbcseq	r0, pc, #0
    1078:	36120000 	ldrcc	r0, [r2], -r0
    107c:	01000005 	tsteq	r0, r5
    1080:	00008c3c 	andeq	r8, r0, ip, lsr ip
    1084:	74910200 	ldrvc	r0, [r1], #512	; 0x200
    1088:	00058512 	andeq	r8, r5, r2, lsl r5
    108c:	5d3d0100 	ldfpls	f0, [sp, #-0]
    1090:	02000002 	andeq	r0, r0, #2
    1094:	4d137091 	ldcmi	0, cr7, [r3, #-580]	; 0xfffffdbc
    1098:	01000004 	tsteq	r0, r4
    109c:	000fec49 	andeq	lr, pc, r9, asr #24
    10a0:	01140000 	tsteq	r4, r0
    10a4:	00000611 	andeq	r0, r0, r1, lsl r6
    10a8:	08014e01 	stmdaeq	r1, {r0, r9, sl, fp, lr}
    10ac:	20000010 	andcs	r0, r0, r0, lsl r0
    10b0:	b4000010 	strlt	r0, [r0], #-16
    10b4:	0b00000a 	bleq	10e4 <task_system_tick_handler+0x3c>
    10b8:	00053d01 	andeq	r3, r5, r1, lsl #26
    10bc:	01530100 	cmpeq	r3, r0, lsl #2
    10c0:	00001020 	andeq	r1, r0, r0, lsr #32
    10c4:	00001054 	andeq	r1, r0, r4, asr r0
    10c8:	00000af8 	strdeq	r0, [r0], -r8
    10cc:	0000031e 	andeq	r0, r0, lr, lsl r3
    10d0:	0001be0c 	andeq	fp, r1, ip, lsl #28
    10d4:	00032e00 	andeq	r2, r3, r0, lsl #28
    10d8:	03050100 	movweq	r0, #20736	; 0x5100
    10dc:	0000197c 	andeq	r1, r0, ip, ror r9
    10e0:	02920f00 	addseq	r0, r2, #0, 30
    10e4:	032e0000 			; <UNDEFINED> instruction: 0x032e0000
    10e8:	8b100000 	blhi	4010f0 <_etext+0x3ff664>
    10ec:	0e000002 	cdpeq	0, 0, cr0, cr0, cr2, {0}
    10f0:	031e1100 	tsteq	lr, #0, 2
    10f4:	010b0000 	mrseq	r0, (UNDEF: 11)
    10f8:	000004b8 			; <UNDEFINED> instruction: 0x000004b8
    10fc:	54015b01 	strpl	r5, [r1], #-2817	; 0xfffff4ff
    1100:	8c000010 	stchi	0, cr0, [r0], {16}
    1104:	24000010 	strcs	r0, [r0], #-16
    1108:	6900000b 	stmdbvs	r0, {r0, r1, r3}
    110c:	09000003 	stmdbeq	r0, {r0, r1}
    1110:	000001eb 	andeq	r0, r0, fp, ror #3
    1114:	008c5b01 	addeq	r5, ip, r1, lsl #22
    1118:	91020000 	mrsls	r0, (UNDEF: 2)
    111c:	0536126c 	ldreq	r1, [r6, #-620]!	; 0xfffffd94
    1120:	5d010000 	stcpl	0, cr0, [r1, #-0]
    1124:	0000008c 	andeq	r0, r0, ip, lsl #1
    1128:	00749102 	rsbseq	r9, r4, r2, lsl #2
    112c:	061d010b 	ldreq	r0, [sp], -fp, lsl #2
    1130:	6a010000 	bvs	41138 <_etext+0x3f6ac>
    1134:	00108c01 	andseq	r8, r0, r1, lsl #24
    1138:	0010a800 	andseq	sl, r0, r0, lsl #16
    113c:	000b7400 	andeq	r7, fp, r0, lsl #8
    1140:	00039100 	andeq	r9, r3, r0, lsl #2
    1144:	05720900 	ldrbeq	r0, [r2, #-2304]!	; 0xfffff700
    1148:	6a010000 	bvs	41150 <_etext+0x3f6c4>
    114c:	0000008c 	andeq	r0, r0, ip, lsl #1
    1150:	00749102 	rsbseq	r9, r4, r2, lsl #2
    1154:	0496010b 	ldreq	r0, [r6], #267	; 0x10b
    1158:	6f010000 	svcvs	0x00010000
    115c:	0010a801 	andseq	sl, r0, r1, lsl #16
    1160:	00118800 	andseq	r8, r1, r0, lsl #16
    1164:	000bc400 	andeq	ip, fp, r0, lsl #8
    1168:	0003e300 	andeq	lr, r3, r0, lsl #6
    116c:	05361200 	ldreq	r1, [r6, #-512]!	; 0xfffffe00
    1170:	71010000 	mrsvc	r0, (UNDEF: 1)
    1174:	0000008c 	andeq	r0, r0, ip, lsl #1
    1178:	12709102 	rsbsne	r9, r0, #-2147483648	; 0x80000000
    117c:	0000071c 	andeq	r0, r0, ip, lsl r7
    1180:	03e37201 	mvneq	r7, #268435456	; 0x10000000
    1184:	91020000 	mrsls	r0, (UNDEF: 2)
    1188:	04e3126c 	strbteq	r1, [r3], #620	; 0x26c
    118c:	73010000 	movwvc	r0, #4096	; 0x1000
    1190:	000003e3 	andeq	r0, r0, r3, ror #7
    1194:	12749102 	rsbsne	r9, r4, #-2147483648	; 0x80000000
    1198:	00000479 	andeq	r0, r0, r9, ror r4
    119c:	025d7401 	subseq	r7, sp, #16777216	; 0x1000000
    11a0:	91020000 	mrsls	r0, (UNDEF: 2)
    11a4:	04070068 	streq	r0, [r7], #-104	; 0xffffff98
    11a8:	000000ec 	andeq	r0, r0, ip, ror #1
    11ac:	04fc010b 	ldrbteq	r0, [ip], #267	; 0x10b
    11b0:	97010000 	strls	r0, [r1, -r0]
    11b4:	00118801 	andseq	r8, r1, r1, lsl #16
    11b8:	00120800 	andseq	r0, r2, r0, lsl #16
    11bc:	000c1400 	andeq	r1, ip, r0, lsl #8
    11c0:	00040f00 	andeq	r0, r4, r0, lsl #30
    11c4:	00691500 	rsbeq	r1, r9, r0, lsl #10
    11c8:	008c9a01 	addeq	r9, ip, r1, lsl #20
    11cc:	91020000 	mrsls	r0, (UNDEF: 2)
    11d0:	01160074 	tsteq	r6, r4, ror r0
    11d4:	0000055e 	andeq	r0, r0, lr, asr r5
    11d8:	8c01a501 	cfstr32hi	mvfx10, [r1], {1}
    11dc:	08000000 	stmdaeq	r0, {}	; <UNPREDICTABLE>
    11e0:	22000012 	andcs	r0, r0, #18
    11e4:	64000012 	strvs	r0, [r0], #-18	; 0xffffffee
    11e8:	3b00000c 	blcc	1220 <task_enter_critical+0x18>
    11ec:	15000004 	strne	r0, [r0, #-4]
    11f0:	00746572 	rsbseq	r6, r4, r2, ror r5
    11f4:	008ca701 	addeq	sl, ip, r1, lsl #14
    11f8:	91020000 	mrsls	r0, (UNDEF: 2)
    11fc:	010b0074 	tsteq	fp, r4, ror r0
    1200:	000004c3 	andeq	r0, r0, r3, asr #9
    1204:	2401ac01 	strcs	sl, [r1], #-3073	; 0xfffff3ff
    1208:	3c000012 	stccc	0, cr0, [r0], {18}
    120c:	b4000012 	strlt	r0, [r0], #-18	; 0xffffffee
    1210:	6300000c 	movwvs	r0, #12
    1214:	09000004 	stmdbeq	r0, {r2}
    1218:	00000536 	andeq	r0, r0, r6, lsr r5
    121c:	008cac01 	addeq	sl, ip, r1, lsl #24
    1220:	91020000 	mrsls	r0, (UNDEF: 2)
    1224:	010b0074 	tsteq	fp, r4, ror r0
    1228:	0000059c 	muleq	r0, ip, r5
    122c:	3c01b201 	sfmcc	f3, 1, [r1], {1}
    1230:	6c000012 	stcvs	0, cr0, [r0], {18}
    1234:	04000012 	streq	r0, [r0], #-18	; 0xffffffee
    1238:	8b00000d 	blhi	1274 <task_sched_enable+0x8>
    123c:	12000004 	andne	r0, r0, #4
    1240:	00000536 	andeq	r0, r0, r6, lsr r5
    1244:	008cb401 	addeq	fp, ip, r1, lsl #8
    1248:	91020000 	mrsls	r0, (UNDEF: 2)
    124c:	010b0074 	tsteq	fp, r4, ror r0
    1250:	00000524 	andeq	r0, r0, r4, lsr #10
    1254:	6c01bc01 	stcvs	12, cr11, [r1], {1}
    1258:	a8000012 	stmdage	r0, {r1, r4}
    125c:	54000012 	strpl	r0, [r0], #-18	; 0xffffffee
    1260:	b300000d 	movwlt	r0, #13
    1264:	12000004 	andne	r0, r0, #4
    1268:	00000536 	andeq	r0, r0, r6, lsr r5
    126c:	008cbe01 	addeq	fp, ip, r1, lsl #28
    1270:	91020000 	mrsls	r0, (UNDEF: 2)
    1274:	01160074 	tsteq	r6, r4, ror r0
    1278:	000005af 	andeq	r0, r0, pc, lsr #11
    127c:	5d01c701 	stcpl	7, cr12, [r1, #-4]
    1280:	a8000002 	stmdage	r0, {r1}
    1284:	e0000012 	and	r0, r0, r2, lsl r0
    1288:	a4000012 	strge	r0, [r0], #-18	; 0xffffffee
    128c:	ed00000d 	stc	0, cr0, [r0, #-52]	; 0xffffffcc
    1290:	12000004 	andne	r0, r0, #4
    1294:	00000489 	andeq	r0, r0, r9, lsl #9
    1298:	008cd001 	addeq	sp, ip, r1
    129c:	91020000 	mrsls	r0, (UNDEF: 2)
    12a0:	04e81274 	strbteq	r1, [r8], #628	; 0x274
    12a4:	d1010000 	mrsle	r0, (UNDEF: 1)
    12a8:	000003e3 	andeq	r0, r0, r3, ror #7
    12ac:	00709102 	rsbseq	r9, r0, r2, lsl #2
    12b0:	057a010b 	ldrbeq	r0, [sl, #-267]!	; 0xfffffef5
    12b4:	d5010000 	strle	r0, [r1, #-0]
    12b8:	0012e001 	andseq	lr, r2, r1
    12bc:	00132000 	andseq	r2, r3, r0
    12c0:	000df400 	andeq	pc, sp, r0, lsl #8
    12c4:	00051500 	andeq	r1, r5, r0, lsl #10
    12c8:	04790900 	ldrbteq	r0, [r9], #-2304	; 0xfffff700
    12cc:	d5010000 	strle	r0, [r1, #-0]
    12d0:	0000025d 	andeq	r0, r0, sp, asr r2
    12d4:	00749102 	rsbseq	r9, r4, r2, lsl #2
    12d8:	05f1010b 	ldrbeq	r0, [r1, #267]!	; 0x10b
    12dc:	db010000 	blle	412e4 <_etext+0x3f858>
    12e0:	00132001 	andseq	r2, r3, r1
    12e4:	00138800 	andseq	r8, r3, r0, lsl #16
    12e8:	000e4400 	andeq	r4, lr, r0, lsl #8
    12ec:	00053d00 	andeq	r3, r5, r0, lsl #26
    12f0:	04790900 	ldrbteq	r0, [r9], #-2304	; 0xfffff700
    12f4:	db010000 	blle	412fc <_etext+0x3f870>
    12f8:	0000025d 	andeq	r0, r0, sp, asr r2
    12fc:	00749102 	rsbseq	r9, r4, r2, lsl #2
    1300:	042d010b 	strteq	r0, [sp], #-267	; 0xfffffef5
    1304:	e4010000 	str	r0, [r1], #-0
    1308:	00138801 	andseq	r8, r3, r1, lsl #16
    130c:	0013bc00 	andseq	fp, r3, r0, lsl #24
    1310:	000e9400 	andeq	r9, lr, r0, lsl #8
    1314:	00057300 	andeq	r7, r5, r0, lsl #6
    1318:	04790900 	ldrbteq	r0, [r9], #-2304	; 0xfffff700
    131c:	e4010000 	str	r0, [r1], #-0
    1320:	0000025d 	andeq	r0, r0, sp, asr r2
    1324:	09749102 	ldmdbeq	r4!, {r1, r8, ip, pc}^
    1328:	000001eb 	andeq	r0, r0, fp, ror #3
    132c:	008ce401 	addeq	lr, ip, r1, lsl #8
    1330:	91020000 	mrsls	r0, (UNDEF: 2)
    1334:	010b0070 	tsteq	fp, r0, ror r0
    1338:	0000054c 	andeq	r0, r0, ip, asr #10
    133c:	bc01eb01 	stclt	11, cr14, [r1], {1}
    1340:	e8000013 	stmda	r0, {r0, r1, r4}
    1344:	e4000013 	str	r0, [r0], #-19	; 0xffffffed
    1348:	9b00000e 	blls	1388 <task_delay_wait>
    134c:	09000005 	stmdbeq	r0, {r0, r2}
    1350:	00000479 	andeq	r0, r0, r9, ror r4
    1354:	025deb01 	subseq	lr, sp, #1024	; 0x400
    1358:	91020000 	mrsls	r0, (UNDEF: 2)
    135c:	010b0074 	tsteq	fp, r4, ror r0
    1360:	00000517 	andeq	r0, r0, r7, lsl r5
    1364:	e801f101 	stmda	r1, {r0, r8, ip, sp, lr, pc}
    1368:	40000013 	andmi	r0, r0, r3, lsl r0
    136c:	34000014 	strcc	r0, [r0], #-20	; 0xffffffec
    1370:	d100000f 	tstle	r0, pc
    1374:	09000005 	stmdbeq	r0, {r0, r2}
    1378:	00000479 	andeq	r0, r0, r9, ror r4
    137c:	025df101 	subseq	pc, sp, #1073741824	; 0x40000000
    1380:	91020000 	mrsls	r0, (UNDEF: 2)
    1384:	0536126c 	ldreq	r1, [r6, #-620]!	; 0xfffffd94
    1388:	f3010000 	vhadd.u8	d0, d1, d0
    138c:	0000008c 	andeq	r0, r0, ip, lsl #1
    1390:	00749102 	rsbseq	r9, r4, r2, lsl #2
    1394:	062a0117 			; <UNDEFINED> instruction: 0x062a0117
    1398:	06010000 	streq	r0, [r1], -r0
    139c:	14400101 	strbne	r0, [r0], #-257	; 0xfffffeff
    13a0:	148e0000 	strne	r0, [lr], #0
    13a4:	0f840000 	svceq	0x00840000
    13a8:	060a0000 	streq	r0, [sl], -r0
    13ac:	79180000 	ldmdbvc	r8, {}	; <UNPREDICTABLE>
    13b0:	01000004 	tsteq	r0, r4
    13b4:	025d0106 	subseq	r0, sp, #-2147483647	; 0x80000001
    13b8:	91020000 	mrsls	r0, (UNDEF: 2)
    13bc:	0536196c 	ldreq	r1, [r6, #-2412]!	; 0xfffff694
    13c0:	08010000 	stmdaeq	r1, {}	; <UNPREDICTABLE>
    13c4:	00008c01 	andeq	r8, r0, r1, lsl #24
    13c8:	74910200 	ldrvc	r0, [r1], #512	; 0x200
    13cc:	05c21200 	strbeq	r1, [r2, #512]	; 0x200
    13d0:	0a010000 	beq	413d8 <_etext+0x3f94c>
    13d4:	000001b9 			; <UNDEFINED> instruction: 0x000001b9
    13d8:	00000305 	andeq	r0, r0, r5, lsl #6
    13dc:	72122000 	andsvc	r2, r2, #0
    13e0:	01000004 	tsteq	r0, r4
    13e4:	00025d0b 	andeq	r5, r2, fp, lsl #26
    13e8:	28030500 	stmdacs	r3, {r8, sl}
    13ec:	0f200000 	svceq	0x00200000
    13f0:	0000012b 	andeq	r0, r0, fp, lsr #2
    13f4:	0000063d 	andeq	r0, r0, sp, lsr r6
    13f8:	00028b1a 	andeq	r8, r2, sl, lsl fp
    13fc:	0003ff00 	andeq	pc, r3, r0, lsl #30
    1400:	00043d12 	andeq	r3, r4, r2, lsl sp
    1404:	2c0c0100 	stfcss	f0, [ip], {-0}
    1408:	05000006 	streq	r0, [r0, #-6]
    140c:	00002c03 	andeq	r2, r0, r3, lsl #24
    1410:	04d61220 	ldrbeq	r1, [r6], #544	; 0x220
    1414:	0d010000 	stceq	0, cr0, [r1, #-0]
    1418:	00000081 	andeq	r0, r0, r1, lsl #1
    141c:	102c0305 	eorne	r0, ip, r5, lsl #6
    1420:	fe122000 	cdp2	0, 1, cr2, cr2, cr0, {0}
    1424:	01000005 	tsteq	r0, r5
    1428:	0000b20e 	andeq	fp, r0, lr, lsl #4
    142c:	30030500 	andcc	r0, r3, r0, lsl #10
    1430:	12200010 	eorne	r0, r0, #16
    1434:	000005df 	ldrdeq	r0, [r0], -pc	; <UNPREDICTABLE>
    1438:	01200f01 			; <UNDEFINED> instruction: 0x01200f01
    143c:	03050000 	movweq	r0, #20480	; 0x5000
    1440:	20001034 	andcs	r1, r0, r4, lsr r0
    1444:	0004ed1b 	andeq	lr, r4, fp, lsl sp
    1448:	5d070100 	stfpls	f0, [r7, #-0]
    144c:	01000002 	tsteq	r0, r2
    1450:	40bc0305 	adcsmi	r0, ip, r5, lsl #6
    1454:	7d1b2000 	ldcvc	0, cr2, [fp, #-0]
    1458:	01000001 	tsteq	r0, r1
    145c:	00025d08 	andeq	r5, r2, r8, lsl #26
    1460:	03050100 	movweq	r0, #20736	; 0x5100
    1464:	200040b8 	strhcs	r4, [r0], -r8
    1468:	0001200f 	andeq	r2, r1, pc
    146c:	0006b500 	andeq	fp, r6, r0, lsl #10
    1470:	028b1000 	addeq	r1, fp, #0
    1474:	001f0000 	andseq	r0, pc, r0
    1478:	0005d21b 	andeq	sp, r5, fp, lsl r2
    147c:	a5090100 	strge	r0, [r9, #-256]	; 0xffffff00
    1480:	01000006 	tsteq	r0, r6
    1484:	40c00305 	sbcmi	r0, r0, r5, lsl #6
    1488:	bb002000 	bllt	9490 <_etext+0x7a04>
    148c:	02000005 	andeq	r0, r0, #5
    1490:	00053400 	andeq	r3, r5, r0, lsl #8
    1494:	8d010400 	cfstrshi	mvf0, [r1, #-0]
    1498:	01000000 	mrseq	r0, (UNDEF: 0)
    149c:	00000685 	andeq	r0, r0, r5, lsl #13
    14a0:	0000000d 	andeq	r0, r0, sp
    14a4:	00001490 	muleq	r0, r0, r4
    14a8:	0000188a 	andeq	r1, r0, sl, lsl #17
    14ac:	0000057a 	andeq	r0, r0, sl, ror r5
    14b0:	3c060102 	stfccs	f0, [r6], {2}
    14b4:	03000000 	movweq	r0, #0
    14b8:	0000018f 	andeq	r0, r0, pc, lsl #3
    14bc:	00371d02 	eorseq	r1, r7, r2, lsl #26
    14c0:	01020000 	mrseq	r0, (UNDEF: 2)
    14c4:	00003a08 	andeq	r3, r0, r8, lsl #20
    14c8:	05020200 	streq	r0, [r2, #-512]	; 0xfffffe00
    14cc:	00000114 	andeq	r0, r0, r4, lsl r1
    14d0:	48070202 	stmdami	r7, {r1, r9}
    14d4:	02000000 	andeq	r0, r0, #0
    14d8:	010b0504 	tsteq	fp, r4, lsl #10
    14dc:	53030000 	movwpl	r0, #12288	; 0x3000
    14e0:	02000001 	andeq	r0, r0, #1
    14e4:	00005e41 	andeq	r5, r0, r1, asr #28
    14e8:	07040200 	streq	r0, [r4, -r0, lsl #4]
    14ec:	0000007b 	andeq	r0, r0, fp, ror r0
    14f0:	06050802 	streq	r0, [r5], -r2, lsl #16
    14f4:	02000001 	andeq	r0, r0, #1
    14f8:	00760708 	rsbseq	r0, r6, r8, lsl #14
    14fc:	04040000 	streq	r0, [r4], #-0
    1500:	746e6905 	strbtvc	r6, [lr], #-2309	; 0xfffff6fb
    1504:	07040200 	streq	r0, [r4, -r0, lsl #4]
    1508:	00000080 	andeq	r0, r0, r0, lsl #1
    150c:	00019103 	andeq	r9, r1, r3, lsl #2
    1510:	2c140300 	ldccs	3, cr0, [r4], {-0}
    1514:	03000000 	movweq	r0, #0
    1518:	00000155 	andeq	r0, r0, r5, asr r1
    151c:	00532003 	subseq	r2, r3, r3
    1520:	36050000 	strcc	r0, [r5], -r0
    1524:	04000006 	streq	r0, [r0], #-6
    1528:	00b20704 	adcseq	r0, r2, r4, lsl #14
    152c:	0a060000 	beq	181534 <_etext+0x17faa8>
    1530:	04000006 	streq	r0, [r0], #-6
    1534:	00008c08 	andeq	r8, r0, r8, lsl #24
    1538:	00230200 	eoreq	r0, r3, r0, lsl #4
    153c:	04af0300 	strteq	r0, [pc], #768	; 1544 <bitmap_get_first_set+0x3c>
    1540:	09040000 	stmdbeq	r4, {}	; <UNPREDICTABLE>
    1544:	00000097 	muleq	r0, r7, r0
    1548:	00015e05 	andeq	r5, r1, r5, lsl #28
    154c:	12040800 	andne	r0, r4, #0, 16
    1550:	000000e6 	andeq	r0, r0, r6, ror #1
    1554:	00073606 	andeq	r3, r7, r6, lsl #12
    1558:	e6130400 	ldr	r0, [r3], -r0, lsl #8
    155c:	02000000 	andeq	r0, r0, #0
    1560:	40060023 	andmi	r0, r6, r3, lsr #32
    1564:	04000007 	streq	r0, [r0], #-7
    1568:	0000e614 	andeq	lr, r0, r4, lsl r6
    156c:	04230200 	strteq	r0, [r3], #-512	; 0xfffffe00
    1570:	bd040700 	stclt	7, cr0, [r4, #-0]
    1574:	03000000 	movweq	r0, #0
    1578:	00000142 	andeq	r0, r0, r2, asr #2
    157c:	00bd1504 	adcseq	r1, sp, r4, lsl #10
    1580:	69050000 	stmdbvs	r5, {}	; <UNPREDICTABLE>
    1584:	0c000004 	stceq	0, cr0, [r0], {4}
    1588:	01201904 			; <UNDEFINED> instruction: 0x01201904
    158c:	1c060000 	stcne	0, cr0, [r6], {-0}
    1590:	04000007 	streq	r0, [r0], #-7
    1594:	0000ec1a 	andeq	lr, r0, sl, lsl ip
    1598:	00230200 	eoreq	r0, r3, r0, lsl #4
    159c:	00047e06 	andeq	r7, r4, r6, lsl #28
    15a0:	8c1b0400 	cfldrshi	mvf0, [fp], {-0}
    15a4:	02000000 	andeq	r0, r0, #0
    15a8:	03000823 	movweq	r0, #2083	; 0x823
    15ac:	0000045b 	andeq	r0, r0, fp, asr r4
    15b0:	00f71c04 	rscseq	r1, r7, r4, lsl #24
    15b4:	01080000 	mrseq	r0, (UNDEF: 8)
    15b8:	000006bb 			; <UNDEFINED> instruction: 0x000006bb
    15bc:	90010301 	andls	r0, r1, r1, lsl #6
    15c0:	a8000014 	stmdage	r0, {r2, r4}
    15c4:	d4000014 	strle	r0, [r0], #-20	; 0xffffffec
    15c8:	5300000f 	movwpl	r0, #15
    15cc:	09000001 	stmdbeq	r0, {r0}
    15d0:	0000060a 	andeq	r0, r0, sl, lsl #12
    15d4:	01530301 	cmpeq	r3, r1, lsl #6
    15d8:	91020000 	mrsls	r0, (UNDEF: 2)
    15dc:	04070074 	streq	r0, [r7], #-116	; 0xffffff8c
    15e0:	000000b2 	strheq	r0, [r0], -r2
    15e4:	06f9010a 	ldrbteq	r0, [r9], sl, lsl #2
    15e8:	08010000 	stmdaeq	r1, {}	; <UNPREDICTABLE>
    15ec:	00008c01 	andeq	r8, r0, r1, lsl #24
    15f0:	0014a800 	andseq	sl, r4, r0, lsl #16
    15f4:	0014b800 	andseq	fp, r4, r0, lsl #16
    15f8:	00103000 	andseq	r3, r0, r0
    15fc:	57010800 	strpl	r0, [r1, -r0, lsl #16]
    1600:	01000006 	tsteq	r0, r6
    1604:	14b8010d 	ldrtne	r0, [r8], #269	; 0x10d
    1608:	14de0000 	ldrbne	r0, [lr], #0
    160c:	10740000 	rsbsne	r0, r4, r0
    1610:	01a80000 			; <UNDEFINED> instruction: 0x01a80000
    1614:	0a090000 	beq	24161c <_etext+0x23fb90>
    1618:	01000006 	tsteq	r0, r6
    161c:	0001530d 	andeq	r5, r1, sp, lsl #6
    1620:	74910200 	ldrvc	r0, [r1], #512	; 0x200
    1624:	736f700b 	cmnvc	pc, #11
    1628:	8c0d0100 	stfhis	f0, [sp], {-0}
    162c:	02000000 	andeq	r0, r0, #0
    1630:	08007091 	stmdaeq	r0, {r0, r4, r7, ip, sp, lr}
    1634:	00066c01 	andeq	r6, r6, r1, lsl #24
    1638:	01120100 	tsteq	r2, r0, lsl #2
    163c:	000014e0 	andeq	r1, r0, r0, ror #9
    1640:	00001508 	andeq	r1, r0, r8, lsl #10
    1644:	000010d0 	ldrdeq	r1, [r0], -r0
    1648:	000001de 	ldrdeq	r0, [r0], -lr
    164c:	00060a09 	andeq	r0, r6, r9, lsl #20
    1650:	53120100 	tstpl	r2, #0, 2
    1654:	02000001 	andeq	r0, r0, #1
    1658:	700b7491 	mulvc	fp, r1, r4
    165c:	0100736f 	tsteq	r0, pc, ror #6
    1660:	00008c12 	andeq	r8, r0, r2, lsl ip
    1664:	70910200 	addsvc	r0, r1, r0, lsl #4
    1668:	a6010c00 	strge	r0, [r1], -r0, lsl #24
    166c:	01000006 	tsteq	r0, r6
    1670:	008c0117 	addeq	r0, ip, r7, lsl r1
    1674:	15080000 	strne	r0, [r8, #-0]
    1678:	15980000 	ldrne	r0, [r8]
    167c:	112c0000 			; <UNDEFINED> instruction: 0x112c0000
    1680:	02290000 	eoreq	r0, r9, #0
    1684:	0a090000 	beq	24168c <_etext+0x23fc00>
    1688:	01000006 	tsteq	r0, r6
    168c:	00015317 	andeq	r5, r1, r7, lsl r3
    1690:	6c910200 	lfmvs	f0, 4, [r1], {0}
    1694:	736f700d 	cmnvc	pc, #13
    1698:	8c190100 	ldfhis	f0, [r9], {-0}
    169c:	02000000 	andeq	r0, r0, #0
    16a0:	4b0e7491 	blmi	39e8ec <_etext+0x39ce60>
    16a4:	01000006 	tsteq	r0, r6
    16a8:	0002401a 	andeq	r4, r2, sl, lsl r0
    16ac:	8c030500 	cfstr32hi	mvfx0, [r3], {-0}
    16b0:	00000019 	andeq	r0, r0, r9, lsl r0
    16b4:	0000810f 	andeq	r8, r0, pc, lsl #2
    16b8:	00023900 	andeq	r3, r2, r0, lsl #18
    16bc:	02391000 	eorseq	r1, r9, #0
    16c0:	00ff0000 	rscseq	r0, pc, r0
    16c4:	fd070402 	stc2	4, cr0, [r7, #-8]
    16c8:	11000000 	mrsne	r0, (UNDEF: 0)
    16cc:	00000229 	andeq	r0, r0, r9, lsr #4
    16d0:	06ea0108 	strbteq	r0, [sl], r8, lsl #2
    16d4:	3d010000 	stccc	0, cr0, [r1, #-0]
    16d8:	00159801 	andseq	r9, r5, r1, lsl #16
    16dc:	0015bc00 	andseq	fp, r5, r0, lsl #24
    16e0:	00117c00 	andseq	r7, r1, r0, lsl #24
    16e4:	00026d00 	andeq	r6, r2, r0, lsl #26
    16e8:	04e80900 	strbteq	r0, [r8], #2304	; 0x900
    16ec:	3d010000 	stccc	0, cr0, [r1, #-0]
    16f0:	0000026d 	andeq	r0, r0, sp, ror #4
    16f4:	00749102 	rsbseq	r9, r4, r2, lsl #2
    16f8:	00ec0407 	rsceq	r0, ip, r7, lsl #8
    16fc:	01080000 	mrseq	r0, (UNDEF: 8)
    1700:	00000694 	muleq	r0, r4, r6
    1704:	bc014501 	cfstr32lt	mvfx4, [r1], {1}
    1708:	de000015 	mcrle	0, 0, r0, cr0, cr5, {0}
    170c:	d8000015 	stmdale	r0, {r0, r2, r4}
    1710:	9b000011 	blls	175c <list_insert_head+0x3c>
    1714:	09000002 	stmdbeq	r0, {r1}
    1718:	0000032c 	andeq	r0, r0, ip, lsr #6
    171c:	029b4501 	addseq	r4, fp, #4194304	; 0x400000
    1720:	91020000 	mrsls	r0, (UNDEF: 2)
    1724:	04070074 	streq	r0, [r7], #-116	; 0xffffff8c
    1728:	00000120 	andeq	r0, r0, r0, lsr #2
    172c:	0745010c 	strbeq	r0, [r5, -ip, lsl #2]
    1730:	4e010000 	cdpmi	0, 0, cr0, cr1, cr0, {0}
    1734:	00008c01 	andeq	r8, r0, r1, lsl #24
    1738:	0015e000 	andseq	lr, r5, r0
    173c:	00160600 	andseq	r0, r6, r0, lsl #12
    1740:	00122800 	andseq	r2, r2, r0, lsl #16
    1744:	0002db00 	andeq	sp, r2, r0, lsl #22
    1748:	032c0900 			; <UNDEFINED> instruction: 0x032c0900
    174c:	4e010000 	cdpmi	0, 0, cr0, cr1, cr0, {0}
    1750:	0000029b 	muleq	r0, fp, r2
    1754:	0d6c9102 	stfeqp	f1, [ip, #-8]!
    1758:	00746572 	rsbseq	r6, r4, r2, ror r5
    175c:	008c5001 	addeq	r5, ip, r1
    1760:	91020000 	mrsls	r0, (UNDEF: 2)
    1764:	010c0074 	tsteq	ip, r4, ror r0
    1768:	00000641 	andeq	r0, r0, r1, asr #12
    176c:	6d015701 	stcvs	7, cr5, [r1, #-4]
    1770:	08000002 	stmdaeq	r0, {r1}
    1774:	34000016 	strcc	r0, [r0], #-22	; 0xffffffea
    1778:	84000016 	strhi	r0, [r0], #-22	; 0xffffffea
    177c:	23000012 	movwcs	r0, #18
    1780:	09000003 	stmdbeq	r0, {r0, r1}
    1784:	0000032c 	andeq	r0, r0, ip, lsr #6
    1788:	029b5701 	addseq	r5, fp, #262144	; 0x40000
    178c:	91020000 	mrsls	r0, (UNDEF: 2)
    1790:	071c0e6c 	ldreq	r0, [ip, -ip, ror #28]
    1794:	59010000 	stmdbpl	r1, {}	; <UNPREDICTABLE>
    1798:	0000026d 	andeq	r0, r0, sp, ror #4
    179c:	0d709102 	ldfeqp	f1, [r0, #-8]!
    17a0:	00746572 	rsbseq	r6, r4, r2, ror r5
    17a4:	026d5a01 	rsbeq	r5, sp, #4096	; 0x1000
    17a8:	91020000 	mrsls	r0, (UNDEF: 2)
    17ac:	010c0074 	tsteq	ip, r4, ror r0
    17b0:	00000706 	andeq	r0, r0, r6, lsl #14
    17b4:	6d016101 	stfvss	f6, [r1, #-4]
    17b8:	34000002 	strcc	r0, [r0], #-2
    17bc:	60000016 	andvs	r0, r0, r6, lsl r0
    17c0:	e0000016 	and	r0, r0, r6, lsl r0
    17c4:	6b000012 	blvs	1814 <list_remove_first+0x4c>
    17c8:	09000003 	stmdbeq	r0, {r0, r1}
    17cc:	0000032c 	andeq	r0, r0, ip, lsr #6
    17d0:	029b6101 	addseq	r6, fp, #1073741824	; 0x40000000
    17d4:	91020000 	mrsls	r0, (UNDEF: 2)
    17d8:	071c0e6c 	ldreq	r0, [ip, -ip, ror #28]
    17dc:	63010000 	movwvs	r0, #4096	; 0x1000
    17e0:	0000026d 	andeq	r0, r0, sp, ror #4
    17e4:	0d709102 	ldfeqp	f1, [r0, #-8]!
    17e8:	00746572 	rsbseq	r6, r4, r2, ror r5
    17ec:	026d6401 	rsbeq	r6, sp, #16777216	; 0x1000000
    17f0:	91020000 	mrsls	r0, (UNDEF: 2)
    17f4:	010c0074 	tsteq	ip, r4, ror r0
    17f8:	00000731 	andeq	r0, r0, r1, lsr r7
    17fc:	6d016b01 	vstrvs	d6, [r1, #-4]
    1800:	60000002 	andvs	r0, r0, r2
    1804:	86000016 			; <UNDEFINED> instruction: 0x86000016
    1808:	3c000016 	stccc	0, cr0, [r0], {22}
    180c:	a5000013 	strge	r0, [r0, #-19]	; 0xffffffed
    1810:	09000003 	stmdbeq	r0, {r0, r1}
    1814:	00000232 	andeq	r0, r0, r2, lsr r2
    1818:	026d6b01 	rsbeq	r6, sp, #1024	; 0x400
    181c:	91020000 	mrsls	r0, (UNDEF: 2)
    1820:	65720d6c 	ldrbvs	r0, [r2, #-3436]!	; 0xfffff294
    1824:	6d010074 	stcvs	0, cr0, [r1, #-464]	; 0xfffffe30
    1828:	0000026d 	andeq	r0, r0, sp, ror #4
    182c:	00749102 	rsbseq	r9, r4, r2, lsl #2
    1830:	073b010c 	ldreq	r0, [fp, -ip, lsl #2]!
    1834:	74010000 	strvc	r0, [r1], #-0
    1838:	00026d01 	andeq	r6, r2, r1, lsl #26
    183c:	00168800 	andseq	r8, r6, r0, lsl #16
    1840:	0016ae00 	andseq	sl, r6, r0, lsl #28
    1844:	00139800 	andseq	r9, r3, r0, lsl #16
    1848:	0003df00 	andeq	sp, r3, r0, lsl #30
    184c:	02320900 	eorseq	r0, r2, #0, 18
    1850:	74010000 	strvc	r0, [r1], #-0
    1854:	0000026d 	andeq	r0, r0, sp, ror #4
    1858:	0d6c9102 	stfeqp	f1, [ip, #-8]!
    185c:	00746572 	rsbseq	r6, r4, r2, ror r5
    1860:	026d7601 	rsbeq	r7, sp, #1048576	; 0x100000
    1864:	91020000 	mrsls	r0, (UNDEF: 2)
    1868:	01080074 	tsteq	r8, r4, ror r0
    186c:	00000721 	andeq	r0, r0, r1, lsr #14
    1870:	b0017d01 	andlt	r7, r1, r1, lsl #26
    1874:	1e000016 	mcrne	0, 0, r0, cr0, cr6, {0}
    1878:	f4000017 	vst4.8	{d0-d3}, [r0 :64], r7
    187c:	4a000013 	bmi	18d0 <list_remove+0xa0>
    1880:	09000004 	stmdbeq	r0, {r2}
    1884:	0000032c 	andeq	r0, r0, ip, lsr #6
    1888:	029b7d01 	addseq	r7, fp, #1, 26	; 0x40
    188c:	91020000 	mrsls	r0, (UNDEF: 2)
    1890:	04830e64 	streq	r0, [r3], #3684	; 0xe64
    1894:	7f010000 	svcvc	0x00010000
    1898:	0000008c 	andeq	r0, r0, ip, lsl #1
    189c:	0e749102 	expeqs	f1, f2
    18a0:	0000071c 	andeq	r0, r0, ip, lsl r7
    18a4:	026d8001 	rsbeq	r8, sp, #1
    18a8:	91020000 	mrsls	r0, (UNDEF: 2)
    18ac:	06620e6c 	strbteq	r0, [r2], -ip, ror #28
    18b0:	81010000 	mrshi	r0, (UNDEF: 1)
    18b4:	0000026d 	andeq	r0, r0, sp, ror #4
    18b8:	0e709102 	expeqs	f1, f2
    18bc:	0000068b 	andeq	r0, r0, fp, lsl #13
    18c0:	026d8201 	rsbeq	r8, sp, #268435456	; 0x10000000
    18c4:	91020000 	mrsls	r0, (UNDEF: 2)
    18c8:	069e1268 	ldreq	r1, [lr], r8, ror #4
    18cc:	93010000 	movwls	r0, #4096	; 0x1000
    18d0:	00001712 	andeq	r1, r0, r2, lsl r7
    18d4:	10010800 	andne	r0, r1, r0, lsl #16
    18d8:	01000007 	tsteq	r0, r7
    18dc:	17200198 			; <UNDEFINED> instruction: 0x17200198
    18e0:	17720000 	ldrbne	r0, [r2, -r0]!
    18e4:	14500000 	ldrbne	r0, [r0], #-0
    18e8:	04a70000 	strteq	r0, [r7], #0
    18ec:	2c090000 	stccs	0, cr0, [r9], {-0}
    18f0:	01000003 	tsteq	r0, r3
    18f4:	00029b98 	muleq	r2, r8, fp
    18f8:	6c910200 	lfmvs	f0, 4, [r1], {0}
    18fc:	00023209 	andeq	r3, r2, r9, lsl #4
    1900:	6d980100 	ldfvss	f0, [r8]
    1904:	02000002 	andeq	r0, r0, #2
    1908:	1c0e6891 	stcne	8, cr6, [lr], {145}	; 0x91
    190c:	01000007 	tsteq	r0, r7
    1910:	00026d9a 	muleq	r2, sl, sp
    1914:	74910200 	ldrvc	r0, [r1], #512	; 0x200
    1918:	0007400e 	andeq	r4, r7, lr
    191c:	6d9b0100 	ldfvss	f0, [fp]
    1920:	02000002 	andeq	r0, r0, #2
    1924:	9e127091 	mrcls	0, 0, r7, cr2, cr1, {4}
    1928:	01000006 	tsteq	r0, r6
    192c:	001766a8 	andseq	r6, r7, r8, lsr #13
    1930:	01080000 	mrseq	r0, (UNDEF: 8)
    1934:	000006c7 	andeq	r0, r0, r7, asr #13
    1938:	7401ac01 	strvc	sl, [r1], #-3073	; 0xfffff3ff
    193c:	c6000017 			; <UNDEFINED> instruction: 0xc6000017
    1940:	ac000017 	stcge	0, cr0, [r0], {23}
    1944:	04000014 	streq	r0, [r0], #-20	; 0xffffffec
    1948:	09000005 	stmdbeq	r0, {r0, r2}
    194c:	0000032c 	andeq	r0, r0, ip, lsr #6
    1950:	029bac01 	addseq	sl, fp, #256	; 0x100
    1954:	91020000 	mrsls	r0, (UNDEF: 2)
    1958:	0232096c 	eorseq	r0, r2, #108, 18	; 0x1b0000
    195c:	ac010000 	stcge	0, cr0, [r1], {-0}
    1960:	0000026d 	andeq	r0, r0, sp, ror #4
    1964:	0e689102 	lgneqe	f1, f2
    1968:	0000071c 	andeq	r0, r0, ip, lsl r7
    196c:	026dae01 	rsbeq	sl, sp, #1, 28
    1970:	91020000 	mrsls	r0, (UNDEF: 2)
    1974:	07400e74 	smlsldxeq	r0, r0, r4, lr	; <UNPREDICTABLE>
    1978:	af010000 	svcge	0x00010000
    197c:	0000026d 	andeq	r0, r0, sp, ror #4
    1980:	12709102 	rsbsne	r9, r0, #-2147483648	; 0x80000000
    1984:	0000069e 	muleq	r0, lr, r6
    1988:	17babc01 	ldrne	fp, [sl, r1, lsl #24]!
    198c:	0c000000 	stceq	0, cr0, [r0], {-0}
    1990:	0006d801 	andeq	sp, r6, r1, lsl #16
    1994:	01c00100 	biceq	r0, r0, r0, lsl #2
    1998:	0000026d 	andeq	r0, r0, sp, ror #4
    199c:	000017c8 	andeq	r1, r0, r8, asr #15
    19a0:	0000182e 	andeq	r1, r0, lr, lsr #16
    19a4:	00001508 	andeq	r1, r0, r8, lsl #10
    19a8:	00000565 	andeq	r0, r0, r5, ror #10
    19ac:	00032c09 	andeq	r2, r3, r9, lsl #24
    19b0:	9bc00100 	blls	ff001db8 <_stack_top+0xdeff5db8>
    19b4:	02000002 	andeq	r0, r0, #2
    19b8:	1c0e6491 	cfstrsne	mvf6, [lr], {145}	; 0x91
    19bc:	01000007 	tsteq	r0, r7
    19c0:	00026dc2 	andeq	r6, r2, r2, asr #27
    19c4:	70910200 	addsvc	r0, r1, r0, lsl #4
    19c8:	0007400e 	andeq	r4, r7, lr
    19cc:	6dc30100 	stfvse	f0, [r3]
    19d0:	02000002 	andeq	r0, r0, #2
    19d4:	720d6c91 	andvc	r6, sp, #37120	; 0x9100
    19d8:	01007465 	tsteq	r0, r5, ror #8
    19dc:	00026dc4 	andeq	r6, r2, r4, asr #27
    19e0:	74910200 	ldrvc	r0, [r1], #512	; 0x200
    19e4:	00069e12 	andeq	r9, r6, r2, lsl lr
    19e8:	20d60100 	sbcscs	r0, r6, r0, lsl #2
    19ec:	00000018 	andeq	r0, r0, r8, lsl r0
    19f0:	06790113 			; <UNDEFINED> instruction: 0x06790113
    19f4:	da010000 	ble	419fc <_etext+0x3ff70>
    19f8:	00183001 	andseq	r3, r8, r1
    19fc:	00188a00 	andseq	r8, r8, r0, lsl #20
    1a00:	00156400 	andseq	r6, r5, r0, lsl #8
    1a04:	032c0900 			; <UNDEFINED> instruction: 0x032c0900
    1a08:	da010000 	ble	41a10 <_etext+0x3ff84>
    1a0c:	0000029b 	muleq	r0, fp, r2
    1a10:	096c9102 	stmdbeq	ip!, {r1, r8, ip, pc}^
    1a14:	000004e8 	andeq	r0, r0, r8, ror #9
    1a18:	026dda01 	rsbeq	sp, sp, #4096	; 0x1000
    1a1c:	91020000 	mrsls	r0, (UNDEF: 2)
    1a20:	07400e68 	strbeq	r0, [r0, -r8, ror #28]
    1a24:	dc010000 	stcle	0, cr0, [r1], {-0}
    1a28:	0000026d 	andeq	r0, r0, sp, ror #4
    1a2c:	0e749102 	expeqs	f1, f2
    1a30:	00000736 	andeq	r0, r0, r6, lsr r7
    1a34:	026ddd01 	rsbeq	sp, sp, #1, 26	; 0x40
    1a38:	91020000 	mrsls	r0, (UNDEF: 2)
    1a3c:	069e1270 			; <UNDEFINED> instruction: 0x069e1270
    1a40:	ed010000 	stc	0, cr0, [r1, #-0]
    1a44:	00001882 	andeq	r1, r0, r2, lsl #17
	...

Disassembly of section .debug_abbrev:

00000000 <.debug_abbrev>:
   0:	25011101 	strcs	r1, [r1, #-257]	; 0xfffffeff
   4:	030b130e 	movweq	r1, #45838	; 0xb30e
   8:	110e1b0e 	tstne	lr, lr, lsl #22
   c:	10011201 	andne	r1, r1, r1, lsl #4
  10:	02000006 	andeq	r0, r0, #6
  14:	0b0b0024 	bleq	2c00ac <_etext+0x2be620>
  18:	0e030b3e 	vmoveq.16	d3[0], r0
  1c:	24030000 	strcs	r0, [r3], #-0
  20:	3e0b0b00 	vmlacc.f64	d0, d11, d0
  24:	0008030b 	andeq	r0, r8, fp, lsl #6
  28:	002e0400 	eoreq	r0, lr, r0, lsl #8
  2c:	0b3a0e03 	bleq	e83840 <_etext+0xe81db4>
  30:	0c270b3b 	stceq	11, cr0, [r7], #-236	; 0xffffff14
  34:	01120111 	tsteq	r2, r1, lsl r1
  38:	00000640 	andeq	r0, r0, r0, asr #12
  3c:	49010105 	stmdbmi	r1, {r0, r2, r8}
  40:	00130113 	andseq	r0, r3, r3, lsl r1
  44:	00210600 	eoreq	r0, r1, r0, lsl #12
  48:	0b2f1349 	bleq	bc4d74 <_etext+0xbc32e8>
  4c:	0f070000 	svceq	0x00070000
  50:	490b0b00 	stmdbmi	fp, {r8, r9, fp}
  54:	08000013 	stmdaeq	r0, {r0, r1, r4}
  58:	0c270015 	stceq	0, cr0, [r7], #-84	; 0xffffffac
  5c:	34090000 	strcc	r0, [r9], #-0
  60:	3a0e0300 	bcc	380c68 <_etext+0x37f1dc>
  64:	490b3b0b 	stmdbmi	fp, {r0, r1, r3, r8, r9, fp, ip, sp}
  68:	020c3f13 	andeq	r3, ip, #19, 30	; 0x4c
  6c:	0000000a 	andeq	r0, r0, sl
  70:	25011101 	strcs	r1, [r1, #-257]	; 0xfffffeff
  74:	030b130e 	movweq	r1, #45838	; 0xb30e
  78:	110e1b0e 	tstne	lr, lr, lsl #22
  7c:	10011201 	andne	r1, r1, r1, lsl #4
  80:	02000006 	andeq	r0, r0, #6
  84:	0b0b0024 	bleq	2c011c <_etext+0x2be690>
  88:	0e030b3e 	vmoveq.16	d3[0], r0
  8c:	16030000 	strne	r0, [r3], -r0
  90:	3a0e0300 	bcc	380c98 <_etext+0x37f20c>
  94:	490b3b0b 	stmdbmi	fp, {r0, r1, r3, r8, r9, fp, ip, sp}
  98:	04000013 	streq	r0, [r0], #-19	; 0xffffffed
  9c:	0b0b0024 	bleq	2c0134 <_etext+0x2be6a8>
  a0:	08030b3e 	stmdaeq	r3, {r1, r2, r3, r4, r5, r8, r9, fp}
  a4:	13050000 	movwne	r0, #20480	; 0x5000
  a8:	0b0e0301 	bleq	380cb4 <_etext+0x37f228>
  ac:	3b0b3a0b 	blcc	2ce8e0 <_etext+0x2cce54>
  b0:	0013010b 	andseq	r0, r3, fp, lsl #2
  b4:	000d0600 	andeq	r0, sp, r0, lsl #12
  b8:	0b3a0e03 	bleq	e838cc <_etext+0xe81e40>
  bc:	13490b3b 	movtne	r0, #39739	; 0x9b3b
  c0:	00000a38 	andeq	r0, r0, r8, lsr sl
  c4:	0b000f07 	bleq	3ce8 <_etext+0x225c>
  c8:	0013490b 	andseq	r4, r3, fp, lsl #18
  cc:	012e0800 			; <UNDEFINED> instruction: 0x012e0800
  d0:	0b3a0e03 	bleq	e838e4 <_etext+0xe81e58>
  d4:	0c270b3b 	stceq	11, cr0, [r7], #-236	; 0xffffff14
  d8:	01120111 	tsteq	r2, r1, lsl r1
  dc:	13010640 	movwne	r0, #5696	; 0x1640
  e0:	34090000 	strcc	r0, [r9], #-0
  e4:	3a0e0300 	bcc	380cec <_etext+0x37f260>
  e8:	490b3b0b 	stmdbmi	fp, {r0, r1, r3, r8, r9, fp, ip, sp}
  ec:	000a0213 	andeq	r0, sl, r3, lsl r2
  f0:	012e0a00 			; <UNDEFINED> instruction: 0x012e0a00
  f4:	0e030c3f 	mcreq	12, 0, r0, cr3, cr15, {1}
  f8:	0b3b0b3a 	bleq	ec2de8 <_etext+0xec135c>
  fc:	01110c27 	tsteq	r1, r7, lsr #24
 100:	06400112 			; <UNDEFINED> instruction: 0x06400112
 104:	00001301 	andeq	r1, r0, r1, lsl #6
 108:	0300050b 	movweq	r0, #1291	; 0x50b
 10c:	3b0b3a0e 	blcc	2ce94c <_etext+0x2ccec0>
 110:	0213490b 	andseq	r4, r3, #180224	; 0x2c000
 114:	0c00000a 	stceq	0, cr0, [r0], {10}
 118:	0e030034 	mcreq	0, 0, r0, cr3, cr4, {1}
 11c:	0c341349 	ldceq	3, cr1, [r4], #-292	; 0xfffffedc
 120:	00000a02 	andeq	r0, r0, r2, lsl #20
 124:	0b000f0d 	bleq	3d60 <_etext+0x22d4>
 128:	0e00000b 	cdpeq	0, 0, cr0, cr0, cr11, {0}
 12c:	13490101 	movtne	r0, #37121	; 0x9101
 130:	00001301 	andeq	r1, r0, r1, lsl #6
 134:	4900210f 	stmdbmi	r0, {r0, r1, r2, r3, r8, sp}
 138:	000b2f13 	andeq	r2, fp, r3, lsl pc
 13c:	00261000 	eoreq	r1, r6, r0
 140:	00001349 	andeq	r1, r0, r9, asr #6
 144:	3f002e11 	svccc	0x00002e11
 148:	3a0e030c 	bcc	380d80 <_etext+0x37f2f4>
 14c:	490b3b0b 	stmdbmi	fp, {r0, r1, r3, r8, r9, fp, ip, sp}
 150:	12011113 	andne	r1, r1, #-1073741820	; 0xc0000004
 154:	00064001 	andeq	r4, r6, r1
 158:	00341200 	eorseq	r1, r4, r0, lsl #4
 15c:	0b3a0e03 	bleq	e83970 <_etext+0xe81ee4>
 160:	13490b3b 	movtne	r0, #39739	; 0x9b3b
 164:	0c3c0c3f 	ldceq	12, cr0, [ip], #-252	; 0xffffff04
 168:	34130000 	ldrcc	r0, [r3], #-0
 16c:	3a0e0300 	bcc	380d74 <_etext+0x37f2e8>
 170:	490b3b0b 	stmdbmi	fp, {r0, r1, r3, r8, r9, fp, ip, sp}
 174:	020c3f13 	andeq	r3, ip, #19, 30	; 0x4c
 178:	1400000a 	strne	r0, [r0], #-10
 17c:	13490021 	movtne	r0, #36897	; 0x9021
 180:	0000052f 	andeq	r0, r0, pc, lsr #10
 184:	01110100 	tsteq	r1, r0, lsl #2
 188:	0b130e25 	bleq	4c3a24 <_etext+0x4c1f98>
 18c:	0e1b0e03 	cdpeq	14, 1, cr0, cr11, cr3, {0}
 190:	01120111 	tsteq	r2, r1, lsl r1
 194:	00000610 	andeq	r0, r0, r0, lsl r6
 198:	0b002402 	bleq	91a8 <_etext+0x771c>
 19c:	030b3e0b 	movweq	r3, #48651	; 0xbe0b
 1a0:	0300000e 	movweq	r0, #14
 1a4:	0e030016 	mcreq	0, 0, r0, cr3, cr6, {0}
 1a8:	0b3b0b3a 	bleq	ec2e98 <_etext+0xec140c>
 1ac:	00001349 	andeq	r1, r0, r9, asr #6
 1b0:	0b002404 	bleq	91c8 <_etext+0x773c>
 1b4:	030b3e0b 	movweq	r3, #48651	; 0xbe0b
 1b8:	05000008 	streq	r0, [r0, #-8]
 1bc:	0e030113 	mcreq	1, 0, r0, cr3, cr3, {0}
 1c0:	0b3a0b0b 	bleq	e82df4 <_etext+0xe81368>
 1c4:	13010b3b 	movwne	r0, #6971	; 0x1b3b
 1c8:	0d060000 	stceq	0, cr0, [r6, #-0]
 1cc:	3a0e0300 	bcc	380dd4 <_etext+0x37f348>
 1d0:	490b3b0b 	stmdbmi	fp, {r0, r1, r3, r8, r9, fp, ip, sp}
 1d4:	000a3813 	andeq	r3, sl, r3, lsl r8
 1d8:	000d0700 	andeq	r0, sp, r0, lsl #14
 1dc:	0b3a0803 	bleq	e821f0 <_etext+0xe80764>
 1e0:	13490b3b 	movtne	r0, #39739	; 0x9b3b
 1e4:	00000a38 	andeq	r0, r0, r8, lsr sl
 1e8:	49003508 	stmdbmi	r0, {r3, r8, sl, ip, sp}
 1ec:	09000013 	stmdbeq	r0, {r0, r1, r4}
 1f0:	0c3f012e 	ldfeqs	f0, [pc], #-184	; 140 <_text+0x140>
 1f4:	0b3a0e03 	bleq	e83a08 <_etext+0xe81f7c>
 1f8:	0c270b3b 	stceq	11, cr0, [r7], #-236	; 0xffffff14
 1fc:	01120111 	tsteq	r2, r1, lsl r1
 200:	13010640 	movwne	r0, #5696	; 0x1640
 204:	050a0000 	streq	r0, [sl, #-0]
 208:	3a080300 	bcc	200e10 <_etext+0x1ff384>
 20c:	490b3b0b 	stmdbmi	fp, {r0, r1, r3, r8, r9, fp, ip, sp}
 210:	000a0213 	andeq	r0, sl, r3, lsl r2
 214:	00340b00 	eorseq	r0, r4, r0, lsl #22
 218:	0b3a0e03 	bleq	e83a2c <_etext+0xe81fa0>
 21c:	13490b3b 	movtne	r0, #39739	; 0x9b3b
 220:	00000a02 	andeq	r0, r0, r2, lsl #20
 224:	0b000f0c 	bleq	3e5c <_etext+0x23d0>
 228:	0013490b 	andseq	r4, r3, fp, lsl #18
 22c:	002e0d00 	eoreq	r0, lr, r0, lsl #26
 230:	0e030c3f 	mcreq	12, 0, r0, cr3, cr15, {1}
 234:	0b3b0b3a 	bleq	ec2f24 <_etext+0xec1498>
 238:	01110c27 	tsteq	r1, r7, lsr #24
 23c:	06400112 			; <UNDEFINED> instruction: 0x06400112
 240:	01000000 	mrseq	r0, (UNDEF: 0)
 244:	0e250111 	mcreq	1, 1, r0, cr5, cr1, {0}
 248:	0e030b13 	vmoveq.32	d3[0], r0
 24c:	01110e1b 	tsteq	r1, fp, lsl lr
 250:	06100112 			; <UNDEFINED> instruction: 0x06100112
 254:	16020000 	strne	r0, [r2], -r0
 258:	3a0e0300 	bcc	380e60 <_etext+0x37f3d4>
 25c:	490b3b0b 	stmdbmi	fp, {r0, r1, r3, r8, r9, fp, ip, sp}
 260:	03000013 	movweq	r0, #19
 264:	0e030113 	mcreq	1, 0, r0, cr3, cr3, {0}
 268:	0b3a0b0b 	bleq	e82e9c <_etext+0xe81410>
 26c:	13010b3b 	movwne	r0, #6971	; 0x1b3b
 270:	0d040000 	stceq	0, cr0, [r4, #-0]
 274:	490e0300 	stmdbmi	lr, {r8, r9}
 278:	340a3813 	strcc	r3, [sl], #-2067	; 0xfffff7ed
 27c:	0500000c 	streq	r0, [r0, #-12]
 280:	0b0b000f 	bleq	2c02c4 <_etext+0x2be838>
 284:	24060000 	strcs	r0, [r6], #-0
 288:	3e0b0b00 	vmlacc.f64	d0, d11, d0
 28c:	000e030b 	andeq	r0, lr, fp, lsl #6
 290:	00240700 	eoreq	r0, r4, r0, lsl #14
 294:	0b3e0b0b 	bleq	f82ec8 <_etext+0xf8143c>
 298:	00000803 	andeq	r0, r0, r3, lsl #16
 29c:	3f012e08 	svccc	0x00012e08
 2a0:	3a0e030c 	bcc	380ed8 <_etext+0x37f44c>
 2a4:	270b3b0b 	strcs	r3, [fp, -fp, lsl #22]
 2a8:	1113490c 	tstne	r3, ip, lsl #18
 2ac:	40011201 	andmi	r1, r1, r1, lsl #4
 2b0:	00130106 	andseq	r0, r3, r6, lsl #2
 2b4:	00050900 	andeq	r0, r5, r0, lsl #18
 2b8:	0b3a0803 	bleq	e822cc <_etext+0xe80840>
 2bc:	13490b3b 	movtne	r0, #39739	; 0x9b3b
 2c0:	00000a02 	andeq	r0, r0, r2, lsl #20
 2c4:	0b000f0a 	bleq	3ef4 <_etext+0x2468>
 2c8:	0013490b 	andseq	r4, r3, fp, lsl #18
 2cc:	00340b00 	eorseq	r0, r4, r0, lsl #22
 2d0:	0b3a0803 	bleq	e822e4 <_etext+0xe80858>
 2d4:	13490b3b 	movtne	r0, #39739	; 0x9b3b
 2d8:	00000a02 	andeq	r0, r0, r2, lsl #20
 2dc:	0300050c 	movweq	r0, #1292	; 0x50c
 2e0:	3b0b3a0e 	blcc	2ceb20 <_etext+0x2cd094>
 2e4:	0213490b 	andseq	r4, r3, #180224	; 0x2c000
 2e8:	0d00000a 	stceq	0, cr0, [r0, #-40]	; 0xffffffd8
 2ec:	0e030034 	mcreq	0, 0, r0, cr3, cr4, {1}
 2f0:	0b3b0b3a 	bleq	ec2fe0 <_etext+0xec1554>
 2f4:	0a021349 	beq	85020 <_etext+0x83594>
 2f8:	2e0e0000 	cdpcs	0, 0, cr0, cr14, cr0, {0}
 2fc:	030c3f01 	movweq	r3, #52993	; 0xcf01
 300:	3b0b3a0e 	blcc	2ceb40 <_etext+0x2cd0b4>
 304:	110c270b 	tstne	ip, fp, lsl #14
 308:	40011201 	andmi	r1, r1, r1, lsl #4
 30c:	00130106 	andseq	r0, r3, r6, lsl #2
 310:	00180f00 	andseq	r0, r8, r0, lsl #30
 314:	26100000 	ldrcs	r0, [r0], -r0
 318:	00134900 	andseq	r4, r3, r0, lsl #18
 31c:	012e1100 			; <UNDEFINED> instruction: 0x012e1100
 320:	0e030c3f 	mcreq	12, 0, r0, cr3, cr15, {1}
 324:	053b0b3a 	ldreq	r0, [fp, #-2874]!	; 0xfffff4c6
 328:	13490c27 	movtne	r0, #39975	; 0x9c27
 32c:	01120111 	tsteq	r2, r1, lsl r1
 330:	13010640 	movwne	r0, #5696	; 0x1640
 334:	05120000 	ldreq	r0, [r2, #-0]
 338:	3a080300 	bcc	200f40 <_etext+0x1ff4b4>
 33c:	49053b0b 	stmdbmi	r5, {r0, r1, r3, r8, r9, fp, ip, sp}
 340:	000a0213 	andeq	r0, sl, r3, lsl r2
 344:	00341300 	eorseq	r1, r4, r0, lsl #6
 348:	0b3a0e03 	bleq	e83b5c <_etext+0xe820d0>
 34c:	1349053b 	movtne	r0, #38203	; 0x953b
 350:	00000a02 	andeq	r0, r0, r2, lsl #20
 354:	03003414 	movweq	r3, #1044	; 0x414
 358:	3b0b3a08 	blcc	2ceb80 <_etext+0x2cd0f4>
 35c:	02134905 	andseq	r4, r3, #81920	; 0x14000
 360:	1500000a 	strne	r0, [r0, #-10]
 364:	00000026 	andeq	r0, r0, r6, lsr #32
 368:	03000516 	movweq	r0, #1302	; 0x516
 36c:	3b0b3a0e 	blcc	2cebac <_etext+0x2cd120>
 370:	02134905 	andseq	r4, r3, #81920	; 0x14000
 374:	1700000a 	strne	r0, [r0, -sl]
 378:	0e030034 	mcreq	0, 0, r0, cr3, cr4, {1}
 37c:	0b3b0b3a 	bleq	ec306c <_etext+0xec15e0>
 380:	0c3f1349 	ldceq	3, cr1, [pc], #-292	; 264 <_text+0x264>
 384:	00000a02 	andeq	r0, r0, r2, lsl #20
 388:	49003518 	stmdbmi	r0, {r3, r4, r8, sl, ip, sp}
 38c:	19000013 	stmdbne	r0, {r0, r1, r4}
 390:	13490101 	movtne	r0, #37121	; 0x9101
 394:	00001301 	andeq	r1, r0, r1, lsl #6
 398:	4900211a 	stmdbmi	r0, {r1, r3, r4, r8, sp}
 39c:	000b2f13 	andeq	r2, fp, r3, lsl pc
 3a0:	11010000 	mrsne	r0, (UNDEF: 1)
 3a4:	11061000 	mrsne	r1, (UNDEF: 6)
 3a8:	03011201 	movweq	r1, #4609	; 0x1201
 3ac:	25081b08 	strcs	r1, [r8, #-2824]	; 0xfffff4f8
 3b0:	00051308 	andeq	r1, r5, r8, lsl #6
 3b4:	11010000 	mrsne	r0, (UNDEF: 1)
 3b8:	130e2501 	movwne	r2, #58625	; 0xe501
 3bc:	1b0e030b 	blne	380ff0 <_etext+0x37f564>
 3c0:	1201110e 	andne	r1, r1, #-2147483645	; 0x80000003
 3c4:	00061001 	andeq	r1, r6, r1
 3c8:	00240200 	eoreq	r0, r4, r0, lsl #4
 3cc:	0b3e0b0b 	bleq	f83000 <_etext+0xf81574>
 3d0:	00000e03 	andeq	r0, r0, r3, lsl #28
 3d4:	03001603 	movweq	r1, #1539	; 0x603
 3d8:	3b0b3a0e 	blcc	2cec18 <_etext+0x2cd18c>
 3dc:	0013490b 	andseq	r4, r3, fp, lsl #18
 3e0:	00240400 	eoreq	r0, r4, r0, lsl #8
 3e4:	0b3e0b0b 	bleq	f83018 <_etext+0xf8158c>
 3e8:	00000803 	andeq	r0, r0, r3, lsl #16
 3ec:	03011305 	movweq	r1, #4869	; 0x1305
 3f0:	3a0b0b0e 	bcc	2c3030 <_etext+0x2c15a4>
 3f4:	010b3b0b 	tsteq	fp, fp, lsl #22
 3f8:	06000013 			; <UNDEFINED> instruction: 0x06000013
 3fc:	0e03000d 	cdpeq	0, 0, cr0, cr3, cr13, {0}
 400:	0b3b0b3a 	bleq	ec30f0 <_etext+0xec1664>
 404:	0a381349 	beq	e05130 <_etext+0xe036a4>
 408:	0f070000 	svceq	0x00070000
 40c:	490b0b00 	stmdbmi	fp, {r8, r9, fp}
 410:	08000013 	stmdaeq	r0, {r0, r1, r4}
 414:	0e03012e 	adfeqsp	f0, f3, #0.5
 418:	0b3b0b3a 	bleq	ec3108 <_etext+0xec167c>
 41c:	01110c27 	tsteq	r1, r7, lsr #24
 420:	06400112 			; <UNDEFINED> instruction: 0x06400112
 424:	00001301 	andeq	r1, r0, r1, lsl #6
 428:	03000509 	movweq	r0, #1289	; 0x509
 42c:	3b0b3a0e 	blcc	2cec6c <_etext+0x2cd1e0>
 430:	0213490b 	andseq	r4, r3, #180224	; 0x2c000
 434:	0a00000a 	beq	464 <send_char>
 438:	0b0b000f 	bleq	2c047c <_etext+0x2be9f0>
 43c:	2e0b0000 	cdpcs	0, 0, cr0, cr11, cr0, {0}
 440:	030c3f01 	movweq	r3, #52993	; 0xcf01
 444:	3b0b3a0e 	blcc	2cec84 <_etext+0x2cd1f8>
 448:	110c270b 	tstne	ip, fp, lsl #14
 44c:	40011201 	andmi	r1, r1, r1, lsl #4
 450:	00130106 	andseq	r0, r3, r6, lsl #2
 454:	00340c00 	eorseq	r0, r4, r0, lsl #24
 458:	13490e03 	movtne	r0, #40451	; 0x9e03
 45c:	0a020c34 	beq	83534 <_etext+0x81aa8>
 460:	150d0000 	strne	r0, [sp, #-0]
 464:	010c2701 	tsteq	ip, r1, lsl #14
 468:	0e000013 	mcreq	0, 0, r0, cr0, cr3, {0}
 46c:	13490005 	movtne	r0, #36869	; 0x9005
 470:	010f0000 	mrseq	r0, CPSR
 474:	01134901 	tsteq	r3, r1, lsl #18
 478:	10000013 	andne	r0, r0, r3, lsl r0
 47c:	13490021 	movtne	r0, #36897	; 0x9021
 480:	00000b2f 	andeq	r0, r0, pc, lsr #22
 484:	49002611 	stmdbmi	r0, {r0, r4, r9, sl, sp}
 488:	12000013 	andne	r0, r0, #19
 48c:	0e030034 	mcreq	0, 0, r0, cr3, cr4, {1}
 490:	0b3b0b3a 	bleq	ec3180 <_etext+0xec16f4>
 494:	0a021349 	beq	851c0 <_etext+0x83734>
 498:	0a130000 	beq	4c04a0 <_etext+0x4bea14>
 49c:	3a0e0300 	bcc	3810a4 <_etext+0x37f618>
 4a0:	110b3b0b 	tstne	fp, fp, lsl #22
 4a4:	14000001 	strne	r0, [r0], #-1
 4a8:	0c3f002e 	ldceq	0, cr0, [pc], #-184	; 3f8 <init_systick+0x8>
 4ac:	0b3a0e03 	bleq	e83cc0 <_etext+0xe82234>
 4b0:	0c270b3b 	stceq	11, cr0, [r7], #-236	; 0xffffff14
 4b4:	01120111 	tsteq	r2, r1, lsl r1
 4b8:	00000640 	andeq	r0, r0, r0, asr #12
 4bc:	03003415 	movweq	r3, #1045	; 0x415
 4c0:	3b0b3a08 	blcc	2cece8 <_etext+0x2cd25c>
 4c4:	0213490b 	andseq	r4, r3, #180224	; 0x2c000
 4c8:	1600000a 	strne	r0, [r0], -sl
 4cc:	0c3f012e 	ldfeqs	f0, [pc], #-184	; 41c <init_systick+0x2c>
 4d0:	0b3a0e03 	bleq	e83ce4 <_etext+0xe82258>
 4d4:	0c270b3b 	stceq	11, cr0, [r7], #-236	; 0xffffff14
 4d8:	01111349 	tsteq	r1, r9, asr #6
 4dc:	06400112 			; <UNDEFINED> instruction: 0x06400112
 4e0:	00001301 	andeq	r1, r0, r1, lsl #6
 4e4:	3f012e17 	svccc	0x00012e17
 4e8:	3a0e030c 	bcc	381120 <_etext+0x37f694>
 4ec:	27053b0b 	strcs	r3, [r5, -fp, lsl #22]
 4f0:	1201110c 	andne	r1, r1, #12, 2
 4f4:	01064001 	tsteq	r6, r1
 4f8:	18000013 	stmdane	r0, {r0, r1, r4}
 4fc:	0e030005 	cdpeq	0, 0, cr0, cr3, cr5, {0}
 500:	053b0b3a 	ldreq	r0, [fp, #-2874]!	; 0xfffff4c6
 504:	0a021349 	beq	85230 <_etext+0x837a4>
 508:	34190000 	ldrcc	r0, [r9], #-0
 50c:	3a0e0300 	bcc	381114 <_etext+0x37f688>
 510:	49053b0b 	stmdbmi	r5, {r0, r1, r3, r8, r9, fp, ip, sp}
 514:	000a0213 	andeq	r0, sl, r3, lsl r2
 518:	00211a00 	eoreq	r1, r1, r0, lsl #20
 51c:	052f1349 	streq	r1, [pc, #-841]!	; 1db <_text+0x1db>
 520:	341b0000 	ldrcc	r0, [fp], #-0
 524:	3a0e0300 	bcc	38112c <_etext+0x37f6a0>
 528:	490b3b0b 	stmdbmi	fp, {r0, r1, r3, r8, r9, fp, ip, sp}
 52c:	020c3f13 	andeq	r3, ip, #19, 30	; 0x4c
 530:	0000000a 	andeq	r0, r0, sl
 534:	25011101 	strcs	r1, [r1, #-257]	; 0xfffffeff
 538:	030b130e 	movweq	r1, #45838	; 0xb30e
 53c:	110e1b0e 	tstne	lr, lr, lsl #22
 540:	10011201 	andne	r1, r1, r1, lsl #4
 544:	02000006 	andeq	r0, r0, #6
 548:	0b0b0024 	bleq	2c05e0 <_etext+0x2beb54>
 54c:	0e030b3e 	vmoveq.16	d3[0], r0
 550:	16030000 	strne	r0, [r3], -r0
 554:	3a0e0300 	bcc	38115c <_etext+0x37f6d0>
 558:	490b3b0b 	stmdbmi	fp, {r0, r1, r3, r8, r9, fp, ip, sp}
 55c:	04000013 	streq	r0, [r0], #-19	; 0xffffffed
 560:	0b0b0024 	bleq	2c05f8 <_etext+0x2beb6c>
 564:	08030b3e 	stmdaeq	r3, {r1, r2, r3, r4, r5, r8, r9, fp}
 568:	13050000 	movwne	r0, #20480	; 0x5000
 56c:	0b0e0301 	bleq	381178 <_etext+0x37f6ec>
 570:	3b0b3a0b 	blcc	2ceda4 <_etext+0x2cd318>
 574:	0013010b 	andseq	r0, r3, fp, lsl #2
 578:	000d0600 	andeq	r0, sp, r0, lsl #12
 57c:	0b3a0e03 	bleq	e83d90 <_etext+0xe82304>
 580:	13490b3b 	movtne	r0, #39739	; 0x9b3b
 584:	00000a38 	andeq	r0, r0, r8, lsr sl
 588:	0b000f07 	bleq	41ac <_etext+0x2720>
 58c:	0013490b 	andseq	r4, r3, fp, lsl #18
 590:	012e0800 			; <UNDEFINED> instruction: 0x012e0800
 594:	0e030c3f 	mcreq	12, 0, r0, cr3, cr15, {1}
 598:	0b3b0b3a 	bleq	ec3288 <_etext+0xec17fc>
 59c:	01110c27 	tsteq	r1, r7, lsr #24
 5a0:	06400112 			; <UNDEFINED> instruction: 0x06400112
 5a4:	00001301 	andeq	r1, r0, r1, lsl #6
 5a8:	03000509 	movweq	r0, #1289	; 0x509
 5ac:	3b0b3a0e 	blcc	2cedec <_etext+0x2cd360>
 5b0:	0213490b 	andseq	r4, r3, #180224	; 0x2c000
 5b4:	0a00000a 	beq	5e4 <printf_hex+0x38>
 5b8:	0c3f002e 	ldceq	0, cr0, [pc], #-184	; 508 <is_hex_asc+0xc>
 5bc:	0b3a0e03 	bleq	e83dd0 <_etext+0xe82344>
 5c0:	0c270b3b 	stceq	11, cr0, [r7], #-236	; 0xffffff14
 5c4:	01111349 	tsteq	r1, r9, asr #6
 5c8:	06400112 			; <UNDEFINED> instruction: 0x06400112
 5cc:	050b0000 	streq	r0, [fp, #-0]
 5d0:	3a080300 	bcc	2011d8 <_etext+0x1ff74c>
 5d4:	490b3b0b 	stmdbmi	fp, {r0, r1, r3, r8, r9, fp, ip, sp}
 5d8:	000a0213 	andeq	r0, sl, r3, lsl r2
 5dc:	012e0c00 			; <UNDEFINED> instruction: 0x012e0c00
 5e0:	0e030c3f 	mcreq	12, 0, r0, cr3, cr15, {1}
 5e4:	0b3b0b3a 	bleq	ec32d4 <_etext+0xec1848>
 5e8:	13490c27 	movtne	r0, #39975	; 0x9c27
 5ec:	01120111 	tsteq	r2, r1, lsl r1
 5f0:	13010640 	movwne	r0, #5696	; 0x1640
 5f4:	340d0000 	strcc	r0, [sp], #-0
 5f8:	3a080300 	bcc	201200 <_etext+0x1ff774>
 5fc:	490b3b0b 	stmdbmi	fp, {r0, r1, r3, r8, r9, fp, ip, sp}
 600:	000a0213 	andeq	r0, sl, r3, lsl r2
 604:	00340e00 	eorseq	r0, r4, r0, lsl #28
 608:	0b3a0e03 	bleq	e83e1c <_etext+0xe82390>
 60c:	13490b3b 	movtne	r0, #39739	; 0x9b3b
 610:	00000a02 	andeq	r0, r0, r2, lsl #20
 614:	4901010f 	stmdbmi	r1, {r0, r1, r2, r3, r8}
 618:	00130113 	andseq	r0, r3, r3, lsl r1
 61c:	00211000 	eoreq	r1, r1, r0
 620:	0b2f1349 	bleq	bc534c <_etext+0xbc38c0>
 624:	26110000 	ldrcs	r0, [r1], -r0
 628:	00134900 	andseq	r4, r3, r0, lsl #18
 62c:	000a1200 	andeq	r1, sl, r0, lsl #4
 630:	0b3a0e03 	bleq	e83e44 <_etext+0xe823b8>
 634:	01110b3b 	tsteq	r1, fp, lsr fp
 638:	2e130000 	cdpcs	0, 1, cr0, cr3, cr0, {0}
 63c:	030c3f01 	movweq	r3, #52993	; 0xcf01
 640:	3b0b3a0e 	blcc	2cee80 <_etext+0x2cd3f4>
 644:	110c270b 	tstne	ip, fp, lsl #14
 648:	40011201 	andmi	r1, r1, r1, lsl #4
 64c:	00000006 	andeq	r0, r0, r6

Disassembly of section .debug_loc:

00000000 <.debug_loc>:
       0:	00000000 	andeq	r0, r0, r0
       4:	00000002 	andeq	r0, r0, r2
       8:	007d0002 	rsbseq	r0, sp, r2
       c:	00000002 	andeq	r0, r0, r2
      10:	00000004 	andeq	r0, r0, r4
      14:	047d0002 	ldrbteq	r0, [sp], #-2
      18:	00000004 	andeq	r0, r0, r4
      1c:	00000006 	andeq	r0, r0, r6
      20:	04770002 	ldrbteq	r0, [r7], #-2
	...
      2c:	00000008 	andeq	r0, r0, r8
      30:	0000000a 	andeq	r0, r0, sl
      34:	007d0002 	rsbseq	r0, sp, r2
      38:	0000000a 	andeq	r0, r0, sl
      3c:	0000000c 	andeq	r0, r0, ip
      40:	047d0002 	ldrbteq	r0, [sp], #-2
      44:	0000000c 	andeq	r0, r0, ip
      48:	0000000e 	andeq	r0, r0, lr
      4c:	04770002 	ldrbteq	r0, [r7], #-2
	...
      58:	00000010 	andeq	r0, r0, r0, lsl r0
      5c:	00000012 	andeq	r0, r0, r2, lsl r0
      60:	007d0002 	rsbseq	r0, sp, r2
      64:	00000012 	andeq	r0, r0, r2, lsl r0
      68:	00000014 	andeq	r0, r0, r4, lsl r0
      6c:	087d0002 	ldmdaeq	sp!, {r1}^
      70:	00000014 	andeq	r0, r0, r4, lsl r0
      74:	00000020 	andeq	r0, r0, r0, lsr #32
      78:	08770002 	ldmdaeq	r7!, {r1}^
	...
      88:	00000002 	andeq	r0, r0, r2
      8c:	007d0002 	rsbseq	r0, sp, r2
      90:	00000002 	andeq	r0, r0, r2
      94:	00000004 	andeq	r0, r0, r4
      98:	047d0002 	ldrbteq	r0, [sp], #-2
      9c:	00000004 	andeq	r0, r0, r4
      a0:	00000006 	andeq	r0, r0, r6
      a4:	107d0002 	rsbsne	r0, sp, r2
      a8:	00000006 	andeq	r0, r0, r6
      ac:	00000026 	andeq	r0, r0, r6, lsr #32
      b0:	10770002 	rsbsne	r0, r7, r2
      b4:	00000026 	andeq	r0, r0, r6, lsr #32
      b8:	00000028 	andeq	r0, r0, r8, lsr #32
      bc:	04770002 	ldrbteq	r0, [r7], #-2
      c0:	00000028 	andeq	r0, r0, r8, lsr #32
      c4:	0000002c 	andeq	r0, r0, ip, lsr #32
      c8:	047d0002 	ldrbteq	r0, [sp], #-2
      cc:	0000002c 	andeq	r0, r0, ip, lsr #32
      d0:	00000038 	andeq	r0, r0, r8, lsr r0
      d4:	007d0002 	rsbseq	r0, sp, r2
	...
      e0:	00000038 	andeq	r0, r0, r8, lsr r0
      e4:	0000003a 	andeq	r0, r0, sl, lsr r0
      e8:	007d0002 	rsbseq	r0, sp, r2
      ec:	0000003a 	andeq	r0, r0, sl, lsr r0
      f0:	0000003c 	andeq	r0, r0, ip, lsr r0
      f4:	087d0002 	ldmdaeq	sp!, {r1}^
      f8:	0000003c 	andeq	r0, r0, ip, lsr r0
      fc:	0000003e 	andeq	r0, r0, lr, lsr r0
     100:	107d0002 	rsbsne	r0, sp, r2
     104:	0000003e 	andeq	r0, r0, lr, lsr r0
     108:	00000070 	andeq	r0, r0, r0, ror r0
     10c:	10770002 	rsbsne	r0, r7, r2
	...
     118:	00000070 	andeq	r0, r0, r0, ror r0
     11c:	00000072 	andeq	r0, r0, r2, ror r0
     120:	007d0002 	rsbseq	r0, sp, r2
     124:	00000072 	andeq	r0, r0, r2, ror r0
     128:	00000074 	andeq	r0, r0, r4, ror r0
     12c:	047d0002 	ldrbteq	r0, [sp], #-2
     130:	00000074 	andeq	r0, r0, r4, ror r0
     134:	00000076 	andeq	r0, r0, r6, ror r0
     138:	107d0002 	rsbsne	r0, sp, r2
     13c:	00000076 	andeq	r0, r0, r6, ror r0
     140:	00000086 	andeq	r0, r0, r6, lsl #1
     144:	10770002 	rsbsne	r0, r7, r2
     148:	00000086 	andeq	r0, r0, r6, lsl #1
     14c:	00000088 	andeq	r0, r0, r8, lsl #1
     150:	04770002 	ldrbteq	r0, [r7], #-2
     154:	00000088 	andeq	r0, r0, r8, lsl #1
     158:	0000008c 	andeq	r0, r0, ip, lsl #1
     15c:	047d0002 	ldrbteq	r0, [sp], #-2
     160:	0000008c 	andeq	r0, r0, ip, lsl #1
     164:	0000008e 	andeq	r0, r0, lr, lsl #1
     168:	007d0002 	rsbseq	r0, sp, r2
	...
     174:	00000090 	muleq	r0, r0, r0
     178:	00000092 	muleq	r0, r2, r0
     17c:	007d0002 	rsbseq	r0, sp, r2
     180:	00000092 	muleq	r0, r2, r0
     184:	00000094 	muleq	r0, r4, r0
     188:	087d0002 	ldmdaeq	sp!, {r1}^
     18c:	00000094 	muleq	r0, r4, r0
     190:	00000096 	muleq	r0, r6, r0
     194:	107d0002 	rsbsne	r0, sp, r2
     198:	00000096 	muleq	r0, r6, r0
     19c:	000000bc 	strheq	r0, [r0], -ip
     1a0:	10770002 	rsbsne	r0, r7, r2
	...
     1ac:	000000bc 	strheq	r0, [r0], -ip
     1b0:	000000be 	strheq	r0, [r0], -lr
     1b4:	007d0002 	rsbseq	r0, sp, r2
     1b8:	000000be 	strheq	r0, [r0], -lr
     1bc:	000000c0 	andeq	r0, r0, r0, asr #1
     1c0:	087d0002 	ldmdaeq	sp!, {r1}^
     1c4:	000000c0 	andeq	r0, r0, r0, asr #1
     1c8:	000000c2 	andeq	r0, r0, r2, asr #1
     1cc:	107d0002 	rsbsne	r0, sp, r2
     1d0:	000000c2 	andeq	r0, r0, r2, asr #1
     1d4:	000000d8 	ldrdeq	r0, [r0], -r8
     1d8:	10770002 	rsbsne	r0, r7, r2
	...
     1e4:	000000d8 	ldrdeq	r0, [r0], -r8
     1e8:	000000da 	ldrdeq	r0, [r0], -sl
     1ec:	007d0002 	rsbseq	r0, sp, r2
     1f0:	000000da 	ldrdeq	r0, [r0], -sl
     1f4:	000000dc 	ldrdeq	r0, [r0], -ip
     1f8:	087d0002 	ldmdaeq	sp!, {r1}^
     1fc:	000000dc 	ldrdeq	r0, [r0], -ip
     200:	000000de 	ldrdeq	r0, [r0], -lr
     204:	107d0002 	rsbsne	r0, sp, r2
     208:	000000de 	ldrdeq	r0, [r0], -lr
     20c:	00000164 	andeq	r0, r0, r4, ror #2
     210:	08770002 	ldmdaeq	r7!, {r1}^
	...
     220:	00000002 	andeq	r0, r0, r2
     224:	007d0002 	rsbseq	r0, sp, r2
     228:	00000002 	andeq	r0, r0, r2
     22c:	00000004 	andeq	r0, r0, r4
     230:	047d0002 	ldrbteq	r0, [sp], #-2
     234:	00000004 	andeq	r0, r0, r4
     238:	00000006 	andeq	r0, r0, r6
     23c:	187d0002 	ldmdane	sp!, {r1}^
     240:	00000006 	andeq	r0, r0, r6
     244:	00000034 	andeq	r0, r0, r4, lsr r0
     248:	18770002 	ldmdane	r7!, {r1}^
     24c:	00000034 	andeq	r0, r0, r4, lsr r0
     250:	00000036 	andeq	r0, r0, r6, lsr r0
     254:	04770002 	ldrbteq	r0, [r7], #-2
     258:	00000036 	andeq	r0, r0, r6, lsr r0
     25c:	0000003a 	andeq	r0, r0, sl, lsr r0
     260:	047d0002 	ldrbteq	r0, [sp], #-2
     264:	0000003a 	andeq	r0, r0, sl, lsr r0
     268:	00000044 	andeq	r0, r0, r4, asr #32
     26c:	007d0002 	rsbseq	r0, sp, r2
	...
     278:	00000044 	andeq	r0, r0, r4, asr #32
     27c:	00000046 	andeq	r0, r0, r6, asr #32
     280:	007d0002 	rsbseq	r0, sp, r2
     284:	00000046 	andeq	r0, r0, r6, asr #32
     288:	00000048 	andeq	r0, r0, r8, asr #32
     28c:	087d0002 	ldmdaeq	sp!, {r1}^
     290:	00000048 	andeq	r0, r0, r8, asr #32
     294:	0000004e 	andeq	r0, r0, lr, asr #32
     298:	08770002 	ldmdaeq	r7!, {r1}^
	...
     2a4:	00000050 	andeq	r0, r0, r0, asr r0
     2a8:	00000052 	andeq	r0, r0, r2, asr r0
     2ac:	007d0002 	rsbseq	r0, sp, r2
     2b0:	00000052 	andeq	r0, r0, r2, asr r0
     2b4:	00000054 	andeq	r0, r0, r4, asr r0
     2b8:	047d0002 	ldrbteq	r0, [sp], #-2
     2bc:	00000054 	andeq	r0, r0, r4, asr r0
     2c0:	00000064 	andeq	r0, r0, r4, rrx
     2c4:	04770002 	ldrbteq	r0, [r7], #-2
     2c8:	00000064 	andeq	r0, r0, r4, rrx
     2cc:	00000068 	andeq	r0, r0, r8, rrx
     2d0:	047d0002 	ldrbteq	r0, [sp], #-2
     2d4:	00000068 	andeq	r0, r0, r8, rrx
     2d8:	00000074 	andeq	r0, r0, r4, ror r0
     2dc:	007d0002 	rsbseq	r0, sp, r2
	...
     2ec:	00000002 	andeq	r0, r0, r2
     2f0:	007d0002 	rsbseq	r0, sp, r2
     2f4:	00000002 	andeq	r0, r0, r2
     2f8:	00000004 	andeq	r0, r0, r4
     2fc:	047d0002 	ldrbteq	r0, [sp], #-2
     300:	00000004 	andeq	r0, r0, r4
     304:	00000006 	andeq	r0, r0, r6
     308:	107d0002 	rsbsne	r0, sp, r2
     30c:	00000006 	andeq	r0, r0, r6
     310:	00000018 	andeq	r0, r0, r8, lsl r0
     314:	10770002 	rsbsne	r0, r7, r2
     318:	00000018 	andeq	r0, r0, r8, lsl r0
     31c:	0000001a 	andeq	r0, r0, sl, lsl r0
     320:	04770002 	ldrbteq	r0, [r7], #-2
     324:	0000001a 	andeq	r0, r0, sl, lsl r0
     328:	0000001e 	andeq	r0, r0, lr, lsl r0
     32c:	047d0002 	ldrbteq	r0, [sp], #-2
     330:	0000001e 	andeq	r0, r0, lr, lsl r0
     334:	00000024 	andeq	r0, r0, r4, lsr #32
     338:	007d0002 	rsbseq	r0, sp, r2
	...
     344:	00000024 	andeq	r0, r0, r4, lsr #32
     348:	00000026 	andeq	r0, r0, r6, lsr #32
     34c:	007d0002 	rsbseq	r0, sp, r2
     350:	00000026 	andeq	r0, r0, r6, lsr #32
     354:	00000028 	andeq	r0, r0, r8, lsr #32
     358:	047d0002 	ldrbteq	r0, [sp], #-2
     35c:	00000028 	andeq	r0, r0, r8, lsr #32
     360:	0000002a 	andeq	r0, r0, sl, lsr #32
     364:	187d0002 	ldmdane	sp!, {r1}^
     368:	0000002a 	andeq	r0, r0, sl, lsr #32
     36c:	00000058 	andeq	r0, r0, r8, asr r0
     370:	18770002 	ldmdane	r7!, {r1}^
     374:	00000058 	andeq	r0, r0, r8, asr r0
     378:	0000005a 	andeq	r0, r0, sl, asr r0
     37c:	04770002 	ldrbteq	r0, [r7], #-2
     380:	0000005a 	andeq	r0, r0, sl, asr r0
     384:	0000005e 	andeq	r0, r0, lr, asr r0
     388:	047d0002 	ldrbteq	r0, [sp], #-2
     38c:	0000005e 	andeq	r0, r0, lr, asr r0
     390:	00000064 	andeq	r0, r0, r4, rrx
     394:	007d0002 	rsbseq	r0, sp, r2
	...
     3a0:	00000064 	andeq	r0, r0, r4, rrx
     3a4:	00000066 	andeq	r0, r0, r6, rrx
     3a8:	007d0002 	rsbseq	r0, sp, r2
     3ac:	00000066 	andeq	r0, r0, r6, rrx
     3b0:	00000068 	andeq	r0, r0, r8, rrx
     3b4:	047d0002 	ldrbteq	r0, [sp], #-2
     3b8:	00000068 	andeq	r0, r0, r8, rrx
     3bc:	0000006a 	andeq	r0, r0, sl, rrx
     3c0:	107d0002 	rsbsne	r0, sp, r2
     3c4:	0000006a 	andeq	r0, r0, sl, rrx
     3c8:	00000090 	muleq	r0, r0, r0
     3cc:	10770002 	rsbsne	r0, r7, r2
     3d0:	00000090 	muleq	r0, r0, r0
     3d4:	00000092 	muleq	r0, r2, r0
     3d8:	04770002 	ldrbteq	r0, [r7], #-2
     3dc:	00000092 	muleq	r0, r2, r0
     3e0:	00000096 	muleq	r0, r6, r0
     3e4:	047d0002 	ldrbteq	r0, [sp], #-2
     3e8:	00000096 	muleq	r0, r6, r0
     3ec:	00000098 	muleq	r0, r8, r0
     3f0:	007d0002 	rsbseq	r0, sp, r2
	...
     3fc:	00000098 	muleq	r0, r8, r0
     400:	0000009a 	muleq	r0, sl, r0
     404:	007d0002 	rsbseq	r0, sp, r2
     408:	0000009a 	muleq	r0, sl, r0
     40c:	0000009c 	muleq	r0, ip, r0
     410:	047d0002 	ldrbteq	r0, [sp], #-2
     414:	0000009c 	muleq	r0, ip, r0
     418:	0000009e 	muleq	r0, lr, r0
     41c:	107d0002 	rsbsne	r0, sp, r2
     420:	0000009e 	muleq	r0, lr, r0
     424:	000000d0 	ldrdeq	r0, [r0], -r0	; <UNPREDICTABLE>
     428:	10770002 	rsbsne	r0, r7, r2
     42c:	000000d0 	ldrdeq	r0, [r0], -r0	; <UNPREDICTABLE>
     430:	000000d2 	ldrdeq	r0, [r0], -r2
     434:	04770002 	ldrbteq	r0, [r7], #-2
     438:	000000d2 	ldrdeq	r0, [r0], -r2
     43c:	000000d6 	ldrdeq	r0, [r0], -r6
     440:	047d0002 	ldrbteq	r0, [sp], #-2
     444:	000000d6 	ldrdeq	r0, [r0], -r6
     448:	000000d8 	ldrdeq	r0, [r0], -r8
     44c:	007d0002 	rsbseq	r0, sp, r2
	...
     458:	000000d8 	ldrdeq	r0, [r0], -r8
     45c:	000000da 	ldrdeq	r0, [r0], -sl
     460:	007d0002 	rsbseq	r0, sp, r2
     464:	000000da 	ldrdeq	r0, [r0], -sl
     468:	000000dc 	ldrdeq	r0, [r0], -ip
     46c:	087d0002 	ldmdaeq	sp!, {r1}^
     470:	000000dc 	ldrdeq	r0, [r0], -ip
     474:	000000de 	ldrdeq	r0, [r0], -lr
     478:	187d0002 	ldmdane	sp!, {r1}^
     47c:	000000de 	ldrdeq	r0, [r0], -lr
     480:	0000010e 	andeq	r0, r0, lr, lsl #2
     484:	18770002 	ldmdane	r7!, {r1}^
     488:	0000010e 	andeq	r0, r0, lr, lsl #2
     48c:	00000110 	andeq	r0, r0, r0, lsl r1
     490:	08770002 	ldmdaeq	r7!, {r1}^
     494:	00000110 	andeq	r0, r0, r0, lsl r1
     498:	00000112 	andeq	r0, r0, r2, lsl r1
     49c:	087d0002 	ldmdaeq	sp!, {r1}^
	...
     4a8:	00000114 	andeq	r0, r0, r4, lsl r1
     4ac:	00000116 	andeq	r0, r0, r6, lsl r1
     4b0:	007d0002 	rsbseq	r0, sp, r2
     4b4:	00000116 	andeq	r0, r0, r6, lsl r1
     4b8:	00000118 	andeq	r0, r0, r8, lsl r1
     4bc:	087d0002 	ldmdaeq	sp!, {r1}^
     4c0:	00000118 	andeq	r0, r0, r8, lsl r1
     4c4:	0000011a 	andeq	r0, r0, sl, lsl r1
     4c8:	107d0002 	rsbsne	r0, sp, r2
     4cc:	0000011a 	andeq	r0, r0, sl, lsl r1
     4d0:	00000142 	andeq	r0, r0, r2, asr #2
     4d4:	10770002 	rsbsne	r0, r7, r2
     4d8:	00000142 	andeq	r0, r0, r2, asr #2
     4dc:	00000144 	andeq	r0, r0, r4, asr #2
     4e0:	08770002 	ldmdaeq	r7!, {r1}^
     4e4:	00000144 	andeq	r0, r0, r4, asr #2
     4e8:	00000146 	andeq	r0, r0, r6, asr #2
     4ec:	087d0002 	ldmdaeq	sp!, {r1}^
	...
     4f8:	00000148 	andeq	r0, r0, r8, asr #2
     4fc:	0000014a 	andeq	r0, r0, sl, asr #2
     500:	007d0002 	rsbseq	r0, sp, r2
     504:	0000014a 	andeq	r0, r0, sl, asr #2
     508:	0000014c 	andeq	r0, r0, ip, asr #2
     50c:	087d0002 	ldmdaeq	sp!, {r1}^
     510:	0000014c 	andeq	r0, r0, ip, asr #2
     514:	0000014e 	andeq	r0, r0, lr, asr #2
     518:	187d0002 	ldmdane	sp!, {r1}^
     51c:	0000014e 	andeq	r0, r0, lr, asr #2
     520:	000001b2 			; <UNDEFINED> instruction: 0x000001b2
     524:	18770002 	ldmdane	r7!, {r1}^
     528:	000001b2 			; <UNDEFINED> instruction: 0x000001b2
     52c:	000001b4 			; <UNDEFINED> instruction: 0x000001b4
     530:	08770002 	ldmdaeq	r7!, {r1}^
     534:	000001b4 			; <UNDEFINED> instruction: 0x000001b4
     538:	000001bc 			; <UNDEFINED> instruction: 0x000001bc
     53c:	087d0002 	ldmdaeq	sp!, {r1}^
	...
     548:	000001bc 			; <UNDEFINED> instruction: 0x000001bc
     54c:	000001be 			; <UNDEFINED> instruction: 0x000001be
     550:	007d0002 	rsbseq	r0, sp, r2
     554:	000001be 			; <UNDEFINED> instruction: 0x000001be
     558:	000001c0 	andeq	r0, r0, r0, asr #3
     55c:	087d0002 	ldmdaeq	sp!, {r1}^
     560:	000001c0 	andeq	r0, r0, r0, asr #3
     564:	000001c2 	andeq	r0, r0, r2, asr #3
     568:	187d0002 	ldmdane	sp!, {r1}^
     56c:	000001c2 	andeq	r0, r0, r2, asr #3
     570:	00000226 	andeq	r0, r0, r6, lsr #4
     574:	18770002 	ldmdane	r7!, {r1}^
     578:	00000226 	andeq	r0, r0, r6, lsr #4
     57c:	00000228 	andeq	r0, r0, r8, lsr #4
     580:	08770002 	ldmdaeq	r7!, {r1}^
     584:	00000228 	andeq	r0, r0, r8, lsr #4
     588:	00000230 	andeq	r0, r0, r0, lsr r2
     58c:	087d0002 	ldmdaeq	sp!, {r1}^
	...
     598:	00000230 	andeq	r0, r0, r0, lsr r2
     59c:	00000232 	andeq	r0, r0, r2, lsr r2
     5a0:	007d0002 	rsbseq	r0, sp, r2
     5a4:	00000232 	andeq	r0, r0, r2, lsr r2
     5a8:	00000234 	andeq	r0, r0, r4, lsr r2
     5ac:	087d0002 	ldmdaeq	sp!, {r1}^
     5b0:	00000234 	andeq	r0, r0, r4, lsr r2
     5b4:	00000236 	andeq	r0, r0, r6, lsr r2
     5b8:	207d0002 	rsbscs	r0, sp, r2
     5bc:	00000236 	andeq	r0, r0, r6, lsr r2
     5c0:	00000496 	muleq	r0, r6, r4
     5c4:	20770002 	rsbscs	r0, r7, r2
     5c8:	00000496 	muleq	r0, r6, r4
     5cc:	00000498 	muleq	r0, r8, r4
     5d0:	08770002 	ldmdaeq	r7!, {r1}^
     5d4:	00000498 	muleq	r0, r8, r4
     5d8:	000004a4 	andeq	r0, r0, r4, lsr #9
     5dc:	087d0002 	ldmdaeq	sp!, {r1}^
	...
     5e8:	000004a4 	andeq	r0, r0, r4, lsr #9
     5ec:	000004a6 	andeq	r0, r0, r6, lsr #9
     5f0:	007d0002 	rsbseq	r0, sp, r2
     5f4:	000004a6 	andeq	r0, r0, r6, lsr #9
     5f8:	000004a8 	andeq	r0, r0, r8, lsr #9
     5fc:	107d0002 	rsbsne	r0, sp, r2
     600:	000004a8 	andeq	r0, r0, r8, lsr #9
     604:	000004aa 	andeq	r0, r0, sl, lsr #9
     608:	147d0002 	ldrbtne	r0, [sp], #-2
     60c:	000004aa 	andeq	r0, r0, sl, lsr #9
     610:	000004ac 	andeq	r0, r0, ip, lsr #9
     614:	14770002 	ldrbtne	r0, [r7], #-2
     618:	000004ac 	andeq	r0, r0, ip, lsr #9
     61c:	000004b0 			; <UNDEFINED> instruction: 0x000004b0
     620:	147d0002 	ldrbtne	r0, [sp], #-2
     624:	000004b0 			; <UNDEFINED> instruction: 0x000004b0
     628:	000004b2 			; <UNDEFINED> instruction: 0x000004b2
     62c:	107d0002 	rsbsne	r0, sp, r2
     630:	000004b2 			; <UNDEFINED> instruction: 0x000004b2
     634:	000004b4 			; <UNDEFINED> instruction: 0x000004b4
     638:	007d0002 	rsbseq	r0, sp, r2
	...
     644:	000004b4 			; <UNDEFINED> instruction: 0x000004b4
     648:	000004b6 			; <UNDEFINED> instruction: 0x000004b6
     64c:	007d0002 	rsbseq	r0, sp, r2
     650:	000004b6 			; <UNDEFINED> instruction: 0x000004b6
     654:	000004b8 			; <UNDEFINED> instruction: 0x000004b8
     658:	107d0002 	rsbsne	r0, sp, r2
     65c:	000004b8 			; <UNDEFINED> instruction: 0x000004b8
     660:	000004ba 			; <UNDEFINED> instruction: 0x000004ba
     664:	187d0002 	ldmdane	sp!, {r1}^
     668:	000004ba 			; <UNDEFINED> instruction: 0x000004ba
     66c:	000004bc 			; <UNDEFINED> instruction: 0x000004bc
     670:	287d0002 	ldmdacs	sp!, {r1}^
     674:	000004bc 			; <UNDEFINED> instruction: 0x000004bc
     678:	0000062e 	andeq	r0, r0, lr, lsr #12
     67c:	28770002 	ldmdacs	r7!, {r1}^
     680:	0000062e 	andeq	r0, r0, lr, lsr #12
     684:	00000630 	andeq	r0, r0, r0, lsr r6
     688:	18770002 	ldmdane	r7!, {r1}^
     68c:	00000630 	andeq	r0, r0, r0, lsr r6
     690:	00000634 	andeq	r0, r0, r4, lsr r6
     694:	187d0002 	ldmdane	sp!, {r1}^
     698:	00000634 	andeq	r0, r0, r4, lsr r6
     69c:	00000636 	andeq	r0, r0, r6, lsr r6
     6a0:	107d0002 	rsbsne	r0, sp, r2
     6a4:	00000636 	andeq	r0, r0, r6, lsr r6
     6a8:	00000638 	andeq	r0, r0, r8, lsr r6
     6ac:	007d0002 	rsbseq	r0, sp, r2
	...
     6b8:	00000638 	andeq	r0, r0, r8, lsr r6
     6bc:	0000063a 	andeq	r0, r0, sl, lsr r6
     6c0:	007d0002 	rsbseq	r0, sp, r2
     6c4:	0000063a 	andeq	r0, r0, sl, lsr r6
     6c8:	0000063c 	andeq	r0, r0, ip, lsr r6
     6cc:	047d0002 	ldrbteq	r0, [sp], #-2
     6d0:	0000063c 	andeq	r0, r0, ip, lsr r6
     6d4:	0000063e 	andeq	r0, r0, lr, lsr r6
     6d8:	207d0002 	rsbscs	r0, sp, r2
     6dc:	0000063e 	andeq	r0, r0, lr, lsr r6
     6e0:	00000672 	andeq	r0, r0, r2, ror r6
     6e4:	20770002 	rsbscs	r0, r7, r2
     6e8:	00000672 	andeq	r0, r0, r2, ror r6
     6ec:	00000674 	andeq	r0, r0, r4, ror r6
     6f0:	04770002 	ldrbteq	r0, [r7], #-2
     6f4:	00000674 	andeq	r0, r0, r4, ror r6
     6f8:	00000678 	andeq	r0, r0, r8, ror r6
     6fc:	047d0002 	ldrbteq	r0, [sp], #-2
     700:	00000678 	andeq	r0, r0, r8, ror r6
     704:	0000067a 	andeq	r0, r0, sl, ror r6
     708:	007d0002 	rsbseq	r0, sp, r2
	...
     714:	0000067c 	andeq	r0, r0, ip, ror r6
     718:	0000067e 	andeq	r0, r0, lr, ror r6
     71c:	007d0002 	rsbseq	r0, sp, r2
     720:	0000067e 	andeq	r0, r0, lr, ror r6
     724:	00000680 	andeq	r0, r0, r0, lsl #13
     728:	047d0002 	ldrbteq	r0, [sp], #-2
     72c:	00000680 	andeq	r0, r0, r0, lsl #13
     730:	00000682 	andeq	r0, r0, r2, lsl #13
     734:	287d0002 	ldmdacs	sp!, {r1}^
     738:	00000682 	andeq	r0, r0, r2, lsl #13
     73c:	000006be 			; <UNDEFINED> instruction: 0x000006be
     740:	28770002 	ldmdacs	r7!, {r1}^
     744:	000006be 			; <UNDEFINED> instruction: 0x000006be
     748:	000006c0 	andeq	r0, r0, r0, asr #13
     74c:	04770002 	ldrbteq	r0, [r7], #-2
     750:	000006c0 	andeq	r0, r0, r0, asr #13
     754:	000006c4 	andeq	r0, r0, r4, asr #13
     758:	047d0002 	ldrbteq	r0, [sp], #-2
     75c:	000006c4 	andeq	r0, r0, r4, asr #13
     760:	000006c6 	andeq	r0, r0, r6, asr #13
     764:	007d0002 	rsbseq	r0, sp, r2
	...
     770:	000006c8 	andeq	r0, r0, r8, asr #13
     774:	000006ca 	andeq	r0, r0, sl, asr #13
     778:	007d0002 	rsbseq	r0, sp, r2
     77c:	000006ca 	andeq	r0, r0, sl, asr #13
     780:	000006cc 	andeq	r0, r0, ip, asr #13
     784:	047d0002 	ldrbteq	r0, [sp], #-2
     788:	000006cc 	andeq	r0, r0, ip, asr #13
     78c:	000006ce 	andeq	r0, r0, lr, asr #13
     790:	287d0002 	ldmdacs	sp!, {r1}^
     794:	000006ce 	andeq	r0, r0, lr, asr #13
     798:	00000720 	andeq	r0, r0, r0, lsr #14
     79c:	28770002 	ldmdacs	r7!, {r1}^
     7a0:	00000720 	andeq	r0, r0, r0, lsr #14
     7a4:	00000722 	andeq	r0, r0, r2, lsr #14
     7a8:	04770002 	ldrbteq	r0, [r7], #-2
     7ac:	00000722 	andeq	r0, r0, r2, lsr #14
     7b0:	00000726 	andeq	r0, r0, r6, lsr #14
     7b4:	047d0002 	ldrbteq	r0, [sp], #-2
     7b8:	00000726 	andeq	r0, r0, r6, lsr #14
     7bc:	00000728 	andeq	r0, r0, r8, lsr #14
     7c0:	007d0002 	rsbseq	r0, sp, r2
	...
     7cc:	00000728 	andeq	r0, r0, r8, lsr #14
     7d0:	0000072a 	andeq	r0, r0, sl, lsr #14
     7d4:	007d0002 	rsbseq	r0, sp, r2
     7d8:	0000072a 	andeq	r0, r0, sl, lsr #14
     7dc:	0000072c 	andeq	r0, r0, ip, lsr #14
     7e0:	047d0002 	ldrbteq	r0, [sp], #-2
     7e4:	0000072c 	andeq	r0, r0, ip, lsr #14
     7e8:	0000072e 	andeq	r0, r0, lr, lsr #14
     7ec:	187d0002 	ldmdane	sp!, {r1}^
     7f0:	0000072e 	andeq	r0, r0, lr, lsr #14
     7f4:	00000774 	andeq	r0, r0, r4, ror r7
     7f8:	18770002 	ldmdane	r7!, {r1}^
     7fc:	00000774 	andeq	r0, r0, r4, ror r7
     800:	00000776 	andeq	r0, r0, r6, ror r7
     804:	04770002 	ldrbteq	r0, [r7], #-2
     808:	00000776 	andeq	r0, r0, r6, ror r7
     80c:	0000077a 	andeq	r0, r0, sl, ror r7
     810:	047d0002 	ldrbteq	r0, [sp], #-2
     814:	0000077a 	andeq	r0, r0, sl, ror r7
     818:	0000077c 	andeq	r0, r0, ip, ror r7
     81c:	007d0002 	rsbseq	r0, sp, r2
	...
     828:	0000077c 	andeq	r0, r0, ip, ror r7
     82c:	0000077e 	andeq	r0, r0, lr, ror r7
     830:	007d0002 	rsbseq	r0, sp, r2
     834:	0000077e 	andeq	r0, r0, lr, ror r7
     838:	00000780 	andeq	r0, r0, r0, lsl #15
     83c:	047d0002 	ldrbteq	r0, [sp], #-2
     840:	00000780 	andeq	r0, r0, r0, lsl #15
     844:	00000782 	andeq	r0, r0, r2, lsl #15
     848:	287d0002 	ldmdacs	sp!, {r1}^
     84c:	00000782 	andeq	r0, r0, r2, lsl #15
     850:	000007d8 	ldrdeq	r0, [r0], -r8
     854:	28770002 	ldmdacs	r7!, {r1}^
     858:	000007d8 	ldrdeq	r0, [r0], -r8
     85c:	000007da 	ldrdeq	r0, [r0], -sl
     860:	04770002 	ldrbteq	r0, [r7], #-2
     864:	000007da 	ldrdeq	r0, [r0], -sl
     868:	000007de 	ldrdeq	r0, [r0], -lr
     86c:	047d0002 	ldrbteq	r0, [sp], #-2
     870:	000007de 	ldrdeq	r0, [r0], -lr
     874:	000007e0 	andeq	r0, r0, r0, ror #15
     878:	007d0002 	rsbseq	r0, sp, r2
	...
     884:	000007e0 	andeq	r0, r0, r0, ror #15
     888:	000007e2 	andeq	r0, r0, r2, ror #15
     88c:	007d0002 	rsbseq	r0, sp, r2
     890:	000007e2 	andeq	r0, r0, r2, ror #15
     894:	000007e4 	andeq	r0, r0, r4, ror #15
     898:	087d0002 	ldmdaeq	sp!, {r1}^
     89c:	000007e4 	andeq	r0, r0, r4, ror #15
     8a0:	000007e6 	andeq	r0, r0, r6, ror #15
     8a4:	207d0002 	rsbscs	r0, sp, r2
     8a8:	000007e6 	andeq	r0, r0, r6, ror #15
     8ac:	000008c4 	andeq	r0, r0, r4, asr #17
     8b0:	20770002 	rsbscs	r0, r7, r2
     8b4:	000008c4 	andeq	r0, r0, r4, asr #17
     8b8:	000008c6 	andeq	r0, r0, r6, asr #17
     8bc:	08770002 	ldmdaeq	r7!, {r1}^
     8c0:	000008c6 	andeq	r0, r0, r6, asr #17
     8c4:	000008c8 	andeq	r0, r0, r8, asr #17
     8c8:	087d0002 	ldmdaeq	sp!, {r1}^
	...
     8d4:	000008c8 	andeq	r0, r0, r8, asr #17
     8d8:	000008ca 	andeq	r0, r0, sl, asr #17
     8dc:	007d0002 	rsbseq	r0, sp, r2
     8e0:	000008ca 	andeq	r0, r0, sl, asr #17
     8e4:	000008cc 	andeq	r0, r0, ip, asr #17
     8e8:	087d0002 	ldmdaeq	sp!, {r1}^
     8ec:	000008cc 	andeq	r0, r0, ip, asr #17
     8f0:	000008ce 	andeq	r0, r0, lr, asr #17
     8f4:	187d0002 	ldmdane	sp!, {r1}^
     8f8:	000008ce 	andeq	r0, r0, lr, asr #17
     8fc:	0000090a 	andeq	r0, r0, sl, lsl #18
     900:	18770002 	ldmdane	r7!, {r1}^
     904:	0000090a 	andeq	r0, r0, sl, lsl #18
     908:	0000090c 	andeq	r0, r0, ip, lsl #18
     90c:	08770002 	ldmdaeq	r7!, {r1}^
     910:	0000090c 	andeq	r0, r0, ip, lsl #18
     914:	0000090e 	andeq	r0, r0, lr, lsl #18
     918:	087d0002 	ldmdaeq	sp!, {r1}^
	...
     924:	00000910 	andeq	r0, r0, r0, lsl r9
     928:	00000912 	andeq	r0, r0, r2, lsl r9
     92c:	007d0002 	rsbseq	r0, sp, r2
     930:	00000912 	andeq	r0, r0, r2, lsl r9
     934:	00000914 	andeq	r0, r0, r4, lsl r9
     938:	047d0002 	ldrbteq	r0, [sp], #-2
     93c:	00000914 	andeq	r0, r0, r4, lsl r9
     940:	00000916 	andeq	r0, r0, r6, lsl r9
     944:	187d0002 	ldmdane	sp!, {r1}^
     948:	00000916 	andeq	r0, r0, r6, lsl r9
     94c:	00000934 	andeq	r0, r0, r4, lsr r9
     950:	18770002 	ldmdane	r7!, {r1}^
     954:	00000934 	andeq	r0, r0, r4, lsr r9
     958:	00000936 	andeq	r0, r0, r6, lsr r9
     95c:	04770002 	ldrbteq	r0, [r7], #-2
     960:	00000936 	andeq	r0, r0, r6, lsr r9
     964:	0000093a 	andeq	r0, r0, sl, lsr r9
     968:	047d0002 	ldrbteq	r0, [sp], #-2
     96c:	0000093a 	andeq	r0, r0, sl, lsr r9
     970:	0000093c 	andeq	r0, r0, ip, lsr r9
     974:	007d0002 	rsbseq	r0, sp, r2
	...
     980:	0000093c 	andeq	r0, r0, ip, lsr r9
     984:	0000093e 	andeq	r0, r0, lr, lsr r9
     988:	007d0002 	rsbseq	r0, sp, r2
     98c:	0000093e 	andeq	r0, r0, lr, lsr r9
     990:	00000940 	andeq	r0, r0, r0, asr #18
     994:	047d0002 	ldrbteq	r0, [sp], #-2
     998:	00000940 	andeq	r0, r0, r0, asr #18
     99c:	00000942 	andeq	r0, r0, r2, asr #18
     9a0:	187d0002 	ldmdane	sp!, {r1}^
     9a4:	00000942 	andeq	r0, r0, r2, asr #18
     9a8:	00000978 	andeq	r0, r0, r8, ror r9
     9ac:	18770002 	ldmdane	r7!, {r1}^
     9b0:	00000978 	andeq	r0, r0, r8, ror r9
     9b4:	0000097a 	andeq	r0, r0, sl, ror r9
     9b8:	04770002 	ldrbteq	r0, [r7], #-2
     9bc:	0000097a 	andeq	r0, r0, sl, ror r9
     9c0:	0000097e 	andeq	r0, r0, lr, ror r9
     9c4:	047d0002 	ldrbteq	r0, [sp], #-2
     9c8:	0000097e 	andeq	r0, r0, lr, ror r9
     9cc:	00000980 	andeq	r0, r0, r0, lsl #19
     9d0:	007d0002 	rsbseq	r0, sp, r2
	...
     9e0:	00000002 	andeq	r0, r0, r2
     9e4:	007d0002 	rsbseq	r0, sp, r2
     9e8:	00000002 	andeq	r0, r0, r2
     9ec:	00000004 	andeq	r0, r0, r4
     9f0:	047d0002 	ldrbteq	r0, [sp], #-2
     9f4:	00000004 	andeq	r0, r0, r4
     9f8:	00000006 	andeq	r0, r0, r6
     9fc:	107d0002 	rsbsne	r0, sp, r2
     a00:	00000006 	andeq	r0, r0, r6
     a04:	0000000a 	andeq	r0, r0, sl
     a08:	10770002 	rsbsne	r0, r7, r2
	...
     a14:	0000000c 	andeq	r0, r0, ip
     a18:	0000000e 	andeq	r0, r0, lr
     a1c:	007d0002 	rsbseq	r0, sp, r2
     a20:	0000000e 	andeq	r0, r0, lr
     a24:	00000010 	andeq	r0, r0, r0, lsl r0
     a28:	087d0002 	ldmdaeq	sp!, {r1}^
     a2c:	00000010 	andeq	r0, r0, r0, lsl r0
     a30:	00000012 	andeq	r0, r0, r2, lsl r0
     a34:	187d0002 	ldmdane	sp!, {r1}^
     a38:	00000012 	andeq	r0, r0, r2, lsl r0
     a3c:	00000140 	andeq	r0, r0, r0, asr #2
     a40:	18770002 	ldmdane	r7!, {r1}^
     a44:	00000140 	andeq	r0, r0, r0, asr #2
     a48:	00000142 	andeq	r0, r0, r2, asr #2
     a4c:	08770002 	ldmdaeq	r7!, {r1}^
     a50:	00000142 	andeq	r0, r0, r2, asr #2
     a54:	00000154 	andeq	r0, r0, r4, asr r1
     a58:	087d0002 	ldmdaeq	sp!, {r1}^
	...
     a64:	00000154 	andeq	r0, r0, r4, asr r1
     a68:	00000156 	andeq	r0, r0, r6, asr r1
     a6c:	007d0002 	rsbseq	r0, sp, r2
     a70:	00000156 	andeq	r0, r0, r6, asr r1
     a74:	00000158 	andeq	r0, r0, r8, asr r1
     a78:	087d0002 	ldmdaeq	sp!, {r1}^
     a7c:	00000158 	andeq	r0, r0, r8, asr r1
     a80:	0000015a 	andeq	r0, r0, sl, asr r1
     a84:	107d0002 	rsbsne	r0, sp, r2
     a88:	0000015a 	andeq	r0, r0, sl, asr r1
     a8c:	0000018e 	andeq	r0, r0, lr, lsl #3
     a90:	10770002 	rsbsne	r0, r7, r2
     a94:	0000018e 	andeq	r0, r0, lr, lsl #3
     a98:	00000190 	muleq	r0, r0, r1
     a9c:	08770002 	ldmdaeq	r7!, {r1}^
     aa0:	00000190 	muleq	r0, r0, r1
     aa4:	000001a0 	andeq	r0, r0, r0, lsr #3
     aa8:	087d0002 	ldmdaeq	sp!, {r1}^
	...
     ab4:	000001a0 	andeq	r0, r0, r0, lsr #3
     ab8:	000001a2 	andeq	r0, r0, r2, lsr #3
     abc:	007d0002 	rsbseq	r0, sp, r2
     ac0:	000001a2 	andeq	r0, r0, r2, lsr #3
     ac4:	000001a4 	andeq	r0, r0, r4, lsr #3
     ac8:	047d0002 	ldrbteq	r0, [sp], #-2
     acc:	000001a4 	andeq	r0, r0, r4, lsr #3
     ad0:	000001ae 	andeq	r0, r0, lr, lsr #3
     ad4:	04770002 	ldrbteq	r0, [r7], #-2
     ad8:	000001ae 	andeq	r0, r0, lr, lsr #3
     adc:	000001b2 			; <UNDEFINED> instruction: 0x000001b2
     ae0:	047d0002 	ldrbteq	r0, [sp], #-2
     ae4:	000001b2 			; <UNDEFINED> instruction: 0x000001b2
     ae8:	000001b8 			; <UNDEFINED> instruction: 0x000001b8
     aec:	007d0002 	rsbseq	r0, sp, r2
	...
     af8:	000001b8 			; <UNDEFINED> instruction: 0x000001b8
     afc:	000001ba 			; <UNDEFINED> instruction: 0x000001ba
     b00:	007d0002 	rsbseq	r0, sp, r2
     b04:	000001ba 			; <UNDEFINED> instruction: 0x000001ba
     b08:	000001bc 			; <UNDEFINED> instruction: 0x000001bc
     b0c:	087d0002 	ldmdaeq	sp!, {r1}^
     b10:	000001bc 			; <UNDEFINED> instruction: 0x000001bc
     b14:	000001ec 	andeq	r0, r0, ip, ror #3
     b18:	08770002 	ldmdaeq	r7!, {r1}^
	...
     b24:	000001ec 	andeq	r0, r0, ip, ror #3
     b28:	000001ee 	andeq	r0, r0, lr, ror #3
     b2c:	007d0002 	rsbseq	r0, sp, r2
     b30:	000001ee 	andeq	r0, r0, lr, ror #3
     b34:	000001f0 	strdeq	r0, [r0], -r0	; <UNPREDICTABLE>
     b38:	087d0002 	ldmdaeq	sp!, {r1}^
     b3c:	000001f0 	strdeq	r0, [r0], -r0	; <UNPREDICTABLE>
     b40:	000001f2 	strdeq	r0, [r0], -r2
     b44:	187d0002 	ldmdane	sp!, {r1}^
     b48:	000001f2 	strdeq	r0, [r0], -r2
     b4c:	0000021c 	andeq	r0, r0, ip, lsl r2
     b50:	18770002 	ldmdane	r7!, {r1}^
     b54:	0000021c 	andeq	r0, r0, ip, lsl r2
     b58:	0000021e 	andeq	r0, r0, lr, lsl r2
     b5c:	08770002 	ldmdaeq	r7!, {r1}^
     b60:	0000021e 	andeq	r0, r0, lr, lsl r2
     b64:	00000224 	andeq	r0, r0, r4, lsr #4
     b68:	087d0002 	ldmdaeq	sp!, {r1}^
	...
     b74:	00000224 	andeq	r0, r0, r4, lsr #4
     b78:	00000226 	andeq	r0, r0, r6, lsr #4
     b7c:	007d0002 	rsbseq	r0, sp, r2
     b80:	00000226 	andeq	r0, r0, r6, lsr #4
     b84:	00000228 	andeq	r0, r0, r8, lsr #4
     b88:	087d0002 	ldmdaeq	sp!, {r1}^
     b8c:	00000228 	andeq	r0, r0, r8, lsr #4
     b90:	0000022a 	andeq	r0, r0, sl, lsr #4
     b94:	107d0002 	rsbsne	r0, sp, r2
     b98:	0000022a 	andeq	r0, r0, sl, lsr #4
     b9c:	0000023c 	andeq	r0, r0, ip, lsr r2
     ba0:	10770002 	rsbsne	r0, r7, r2
     ba4:	0000023c 	andeq	r0, r0, ip, lsr r2
     ba8:	0000023e 	andeq	r0, r0, lr, lsr r2
     bac:	08770002 	ldmdaeq	r7!, {r1}^
     bb0:	0000023e 	andeq	r0, r0, lr, lsr r2
     bb4:	00000240 	andeq	r0, r0, r0, asr #4
     bb8:	087d0002 	ldmdaeq	sp!, {r1}^
	...
     bc4:	00000240 	andeq	r0, r0, r0, asr #4
     bc8:	00000242 	andeq	r0, r0, r2, asr #4
     bcc:	007d0002 	rsbseq	r0, sp, r2
     bd0:	00000242 	andeq	r0, r0, r2, asr #4
     bd4:	00000244 	andeq	r0, r0, r4, asr #4
     bd8:	087d0002 	ldmdaeq	sp!, {r1}^
     bdc:	00000244 	andeq	r0, r0, r4, asr #4
     be0:	00000246 	andeq	r0, r0, r6, asr #4
     be4:	187d0002 	ldmdane	sp!, {r1}^
     be8:	00000246 	andeq	r0, r0, r6, asr #4
     bec:	00000310 	andeq	r0, r0, r0, lsl r3
     bf0:	18770002 	ldmdane	r7!, {r1}^
     bf4:	00000310 	andeq	r0, r0, r0, lsl r3
     bf8:	00000312 	andeq	r0, r0, r2, lsl r3
     bfc:	08770002 	ldmdaeq	r7!, {r1}^
     c00:	00000312 	andeq	r0, r0, r2, lsl r3
     c04:	00000320 	andeq	r0, r0, r0, lsr #6
     c08:	087d0002 	ldmdaeq	sp!, {r1}^
	...
     c14:	00000320 	andeq	r0, r0, r0, lsr #6
     c18:	00000322 	andeq	r0, r0, r2, lsr #6
     c1c:	007d0002 	rsbseq	r0, sp, r2
     c20:	00000322 	andeq	r0, r0, r2, lsr #6
     c24:	00000324 	andeq	r0, r0, r4, lsr #6
     c28:	087d0002 	ldmdaeq	sp!, {r1}^
     c2c:	00000324 	andeq	r0, r0, r4, lsr #6
     c30:	00000326 	andeq	r0, r0, r6, lsr #6
     c34:	187d0002 	ldmdane	sp!, {r1}^
     c38:	00000326 	andeq	r0, r0, r6, lsr #6
     c3c:	0000037a 	andeq	r0, r0, sl, ror r3
     c40:	10770002 	rsbsne	r0, r7, r2
     c44:	0000037a 	andeq	r0, r0, sl, ror r3
     c48:	0000037c 	andeq	r0, r0, ip, ror r3
     c4c:	08770002 	ldmdaeq	r7!, {r1}^
     c50:	0000037c 	andeq	r0, r0, ip, ror r3
     c54:	000003a0 	andeq	r0, r0, r0, lsr #7
     c58:	087d0002 	ldmdaeq	sp!, {r1}^
	...
     c64:	000003a0 	andeq	r0, r0, r0, lsr #7
     c68:	000003a2 	andeq	r0, r0, r2, lsr #7
     c6c:	007d0002 	rsbseq	r0, sp, r2
     c70:	000003a2 	andeq	r0, r0, r2, lsr #7
     c74:	000003a4 	andeq	r0, r0, r4, lsr #7
     c78:	087d0002 	ldmdaeq	sp!, {r1}^
     c7c:	000003a4 	andeq	r0, r0, r4, lsr #7
     c80:	000003a6 	andeq	r0, r0, r6, lsr #7
     c84:	107d0002 	rsbsne	r0, sp, r2
     c88:	000003a6 	andeq	r0, r0, r6, lsr #7
     c8c:	000003b6 			; <UNDEFINED> instruction: 0x000003b6
     c90:	10770002 	rsbsne	r0, r7, r2
     c94:	000003b6 			; <UNDEFINED> instruction: 0x000003b6
     c98:	000003b8 			; <UNDEFINED> instruction: 0x000003b8
     c9c:	08770002 	ldmdaeq	r7!, {r1}^
     ca0:	000003b8 			; <UNDEFINED> instruction: 0x000003b8
     ca4:	000003ba 			; <UNDEFINED> instruction: 0x000003ba
     ca8:	087d0002 	ldmdaeq	sp!, {r1}^
	...
     cb4:	000003bc 			; <UNDEFINED> instruction: 0x000003bc
     cb8:	000003be 			; <UNDEFINED> instruction: 0x000003be
     cbc:	007d0002 	rsbseq	r0, sp, r2
     cc0:	000003be 			; <UNDEFINED> instruction: 0x000003be
     cc4:	000003c0 	andeq	r0, r0, r0, asr #7
     cc8:	087d0002 	ldmdaeq	sp!, {r1}^
     ccc:	000003c0 	andeq	r0, r0, r0, asr #7
     cd0:	000003c2 	andeq	r0, r0, r2, asr #7
     cd4:	107d0002 	rsbsne	r0, sp, r2
     cd8:	000003c2 	andeq	r0, r0, r2, asr #7
     cdc:	000003d0 	ldrdeq	r0, [r0], -r0	; <UNPREDICTABLE>
     ce0:	10770002 	rsbsne	r0, r7, r2
     ce4:	000003d0 	ldrdeq	r0, [r0], -r0	; <UNPREDICTABLE>
     ce8:	000003d2 	ldrdeq	r0, [r0], -r2
     cec:	08770002 	ldmdaeq	r7!, {r1}^
     cf0:	000003d2 	ldrdeq	r0, [r0], -r2
     cf4:	000003d4 	ldrdeq	r0, [r0], -r4
     cf8:	087d0002 	ldmdaeq	sp!, {r1}^
	...
     d04:	000003d4 	ldrdeq	r0, [r0], -r4
     d08:	000003d6 	ldrdeq	r0, [r0], -r6
     d0c:	007d0002 	rsbseq	r0, sp, r2
     d10:	000003d6 	ldrdeq	r0, [r0], -r6
     d14:	000003d8 	ldrdeq	r0, [r0], -r8
     d18:	087d0002 	ldmdaeq	sp!, {r1}^
     d1c:	000003d8 	ldrdeq	r0, [r0], -r8
     d20:	000003da 	ldrdeq	r0, [r0], -sl
     d24:	107d0002 	rsbsne	r0, sp, r2
     d28:	000003da 	ldrdeq	r0, [r0], -sl
     d2c:	000003fc 	strdeq	r0, [r0], -ip
     d30:	10770002 	rsbsne	r0, r7, r2
     d34:	000003fc 	strdeq	r0, [r0], -ip
     d38:	000003fe 	strdeq	r0, [r0], -lr
     d3c:	08770002 	ldmdaeq	r7!, {r1}^
     d40:	000003fe 	strdeq	r0, [r0], -lr
     d44:	00000404 	andeq	r0, r0, r4, lsl #8
     d48:	087d0002 	ldmdaeq	sp!, {r1}^
	...
     d54:	00000404 	andeq	r0, r0, r4, lsl #8
     d58:	00000406 	andeq	r0, r0, r6, lsl #8
     d5c:	007d0002 	rsbseq	r0, sp, r2
     d60:	00000406 	andeq	r0, r0, r6, lsl #8
     d64:	00000408 	andeq	r0, r0, r8, lsl #8
     d68:	087d0002 	ldmdaeq	sp!, {r1}^
     d6c:	00000408 	andeq	r0, r0, r8, lsl #8
     d70:	0000040a 	andeq	r0, r0, sl, lsl #8
     d74:	107d0002 	rsbsne	r0, sp, r2
     d78:	0000040a 	andeq	r0, r0, sl, lsl #8
     d7c:	00000438 	andeq	r0, r0, r8, lsr r4
     d80:	10770002 	rsbsne	r0, r7, r2
     d84:	00000438 	andeq	r0, r0, r8, lsr r4
     d88:	0000043a 	andeq	r0, r0, sl, lsr r4
     d8c:	08770002 	ldmdaeq	r7!, {r1}^
     d90:	0000043a 	andeq	r0, r0, sl, lsr r4
     d94:	00000440 	andeq	r0, r0, r0, asr #8
     d98:	087d0002 	ldmdaeq	sp!, {r1}^
	...
     da4:	00000440 	andeq	r0, r0, r0, asr #8
     da8:	00000442 	andeq	r0, r0, r2, asr #8
     dac:	007d0002 	rsbseq	r0, sp, r2
     db0:	00000442 	andeq	r0, r0, r2, asr #8
     db4:	00000444 	andeq	r0, r0, r4, asr #8
     db8:	087d0002 	ldmdaeq	sp!, {r1}^
     dbc:	00000444 	andeq	r0, r0, r4, asr #8
     dc0:	00000446 	andeq	r0, r0, r6, asr #8
     dc4:	107d0002 	rsbsne	r0, sp, r2
     dc8:	00000446 	andeq	r0, r0, r6, asr #8
     dcc:	0000046c 	andeq	r0, r0, ip, ror #8
     dd0:	10770002 	rsbsne	r0, r7, r2
     dd4:	0000046c 	andeq	r0, r0, ip, ror #8
     dd8:	0000046e 	andeq	r0, r0, lr, ror #8
     ddc:	08770002 	ldmdaeq	r7!, {r1}^
     de0:	0000046e 	andeq	r0, r0, lr, ror #8
     de4:	00000478 	andeq	r0, r0, r8, ror r4
     de8:	087d0002 	ldmdaeq	sp!, {r1}^
	...
     df4:	00000478 	andeq	r0, r0, r8, ror r4
     df8:	0000047a 	andeq	r0, r0, sl, ror r4
     dfc:	007d0002 	rsbseq	r0, sp, r2
     e00:	0000047a 	andeq	r0, r0, sl, ror r4
     e04:	0000047c 	andeq	r0, r0, ip, ror r4
     e08:	087d0002 	ldmdaeq	sp!, {r1}^
     e0c:	0000047c 	andeq	r0, r0, ip, ror r4
     e10:	0000047e 	andeq	r0, r0, lr, ror r4
     e14:	107d0002 	rsbsne	r0, sp, r2
     e18:	0000047e 	andeq	r0, r0, lr, ror r4
     e1c:	000004aa 	andeq	r0, r0, sl, lsr #9
     e20:	10770002 	rsbsne	r0, r7, r2
     e24:	000004aa 	andeq	r0, r0, sl, lsr #9
     e28:	000004ac 	andeq	r0, r0, ip, lsr #9
     e2c:	08770002 	ldmdaeq	r7!, {r1}^
     e30:	000004ac 	andeq	r0, r0, ip, lsr #9
     e34:	000004b8 			; <UNDEFINED> instruction: 0x000004b8
     e38:	087d0002 	ldmdaeq	sp!, {r1}^
	...
     e44:	000004b8 			; <UNDEFINED> instruction: 0x000004b8
     e48:	000004ba 			; <UNDEFINED> instruction: 0x000004ba
     e4c:	007d0002 	rsbseq	r0, sp, r2
     e50:	000004ba 			; <UNDEFINED> instruction: 0x000004ba
     e54:	000004bc 			; <UNDEFINED> instruction: 0x000004bc
     e58:	087d0002 	ldmdaeq	sp!, {r1}^
     e5c:	000004bc 			; <UNDEFINED> instruction: 0x000004bc
     e60:	000004be 			; <UNDEFINED> instruction: 0x000004be
     e64:	107d0002 	rsbsne	r0, sp, r2
     e68:	000004be 			; <UNDEFINED> instruction: 0x000004be
     e6c:	00000512 	andeq	r0, r0, r2, lsl r5
     e70:	10770002 	rsbsne	r0, r7, r2
     e74:	00000512 	andeq	r0, r0, r2, lsl r5
     e78:	00000514 	andeq	r0, r0, r4, lsl r5
     e7c:	08770002 	ldmdaeq	r7!, {r1}^
     e80:	00000514 	andeq	r0, r0, r4, lsl r5
     e84:	00000520 	andeq	r0, r0, r0, lsr #10
     e88:	087d0002 	ldmdaeq	sp!, {r1}^
	...
     e94:	00000520 	andeq	r0, r0, r0, lsr #10
     e98:	00000522 	andeq	r0, r0, r2, lsr #10
     e9c:	007d0002 	rsbseq	r0, sp, r2
     ea0:	00000522 	andeq	r0, r0, r2, lsr #10
     ea4:	00000524 	andeq	r0, r0, r4, lsr #10
     ea8:	087d0002 	ldmdaeq	sp!, {r1}^
     eac:	00000524 	andeq	r0, r0, r4, lsr #10
     eb0:	00000526 	andeq	r0, r0, r6, lsr #10
     eb4:	107d0002 	rsbsne	r0, sp, r2
     eb8:	00000526 	andeq	r0, r0, r6, lsr #10
     ebc:	0000054a 	andeq	r0, r0, sl, asr #10
     ec0:	10770002 	rsbsne	r0, r7, r2
     ec4:	0000054a 	andeq	r0, r0, sl, asr #10
     ec8:	0000054c 	andeq	r0, r0, ip, asr #10
     ecc:	08770002 	ldmdaeq	r7!, {r1}^
     ed0:	0000054c 	andeq	r0, r0, ip, asr #10
     ed4:	00000554 	andeq	r0, r0, r4, asr r5
     ed8:	087d0002 	ldmdaeq	sp!, {r1}^
	...
     ee4:	00000554 	andeq	r0, r0, r4, asr r5
     ee8:	00000556 	andeq	r0, r0, r6, asr r5
     eec:	007d0002 	rsbseq	r0, sp, r2
     ef0:	00000556 	andeq	r0, r0, r6, asr r5
     ef4:	00000558 	andeq	r0, r0, r8, asr r5
     ef8:	087d0002 	ldmdaeq	sp!, {r1}^
     efc:	00000558 	andeq	r0, r0, r8, asr r5
     f00:	0000055a 	andeq	r0, r0, sl, asr r5
     f04:	107d0002 	rsbsne	r0, sp, r2
     f08:	0000055a 	andeq	r0, r0, sl, asr r5
     f0c:	00000576 	andeq	r0, r0, r6, ror r5
     f10:	10770002 	rsbsne	r0, r7, r2
     f14:	00000576 	andeq	r0, r0, r6, ror r5
     f18:	00000578 	andeq	r0, r0, r8, ror r5
     f1c:	08770002 	ldmdaeq	r7!, {r1}^
     f20:	00000578 	andeq	r0, r0, r8, ror r5
     f24:	00000580 	andeq	r0, r0, r0, lsl #11
     f28:	087d0002 	ldmdaeq	sp!, {r1}^
	...
     f34:	00000580 	andeq	r0, r0, r0, lsl #11
     f38:	00000582 	andeq	r0, r0, r2, lsl #11
     f3c:	007d0002 	rsbseq	r0, sp, r2
     f40:	00000582 	andeq	r0, r0, r2, lsl #11
     f44:	00000584 	andeq	r0, r0, r4, lsl #11
     f48:	087d0002 	ldmdaeq	sp!, {r1}^
     f4c:	00000584 	andeq	r0, r0, r4, lsl #11
     f50:	00000586 	andeq	r0, r0, r6, lsl #11
     f54:	187d0002 	ldmdane	sp!, {r1}^
     f58:	00000586 	andeq	r0, r0, r6, lsl #11
     f5c:	000005d0 	ldrdeq	r0, [r0], -r0	; <UNPREDICTABLE>
     f60:	18770002 	ldmdane	r7!, {r1}^
     f64:	000005d0 	ldrdeq	r0, [r0], -r0	; <UNPREDICTABLE>
     f68:	000005d2 	ldrdeq	r0, [r0], -r2
     f6c:	08770002 	ldmdaeq	r7!, {r1}^
     f70:	000005d2 	ldrdeq	r0, [r0], -r2
     f74:	000005d8 	ldrdeq	r0, [r0], -r8
     f78:	087d0002 	ldmdaeq	sp!, {r1}^
	...
     f84:	000005d8 	ldrdeq	r0, [r0], -r8
     f88:	000005da 	ldrdeq	r0, [r0], -sl
     f8c:	007d0002 	rsbseq	r0, sp, r2
     f90:	000005da 	ldrdeq	r0, [r0], -sl
     f94:	000005dc 	ldrdeq	r0, [r0], -ip
     f98:	087d0002 	ldmdaeq	sp!, {r1}^
     f9c:	000005dc 	ldrdeq	r0, [r0], -ip
     fa0:	000005de 	ldrdeq	r0, [r0], -lr
     fa4:	187d0002 	ldmdane	sp!, {r1}^
     fa8:	000005de 	ldrdeq	r0, [r0], -lr
     fac:	00000622 	andeq	r0, r0, r2, lsr #12
     fb0:	18770002 	ldmdane	r7!, {r1}^
     fb4:	00000622 	andeq	r0, r0, r2, lsr #12
     fb8:	00000624 	andeq	r0, r0, r4, lsr #12
     fbc:	08770002 	ldmdaeq	r7!, {r1}^
     fc0:	00000624 	andeq	r0, r0, r4, lsr #12
     fc4:	00000626 	andeq	r0, r0, r6, lsr #12
     fc8:	087d0002 	ldmdaeq	sp!, {r1}^
	...
     fd8:	00000002 	andeq	r0, r0, r2
     fdc:	007d0002 	rsbseq	r0, sp, r2
     fe0:	00000002 	andeq	r0, r0, r2
     fe4:	00000004 	andeq	r0, r0, r4
     fe8:	047d0002 	ldrbteq	r0, [sp], #-2
     fec:	00000004 	andeq	r0, r0, r4
     ff0:	00000006 	andeq	r0, r0, r6
     ff4:	107d0002 	rsbsne	r0, sp, r2
     ff8:	00000006 	andeq	r0, r0, r6
     ffc:	00000010 	andeq	r0, r0, r0, lsl r0
    1000:	10770002 	rsbsne	r0, r7, r2
    1004:	00000010 	andeq	r0, r0, r0, lsl r0
    1008:	00000012 	andeq	r0, r0, r2, lsl r0
    100c:	04770002 	ldrbteq	r0, [r7], #-2
    1010:	00000012 	andeq	r0, r0, r2, lsl r0
    1014:	00000016 	andeq	r0, r0, r6, lsl r0
    1018:	047d0002 	ldrbteq	r0, [sp], #-2
    101c:	00000016 	andeq	r0, r0, r6, lsl r0
    1020:	00000018 	andeq	r0, r0, r8, lsl r0
    1024:	007d0002 	rsbseq	r0, sp, r2
	...
    1030:	00000018 	andeq	r0, r0, r8, lsl r0
    1034:	0000001a 	andeq	r0, r0, sl, lsl r0
    1038:	007d0002 	rsbseq	r0, sp, r2
    103c:	0000001a 	andeq	r0, r0, sl, lsl r0
    1040:	0000001c 	andeq	r0, r0, ip, lsl r0
    1044:	047d0002 	ldrbteq	r0, [sp], #-2
    1048:	0000001c 	andeq	r0, r0, ip, lsl r0
    104c:	00000022 	andeq	r0, r0, r2, lsr #32
    1050:	04770002 	ldrbteq	r0, [r7], #-2
    1054:	00000022 	andeq	r0, r0, r2, lsr #32
    1058:	00000026 	andeq	r0, r0, r6, lsr #32
    105c:	047d0002 	ldrbteq	r0, [sp], #-2
    1060:	00000026 	andeq	r0, r0, r6, lsr #32
    1064:	00000028 	andeq	r0, r0, r8, lsr #32
    1068:	007d0002 	rsbseq	r0, sp, r2
	...
    1074:	00000028 	andeq	r0, r0, r8, lsr #32
    1078:	0000002a 	andeq	r0, r0, sl, lsr #32
    107c:	007d0002 	rsbseq	r0, sp, r2
    1080:	0000002a 	andeq	r0, r0, sl, lsr #32
    1084:	0000002c 	andeq	r0, r0, ip, lsr #32
    1088:	047d0002 	ldrbteq	r0, [sp], #-2
    108c:	0000002c 	andeq	r0, r0, ip, lsr #32
    1090:	0000002e 	andeq	r0, r0, lr, lsr #32
    1094:	107d0002 	rsbsne	r0, sp, r2
    1098:	0000002e 	andeq	r0, r0, lr, lsr #32
    109c:	00000046 	andeq	r0, r0, r6, asr #32
    10a0:	10770002 	rsbsne	r0, r7, r2
    10a4:	00000046 	andeq	r0, r0, r6, asr #32
    10a8:	00000048 	andeq	r0, r0, r8, asr #32
    10ac:	04770002 	ldrbteq	r0, [r7], #-2
    10b0:	00000048 	andeq	r0, r0, r8, asr #32
    10b4:	0000004c 	andeq	r0, r0, ip, asr #32
    10b8:	047d0002 	ldrbteq	r0, [sp], #-2
    10bc:	0000004c 	andeq	r0, r0, ip, asr #32
    10c0:	0000004e 	andeq	r0, r0, lr, asr #32
    10c4:	007d0002 	rsbseq	r0, sp, r2
	...
    10d0:	00000050 	andeq	r0, r0, r0, asr r0
    10d4:	00000052 	andeq	r0, r0, r2, asr r0
    10d8:	007d0002 	rsbseq	r0, sp, r2
    10dc:	00000052 	andeq	r0, r0, r2, asr r0
    10e0:	00000054 	andeq	r0, r0, r4, asr r0
    10e4:	047d0002 	ldrbteq	r0, [sp], #-2
    10e8:	00000054 	andeq	r0, r0, r4, asr r0
    10ec:	00000056 	andeq	r0, r0, r6, asr r0
    10f0:	107d0002 	rsbsne	r0, sp, r2
    10f4:	00000056 	andeq	r0, r0, r6, asr r0
    10f8:	00000070 	andeq	r0, r0, r0, ror r0
    10fc:	10770002 	rsbsne	r0, r7, r2
    1100:	00000070 	andeq	r0, r0, r0, ror r0
    1104:	00000072 	andeq	r0, r0, r2, ror r0
    1108:	04770002 	ldrbteq	r0, [r7], #-2
    110c:	00000072 	andeq	r0, r0, r2, ror r0
    1110:	00000076 	andeq	r0, r0, r6, ror r0
    1114:	047d0002 	ldrbteq	r0, [sp], #-2
    1118:	00000076 	andeq	r0, r0, r6, ror r0
    111c:	00000078 	andeq	r0, r0, r8, ror r0
    1120:	007d0002 	rsbseq	r0, sp, r2
	...
    112c:	00000078 	andeq	r0, r0, r8, ror r0
    1130:	0000007a 	andeq	r0, r0, sl, ror r0
    1134:	007d0002 	rsbseq	r0, sp, r2
    1138:	0000007a 	andeq	r0, r0, sl, ror r0
    113c:	0000007c 	andeq	r0, r0, ip, ror r0
    1140:	087d0002 	ldmdaeq	sp!, {r1}^
    1144:	0000007c 	andeq	r0, r0, ip, ror r0
    1148:	0000007e 	andeq	r0, r0, lr, ror r0
    114c:	187d0002 	ldmdane	sp!, {r1}^
    1150:	0000007e 	andeq	r0, r0, lr, ror r0
    1154:	00000100 	andeq	r0, r0, r0, lsl #2
    1158:	18770002 	ldmdane	r7!, {r1}^
    115c:	00000100 	andeq	r0, r0, r0, lsl #2
    1160:	00000102 	andeq	r0, r0, r2, lsl #2
    1164:	08770002 	ldmdaeq	r7!, {r1}^
    1168:	00000102 	andeq	r0, r0, r2, lsl #2
    116c:	00000108 	andeq	r0, r0, r8, lsl #2
    1170:	087d0002 	ldmdaeq	sp!, {r1}^
	...
    117c:	00000108 	andeq	r0, r0, r8, lsl #2
    1180:	0000010a 	andeq	r0, r0, sl, lsl #2
    1184:	007d0002 	rsbseq	r0, sp, r2
    1188:	0000010a 	andeq	r0, r0, sl, lsl #2
    118c:	0000010c 	andeq	r0, r0, ip, lsl #2
    1190:	047d0002 	ldrbteq	r0, [sp], #-2
    1194:	0000010c 	andeq	r0, r0, ip, lsl #2
    1198:	0000010e 	andeq	r0, r0, lr, lsl #2
    119c:	107d0002 	rsbsne	r0, sp, r2
    11a0:	0000010e 	andeq	r0, r0, lr, lsl #2
    11a4:	00000124 	andeq	r0, r0, r4, lsr #2
    11a8:	10770002 	rsbsne	r0, r7, r2
    11ac:	00000124 	andeq	r0, r0, r4, lsr #2
    11b0:	00000126 	andeq	r0, r0, r6, lsr #2
    11b4:	04770002 	ldrbteq	r0, [r7], #-2
    11b8:	00000126 	andeq	r0, r0, r6, lsr #2
    11bc:	0000012a 	andeq	r0, r0, sl, lsr #2
    11c0:	047d0002 	ldrbteq	r0, [sp], #-2
    11c4:	0000012a 	andeq	r0, r0, sl, lsr #2
    11c8:	0000012c 	andeq	r0, r0, ip, lsr #2
    11cc:	007d0002 	rsbseq	r0, sp, r2
	...
    11d8:	0000012c 	andeq	r0, r0, ip, lsr #2
    11dc:	0000012e 	andeq	r0, r0, lr, lsr #2
    11e0:	007d0002 	rsbseq	r0, sp, r2
    11e4:	0000012e 	andeq	r0, r0, lr, lsr #2
    11e8:	00000130 	andeq	r0, r0, r0, lsr r1
    11ec:	087d0002 	ldmdaeq	sp!, {r1}^
    11f0:	00000130 	andeq	r0, r0, r0, lsr r1
    11f4:	00000132 	andeq	r0, r0, r2, lsr r1
    11f8:	107d0002 	rsbsne	r0, sp, r2
    11fc:	00000132 	andeq	r0, r0, r2, lsr r1
    1200:	0000014a 	andeq	r0, r0, sl, asr #2
    1204:	10770002 	rsbsne	r0, r7, r2
    1208:	0000014a 	andeq	r0, r0, sl, asr #2
    120c:	0000014c 	andeq	r0, r0, ip, asr #2
    1210:	08770002 	ldmdaeq	r7!, {r1}^
    1214:	0000014c 	andeq	r0, r0, ip, asr #2
    1218:	0000014e 	andeq	r0, r0, lr, asr #2
    121c:	087d0002 	ldmdaeq	sp!, {r1}^
	...
    1228:	00000150 	andeq	r0, r0, r0, asr r1
    122c:	00000152 	andeq	r0, r0, r2, asr r1
    1230:	007d0002 	rsbseq	r0, sp, r2
    1234:	00000152 	andeq	r0, r0, r2, asr r1
    1238:	00000154 	andeq	r0, r0, r4, asr r1
    123c:	047d0002 	ldrbteq	r0, [sp], #-2
    1240:	00000154 	andeq	r0, r0, r4, asr r1
    1244:	00000156 	andeq	r0, r0, r6, asr r1
    1248:	187d0002 	ldmdane	sp!, {r1}^
    124c:	00000156 	andeq	r0, r0, r6, asr r1
    1250:	0000016e 	andeq	r0, r0, lr, ror #2
    1254:	18770002 	ldmdane	r7!, {r1}^
    1258:	0000016e 	andeq	r0, r0, lr, ror #2
    125c:	00000170 	andeq	r0, r0, r0, ror r1
    1260:	04770002 	ldrbteq	r0, [r7], #-2
    1264:	00000170 	andeq	r0, r0, r0, ror r1
    1268:	00000174 	andeq	r0, r0, r4, ror r1
    126c:	047d0002 	ldrbteq	r0, [sp], #-2
    1270:	00000174 	andeq	r0, r0, r4, ror r1
    1274:	00000176 	andeq	r0, r0, r6, ror r1
    1278:	007d0002 	rsbseq	r0, sp, r2
	...
    1284:	00000178 	andeq	r0, r0, r8, ror r1
    1288:	0000017a 	andeq	r0, r0, sl, ror r1
    128c:	007d0002 	rsbseq	r0, sp, r2
    1290:	0000017a 	andeq	r0, r0, sl, ror r1
    1294:	0000017c 	andeq	r0, r0, ip, ror r1
    1298:	047d0002 	ldrbteq	r0, [sp], #-2
    129c:	0000017c 	andeq	r0, r0, ip, ror r1
    12a0:	0000017e 	andeq	r0, r0, lr, ror r1
    12a4:	187d0002 	ldmdane	sp!, {r1}^
    12a8:	0000017e 	andeq	r0, r0, lr, ror r1
    12ac:	0000019c 	muleq	r0, ip, r1
    12b0:	18770002 	ldmdane	r7!, {r1}^
    12b4:	0000019c 	muleq	r0, ip, r1
    12b8:	0000019e 	muleq	r0, lr, r1
    12bc:	04770002 	ldrbteq	r0, [r7], #-2
    12c0:	0000019e 	muleq	r0, lr, r1
    12c4:	000001a2 	andeq	r0, r0, r2, lsr #3
    12c8:	047d0002 	ldrbteq	r0, [sp], #-2
    12cc:	000001a2 	andeq	r0, r0, r2, lsr #3
    12d0:	000001a4 	andeq	r0, r0, r4, lsr #3
    12d4:	007d0002 	rsbseq	r0, sp, r2
	...
    12e0:	000001a4 	andeq	r0, r0, r4, lsr #3
    12e4:	000001a6 	andeq	r0, r0, r6, lsr #3
    12e8:	007d0002 	rsbseq	r0, sp, r2
    12ec:	000001a6 	andeq	r0, r0, r6, lsr #3
    12f0:	000001a8 	andeq	r0, r0, r8, lsr #3
    12f4:	047d0002 	ldrbteq	r0, [sp], #-2
    12f8:	000001a8 	andeq	r0, r0, r8, lsr #3
    12fc:	000001aa 	andeq	r0, r0, sl, lsr #3
    1300:	187d0002 	ldmdane	sp!, {r1}^
    1304:	000001aa 	andeq	r0, r0, sl, lsr #3
    1308:	000001c8 	andeq	r0, r0, r8, asr #3
    130c:	18770002 	ldmdane	r7!, {r1}^
    1310:	000001c8 	andeq	r0, r0, r8, asr #3
    1314:	000001ca 	andeq	r0, r0, sl, asr #3
    1318:	04770002 	ldrbteq	r0, [r7], #-2
    131c:	000001ca 	andeq	r0, r0, sl, asr #3
    1320:	000001ce 	andeq	r0, r0, lr, asr #3
    1324:	047d0002 	ldrbteq	r0, [sp], #-2
    1328:	000001ce 	andeq	r0, r0, lr, asr #3
    132c:	000001d0 	ldrdeq	r0, [r0], -r0	; <UNPREDICTABLE>
    1330:	007d0002 	rsbseq	r0, sp, r2
	...
    133c:	000001d0 	ldrdeq	r0, [r0], -r0	; <UNPREDICTABLE>
    1340:	000001d2 	ldrdeq	r0, [r0], -r2
    1344:	007d0002 	rsbseq	r0, sp, r2
    1348:	000001d2 	ldrdeq	r0, [r0], -r2
    134c:	000001d4 	ldrdeq	r0, [r0], -r4
    1350:	047d0002 	ldrbteq	r0, [sp], #-2
    1354:	000001d4 	ldrdeq	r0, [r0], -r4
    1358:	000001d6 	ldrdeq	r0, [r0], -r6
    135c:	187d0002 	ldmdane	sp!, {r1}^
    1360:	000001d6 	ldrdeq	r0, [r0], -r6
    1364:	000001ee 	andeq	r0, r0, lr, ror #3
    1368:	18770002 	ldmdane	r7!, {r1}^
    136c:	000001ee 	andeq	r0, r0, lr, ror #3
    1370:	000001f0 	strdeq	r0, [r0], -r0	; <UNPREDICTABLE>
    1374:	04770002 	ldrbteq	r0, [r7], #-2
    1378:	000001f0 	strdeq	r0, [r0], -r0	; <UNPREDICTABLE>
    137c:	000001f4 	strdeq	r0, [r0], -r4
    1380:	047d0002 	ldrbteq	r0, [sp], #-2
    1384:	000001f4 	strdeq	r0, [r0], -r4
    1388:	000001f6 	strdeq	r0, [r0], -r6
    138c:	007d0002 	rsbseq	r0, sp, r2
	...
    1398:	000001f8 	strdeq	r0, [r0], -r8
    139c:	000001fa 	strdeq	r0, [r0], -sl
    13a0:	007d0002 	rsbseq	r0, sp, r2
    13a4:	000001fa 	strdeq	r0, [r0], -sl
    13a8:	000001fc 	strdeq	r0, [r0], -ip
    13ac:	047d0002 	ldrbteq	r0, [sp], #-2
    13b0:	000001fc 	strdeq	r0, [r0], -ip
    13b4:	000001fe 	strdeq	r0, [r0], -lr
    13b8:	187d0002 	ldmdane	sp!, {r1}^
    13bc:	000001fe 	strdeq	r0, [r0], -lr
    13c0:	00000216 	andeq	r0, r0, r6, lsl r2
    13c4:	18770002 	ldmdane	r7!, {r1}^
    13c8:	00000216 	andeq	r0, r0, r6, lsl r2
    13cc:	00000218 	andeq	r0, r0, r8, lsl r2
    13d0:	04770002 	ldrbteq	r0, [r7], #-2
    13d4:	00000218 	andeq	r0, r0, r8, lsl r2
    13d8:	0000021c 	andeq	r0, r0, ip, lsl r2
    13dc:	047d0002 	ldrbteq	r0, [sp], #-2
    13e0:	0000021c 	andeq	r0, r0, ip, lsl r2
    13e4:	0000021e 	andeq	r0, r0, lr, lsl r2
    13e8:	007d0002 	rsbseq	r0, sp, r2
	...
    13f4:	00000220 	andeq	r0, r0, r0, lsr #4
    13f8:	00000222 	andeq	r0, r0, r2, lsr #4
    13fc:	007d0002 	rsbseq	r0, sp, r2
    1400:	00000222 	andeq	r0, r0, r2, lsr #4
    1404:	00000224 	andeq	r0, r0, r4, lsr #4
    1408:	047d0002 	ldrbteq	r0, [sp], #-2
    140c:	00000224 	andeq	r0, r0, r4, lsr #4
    1410:	00000226 	andeq	r0, r0, r6, lsr #4
    1414:	207d0002 	rsbscs	r0, sp, r2
    1418:	00000226 	andeq	r0, r0, r6, lsr #4
    141c:	00000286 	andeq	r0, r0, r6, lsl #5
    1420:	20770002 	rsbscs	r0, r7, r2
    1424:	00000286 	andeq	r0, r0, r6, lsl #5
    1428:	00000288 	andeq	r0, r0, r8, lsl #5
    142c:	04770002 	ldrbteq	r0, [r7], #-2
    1430:	00000288 	andeq	r0, r0, r8, lsl #5
    1434:	0000028c 	andeq	r0, r0, ip, lsl #5
    1438:	047d0002 	ldrbteq	r0, [sp], #-2
    143c:	0000028c 	andeq	r0, r0, ip, lsl #5
    1440:	0000028e 	andeq	r0, r0, lr, lsl #5
    1444:	007d0002 	rsbseq	r0, sp, r2
	...
    1450:	00000290 	muleq	r0, r0, r2
    1454:	00000292 	muleq	r0, r2, r2
    1458:	007d0002 	rsbseq	r0, sp, r2
    145c:	00000292 	muleq	r0, r2, r2
    1460:	00000294 	muleq	r0, r4, r2
    1464:	047d0002 	ldrbteq	r0, [sp], #-2
    1468:	00000294 	muleq	r0, r4, r2
    146c:	00000296 	muleq	r0, r6, r2
    1470:	187d0002 	ldmdane	sp!, {r1}^
    1474:	00000296 	muleq	r0, r6, r2
    1478:	000002da 	ldrdeq	r0, [r0], -sl
    147c:	18770002 	ldmdane	r7!, {r1}^
    1480:	000002da 	ldrdeq	r0, [r0], -sl
    1484:	000002dc 	ldrdeq	r0, [r0], -ip
    1488:	04770002 	ldrbteq	r0, [r7], #-2
    148c:	000002dc 	ldrdeq	r0, [r0], -ip
    1490:	000002e0 	andeq	r0, r0, r0, ror #5
    1494:	047d0002 	ldrbteq	r0, [sp], #-2
    1498:	000002e0 	andeq	r0, r0, r0, ror #5
    149c:	000002e2 	andeq	r0, r0, r2, ror #5
    14a0:	007d0002 	rsbseq	r0, sp, r2
	...
    14ac:	000002e4 	andeq	r0, r0, r4, ror #5
    14b0:	000002e6 	andeq	r0, r0, r6, ror #5
    14b4:	007d0002 	rsbseq	r0, sp, r2
    14b8:	000002e6 	andeq	r0, r0, r6, ror #5
    14bc:	000002e8 	andeq	r0, r0, r8, ror #5
    14c0:	047d0002 	ldrbteq	r0, [sp], #-2
    14c4:	000002e8 	andeq	r0, r0, r8, ror #5
    14c8:	000002ea 	andeq	r0, r0, sl, ror #5
    14cc:	187d0002 	ldmdane	sp!, {r1}^
    14d0:	000002ea 	andeq	r0, r0, sl, ror #5
    14d4:	0000032e 	andeq	r0, r0, lr, lsr #6
    14d8:	18770002 	ldmdane	r7!, {r1}^
    14dc:	0000032e 	andeq	r0, r0, lr, lsr #6
    14e0:	00000330 	andeq	r0, r0, r0, lsr r3
    14e4:	04770002 	ldrbteq	r0, [r7], #-2
    14e8:	00000330 	andeq	r0, r0, r0, lsr r3
    14ec:	00000334 	andeq	r0, r0, r4, lsr r3
    14f0:	047d0002 	ldrbteq	r0, [sp], #-2
    14f4:	00000334 	andeq	r0, r0, r4, lsr r3
    14f8:	00000336 	andeq	r0, r0, r6, lsr r3
    14fc:	007d0002 	rsbseq	r0, sp, r2
	...
    1508:	00000338 	andeq	r0, r0, r8, lsr r3
    150c:	0000033a 	andeq	r0, r0, sl, lsr r3
    1510:	007d0002 	rsbseq	r0, sp, r2
    1514:	0000033a 	andeq	r0, r0, sl, lsr r3
    1518:	0000033c 	andeq	r0, r0, ip, lsr r3
    151c:	047d0002 	ldrbteq	r0, [sp], #-2
    1520:	0000033c 	andeq	r0, r0, ip, lsr r3
    1524:	0000033e 	andeq	r0, r0, lr, lsr r3
    1528:	207d0002 	rsbscs	r0, sp, r2
    152c:	0000033e 	andeq	r0, r0, lr, lsr r3
    1530:	00000396 	muleq	r0, r6, r3
    1534:	20770002 	rsbscs	r0, r7, r2
    1538:	00000396 	muleq	r0, r6, r3
    153c:	00000398 	muleq	r0, r8, r3
    1540:	04770002 	ldrbteq	r0, [r7], #-2
    1544:	00000398 	muleq	r0, r8, r3
    1548:	0000039c 	muleq	r0, ip, r3
    154c:	047d0002 	ldrbteq	r0, [sp], #-2
    1550:	0000039c 	muleq	r0, ip, r3
    1554:	0000039e 	muleq	r0, lr, r3
    1558:	007d0002 	rsbseq	r0, sp, r2
	...
    1564:	000003a0 	andeq	r0, r0, r0, lsr #7
    1568:	000003a2 	andeq	r0, r0, r2, lsr #7
    156c:	007d0002 	rsbseq	r0, sp, r2
    1570:	000003a2 	andeq	r0, r0, r2, lsr #7
    1574:	000003a4 	andeq	r0, r0, r4, lsr #7
    1578:	087d0002 	ldmdaeq	sp!, {r1}^
    157c:	000003a4 	andeq	r0, r0, r4, lsr #7
    1580:	000003a6 	andeq	r0, r0, r6, lsr #7
    1584:	187d0002 	ldmdane	sp!, {r1}^
    1588:	000003a6 	andeq	r0, r0, r6, lsr #7
    158c:	000003f6 	strdeq	r0, [r0], -r6
    1590:	18770002 	ldmdane	r7!, {r1}^
    1594:	000003f6 	strdeq	r0, [r0], -r6
    1598:	000003f8 	strdeq	r0, [r0], -r8
    159c:	08770002 	ldmdaeq	r7!, {r1}^
    15a0:	000003f8 	strdeq	r0, [r0], -r8
    15a4:	000003fa 	strdeq	r0, [r0], -sl
    15a8:	087d0002 	ldmdaeq	sp!, {r1}^
	...

Disassembly of section .debug_aranges:

00000000 <.debug_aranges>:
   0:	0000001c 	andeq	r0, r0, ip, lsl r0
   4:	00000002 	andeq	r0, r0, r2
   8:	00040000 	andeq	r0, r4, r0
   c:	00000000 	andeq	r0, r0, r0
  10:	0000026c 	andeq	r0, r0, ip, ror #4
  14:	00000020 	andeq	r0, r0, r0, lsr #32
	...
  20:	0000001c 	andeq	r0, r0, ip, lsl r0
  24:	00d90002 	sbcseq	r0, r9, r2
  28:	00040000 	andeq	r0, r4, r0
  2c:	00000000 	andeq	r0, r0, r0
  30:	0000028c 	andeq	r0, r0, ip, lsl #5
  34:	00000164 	andeq	r0, r0, r4, ror #2
	...
  40:	0000001c 	andeq	r0, r0, ip, lsl r0
  44:	04320002 	ldrteq	r0, [r2], #-2
  48:	00040000 	andeq	r0, r4, r0
  4c:	00000000 	andeq	r0, r0, r0
  50:	000003f0 	strdeq	r0, [r0], -r0	; <UNPREDICTABLE>
  54:	00000074 	andeq	r0, r0, r4, ror r0
	...
  60:	0000001c 	andeq	r0, r0, ip, lsl r0
  64:	05980002 	ldreq	r0, [r8, #2]
  68:	00040000 	andeq	r0, r4, r0
  6c:	00000000 	andeq	r0, r0, r0
  70:	00000464 	andeq	r0, r0, r4, ror #8
  74:	00000980 	andeq	r0, r0, r0, lsl #19
	...
  80:	0000001c 	andeq	r0, r0, ip, lsl r0
  84:	0d680002 	stcleq	0, cr0, [r8, #-8]!
  88:	00040000 	andeq	r0, r4, r0
  8c:	00000000 	andeq	r0, r0, r0
  90:	00000de4 	andeq	r0, r0, r4, ror #27
  94:	00000084 	andeq	r0, r0, r4, lsl #1
	...
  a0:	0000001c 	andeq	r0, r0, ip, lsl r0
  a4:	0dc30002 	stcleq	0, cr0, [r3, #8]
  a8:	00040000 	andeq	r0, r4, r0
  ac:	00000000 	andeq	r0, r0, r0
  b0:	00000e68 	andeq	r0, r0, r8, ror #28
  b4:	00000626 	andeq	r0, r0, r6, lsr #12
	...
  c0:	0000001c 	andeq	r0, r0, ip, lsl r0
  c4:	148b0002 	strne	r0, [fp], #2
  c8:	00040000 	andeq	r0, r4, r0
  cc:	00000000 	andeq	r0, r0, r0
  d0:	00001490 	muleq	r0, r0, r4
  d4:	000003fa 	strdeq	r0, [r0], -sl
	...

Disassembly of section .debug_line:

00000000 <.debug_line>:
   0:	0000003f 	andeq	r0, r0, pc, lsr r0
   4:	00230002 	eoreq	r0, r3, r2
   8:	01020000 	mrseq	r0, (UNDEF: 2)
   c:	000d0efb 	strdeq	r0, [sp], -fp
  10:	01010101 	tsteq	r1, r1, lsl #2
  14:	01000000 	mrseq	r0, (UNDEF: 0)
  18:	00010000 	andeq	r0, r1, r0
  1c:	5f746e69 	svcpl	0x00746e69
  20:	74636576 	strbtvc	r6, [r3], #-1398	; 0xfffffa8a
  24:	632e726f 			; <UNDEFINED> instruction: 0x632e726f
  28:	00000000 	andeq	r0, r0, r0
  2c:	02050000 	andeq	r0, r5, #0
  30:	0000026c 	andeq	r0, r0, ip, ror #4
  34:	0101ae03 	tsteq	r1, r3, lsl #28
  38:	312f312f 			; <UNDEFINED> instruction: 0x312f312f
  3c:	03023d2f 	movweq	r3, #11567	; 0x2d2f
  40:	c9010100 	stmdbgt	r1, {r8}
  44:	02000000 	andeq	r0, r0, #0
  48:	00008d00 	andeq	r8, r0, r0, lsl #26
  4c:	fb010200 	blx	40856 <_etext+0x3edca>
  50:	01000d0e 	tsteq	r0, lr, lsl #26
  54:	00010101 	andeq	r0, r1, r1, lsl #2
  58:	00010000 	andeq	r0, r1, r0
  5c:	752f0100 	strvc	r0, [pc, #-256]!	; ffffff64 <_stack_top+0xdfff3f64>
  60:	692f7273 	stmdbvs	pc!, {r0, r1, r4, r5, r6, r9, ip, sp, lr}	; <UNPREDICTABLE>
  64:	756c636e 	strbvc	r6, [ip, #-878]!	; 0xfffffc92
  68:	6e2f6564 	cfsh64vs	mvdx6, mvdx15, #52
  6c:	696c7765 	stmdbvs	ip!, {r0, r2, r5, r6, r8, r9, sl, ip, sp, lr}^
  70:	616d2f62 	cmnvs	sp, r2, ror #30
  74:	6e696863 	cdpvs	8, 6, cr6, cr9, cr3, {3}
  78:	752f0065 	strvc	r0, [pc, #-101]!	; 1b <_text+0x1b>
  7c:	692f7273 	stmdbvs	pc!, {r0, r1, r4, r5, r6, r9, ip, sp, lr}	; <UNPREDICTABLE>
  80:	756c636e 	strbvc	r6, [ip, #-878]!	; 0xfffffc92
  84:	6e2f6564 	cfsh64vs	mvdx6, mvdx15, #52
  88:	696c7765 	stmdbvs	ip!, {r0, r2, r5, r6, r8, r9, sl, ip, sp, lr}^
  8c:	79732f62 	ldmdbvc	r3!, {r1, r5, r6, r8, r9, sl, fp, sp}^
  90:	6e690073 	mcrvs	0, 3, r0, cr9, cr3, {3}
  94:	64756c63 	ldrbtvs	r6, [r5], #-3171	; 0xfffff39d
  98:	6d000065 	stcvs	0, cr0, [r0, #-404]	; 0xfffffe6c
  9c:	2e6e6961 	cdpcs	9, 6, cr6, cr14, cr1, {3}
  a0:	00000063 	andeq	r0, r0, r3, rrx
  a4:	65645f00 	strbvs	r5, [r4, #-3840]!	; 0xfffff100
  a8:	6c756166 	ldfvse	f6, [r5], #-408	; 0xfffffe68
  ac:	79745f74 	ldmdbvc	r4!, {r2, r4, r5, r6, r8, r9, sl, fp, ip, lr}^
  b0:	2e736570 	mrccs	5, 3, r6, cr3, cr0, {3}
  b4:	00010068 	andeq	r0, r1, r8, rrx
  b8:	74735f00 	ldrbtvc	r5, [r3], #-3840	; 0xfffff100
  bc:	746e6964 	strbtvc	r6, [lr], #-2404	; 0xfffff69c
  c0:	0200682e 	andeq	r6, r0, #3014656	; 0x2e0000
  c4:	696c0000 	stmdbvs	ip!, {}^	; <UNPREDICTABLE>
  c8:	00682e62 	rsbeq	r2, r8, r2, ror #28
  cc:	74000003 	strvc	r0, [r0], #-3
  d0:	2e6b7361 	cdpcs	3, 6, cr7, cr11, cr1, {3}
  d4:	00030068 	andeq	r0, r3, r8, rrx
  d8:	05000000 	streq	r0, [r0, #-0]
  dc:	00028c02 	andeq	r8, r2, r2, lsl #24
  e0:	01090300 	mrseq	r0, (UNDEF: 57)
  e4:	3d213d3d 	stccc	13, cr3, [r1, #-244]!	; 0xffffff0c
  e8:	0a035c3a 	beq	d71d8 <_etext+0xd574c>
  ec:	4b3e4b9e 	blmi	f92f6c <_etext+0xf914e0>
  f0:	4ba24b3d 	blmi	fe892dec <_stack_top+0xde886dec>
  f4:	59062006 	stmdbpl	r6, {r1, r2, sp}
  f8:	3d4b4d69 	stclcc	13, cr4, [fp, #-420]	; 0xfffffe5c
  fc:	4b4c863d 	blmi	13219f8 <_etext+0x131ff6c>
 100:	3e303e6b 	cdpcc	14, 3, cr3, cr0, cr11, {3}
 104:	91307675 	teqls	r0, r5, ror r6
 108:	02305993 	eorseq	r5, r0, #2408448	; 0x24c000
 10c:	01010015 	tsteq	r1, r5, lsl r0
 110:	000000a3 	andeq	r0, r0, r3, lsr #1
 114:	00820002 	addeq	r0, r2, r2
 118:	01020000 	mrseq	r0, (UNDEF: 2)
 11c:	000d0efb 	strdeq	r0, [sp], -fp
 120:	01010101 	tsteq	r1, r1, lsl #2
 124:	01000000 	mrseq	r0, (UNDEF: 0)
 128:	2f010000 	svccs	0x00010000
 12c:	2f727375 	svccs	0x00727375
 130:	6c636e69 	stclvs	14, cr6, [r3], #-420	; 0xfffffe5c
 134:	2f656475 	svccs	0x00656475
 138:	6c77656e 	cfldr64vs	mvdx6, [r7], #-440	; 0xfffffe48
 13c:	6d2f6269 	sfmvs	f6, 4, [pc, #-420]!	; ffffffa0 <_stack_top+0xdfff3fa0>
 140:	69686361 	stmdbvs	r8!, {r0, r5, r6, r8, r9, sp, lr}^
 144:	2f00656e 	svccs	0x0000656e
 148:	2f727375 	svccs	0x00727375
 14c:	6c636e69 	stclvs	14, cr6, [r3], #-420	; 0xfffffe5c
 150:	2f656475 	svccs	0x00656475
 154:	6c77656e 	cfldr64vs	mvdx6, [r7], #-440	; 0xfffffe48
 158:	732f6269 			; <UNDEFINED> instruction: 0x732f6269
 15c:	69007379 	stmdbvs	r0, {r0, r3, r4, r5, r6, r8, r9, ip, sp, lr}
 160:	756c636e 	strbvc	r6, [ip, #-878]!	; 0xfffffc92
 164:	00006564 	andeq	r6, r0, r4, ror #10
 168:	2e336d63 	cdpcs	13, 3, cr6, cr3, cr3, {3}
 16c:	00000063 	andeq	r0, r0, r3, rrx
 170:	65645f00 	strbvs	r5, [r4, #-3840]!	; 0xfffff100
 174:	6c756166 	ldfvse	f6, [r5], #-408	; 0xfffffe68
 178:	79745f74 	ldmdbvc	r4!, {r2, r4, r5, r6, r8, r9, sl, fp, ip, lr}^
 17c:	2e736570 	mrccs	5, 3, r6, cr3, cr0, {3}
 180:	00010068 	andeq	r0, r1, r8, rrx
 184:	74735f00 	ldrbtvc	r5, [r3], #-3840	; 0xfffff100
 188:	746e6964 	strbtvc	r6, [lr], #-2404	; 0xfffff69c
 18c:	0200682e 	andeq	r6, r0, #3014656	; 0x2e0000
 190:	6d630000 	stclvs	0, cr0, [r3, #-0]
 194:	00682e33 	rsbeq	r2, r8, r3, lsr lr
 198:	00000003 	andeq	r0, r0, r3
 19c:	f0020500 			; <UNDEFINED> instruction: 0xf0020500
 1a0:	17000003 	strne	r0, [r0, -r3]
 1a4:	3d2f2f4b 	stccc	15, cr2, [pc, #-300]!	; 80 <_text+0x80>
 1a8:	933d3d83 	teqls	sp, #8384	; 0x20c0
 1ac:	2f312f30 	svccs	0x00312f30
 1b0:	09024b3d 	stmdbeq	r2, {r0, r2, r3, r4, r5, r8, r9, fp, lr}
 1b4:	0d010100 	stfeqs	f0, [r1, #-0]
 1b8:	02000002 	andeq	r0, r0, #2
 1bc:	0000b900 	andeq	fp, r0, r0, lsl #18
 1c0:	fb010200 	blx	409ca <_etext+0x3ef3e>
 1c4:	01000d0e 	tsteq	r0, lr, lsl #26
 1c8:	00010101 	andeq	r0, r1, r1, lsl #2
 1cc:	00010000 	andeq	r0, r1, r0
 1d0:	752f0100 	strvc	r0, [pc, #-256]!	; d8 <_text+0xd8>
 1d4:	6c2f7273 	sfmvs	f7, 4, [pc], #-460	; 10 <_text+0x10>
 1d8:	672f6269 	strvs	r6, [pc, -r9, ror #4]!
 1dc:	612f6363 			; <UNDEFINED> instruction: 0x612f6363
 1e0:	6e2d6d72 	mcrvs	13, 1, r6, cr13, cr2, {3}
 1e4:	2d656e6f 	stclcs	14, cr6, [r5, #-444]!	; 0xfffffe44
 1e8:	69626165 	stmdbvs	r2!, {r0, r2, r5, r6, r8, sp, lr}^
 1ec:	392e342f 	stmdbcc	lr!, {r0, r1, r2, r3, r5, sl, ip, sp}
 1f0:	692f332e 	stmdbvs	pc!, {r1, r2, r3, r5, r8, r9, ip, sp}	; <UNPREDICTABLE>
 1f4:	756c636e 	strbvc	r6, [ip, #-878]!	; 0xfffffc92
 1f8:	2f006564 	svccs	0x00006564
 1fc:	2f727375 	svccs	0x00727375
 200:	6c636e69 	stclvs	14, cr6, [r3], #-420	; 0xfffffe5c
 204:	2f656475 	svccs	0x00656475
 208:	6c77656e 	cfldr64vs	mvdx6, [r7], #-440	; 0xfffffe48
 20c:	6d2f6269 	sfmvs	f6, 4, [pc, #-420]!	; 70 <_text+0x70>
 210:	69686361 	stmdbvs	r8!, {r0, r5, r6, r8, r9, sp, lr}^
 214:	2f00656e 	svccs	0x0000656e
 218:	2f727375 	svccs	0x00727375
 21c:	6c636e69 	stclvs	14, cr6, [r3], #-420	; 0xfffffe5c
 220:	2f656475 	svccs	0x00656475
 224:	6c77656e 	cfldr64vs	mvdx6, [r7], #-440	; 0xfffffe48
 228:	732f6269 			; <UNDEFINED> instruction: 0x732f6269
 22c:	00007379 	andeq	r7, r0, r9, ror r3
 230:	735f736f 	cmpvc	pc, #-1140850687	; 0xbc000001
 234:	6f696474 	svcvs	0x00696474
 238:	0000632e 	andeq	r6, r0, lr, lsr #6
 23c:	74730000 	ldrbtvc	r0, [r3], #-0
 240:	67726164 	ldrbvs	r6, [r2, -r4, ror #2]!
 244:	0100682e 	tsteq	r0, lr, lsr #16
 248:	645f0000 	ldrbvs	r0, [pc], #-0	; 250 <_text+0x250>
 24c:	75616665 	strbvc	r6, [r1, #-1637]!	; 0xfffff99b
 250:	745f746c 	ldrbvc	r7, [pc], #-1132	; 258 <_text+0x258>
 254:	73657079 	cmnvc	r5, #121	; 0x79
 258:	0200682e 	andeq	r6, r0, #3014656	; 0x2e0000
 25c:	735f0000 	cmpvc	pc, #0
 260:	6e696474 	mcrvs	4, 3, r6, cr9, cr4, {3}
 264:	00682e74 	rsbeq	r2, r8, r4, ror lr
 268:	3c000003 	stccc	0, cr0, [r0], {3}
 26c:	6c697562 	cfstr64vs	mvdx7, [r9], #-392	; 0xfffffe78
 270:	6e692d74 	mcrvs	13, 3, r2, cr9, cr4, {3}
 274:	0000003e 	andeq	r0, r0, lr, lsr r0
 278:	05000000 	streq	r0, [r0, #-0]
 27c:	00046402 	andeq	r6, r4, r2, lsl #8
 280:	4b4b1800 	blmi	12c6288 <_etext+0x12c47fc>
 284:	3d5a8a2f 	vldrcc	s17, [sl, #-188]	; 0xffffff44
 288:	3c062c75 	stccc	12, cr2, [r6], {117}	; 0x75
 28c:	85214106 	strhi	r4, [r1, #-262]!	; 0xfffffefa
 290:	3c3c0659 	ldccc	6, cr0, [ip], #-356	; 0xfffffe9c
 294:	062e3c3c 			; <UNDEFINED> instruction: 0x062e3c3c
 298:	06596921 	ldrbeq	r6, [r9], -r1, lsr #18
 29c:	3c3c3c3c 	ldccc	12, cr3, [ip], #-240	; 0xffffff10
 2a0:	062e3c3c 			; <UNDEFINED> instruction: 0x062e3c3c
 2a4:	2f596921 	svccs	0x00596921
 2a8:	3d5a3030 	ldclcc	0, cr3, [sl, #-192]	; 0xffffff40
 2ac:	4b5b215b 	blmi	16c8820 <_etext+0x16c6d94>
 2b0:	063a5921 	ldrteq	r5, [sl], -r1, lsr #18
 2b4:	214f063c 	cmpcs	pc, ip, lsr r6	; <UNPREDICTABLE>
 2b8:	4c2f595b 	stcmi	9, cr5, [pc], #-364	; 154 <_text+0x154>
 2bc:	3d063c06 	stccc	12, cr3, [r6, #-24]	; 0xffffffe8
 2c0:	4bc94b30 	blmi	ff252f88 <_stack_top+0xdf246f88>
 2c4:	063c0647 	ldrteq	r0, [ip], -r7, asr #12
 2c8:	59772142 	ldmdbpl	r7!, {r1, r6, r8, sp}^
 2cc:	3c064c2f 	stccc	12, cr4, [r6], {47}	; 0x2f
 2d0:	4b303d06 	blmi	c0f6f0 <_etext+0xc0dc64>
 2d4:	06474bc9 	strbeq	r4, [r7], -r9, asr #23
 2d8:	2142063c 	cmpcs	r2, ip, lsr r6
 2dc:	4b741d03 	blmi	1d076f0 <_etext+0x1d05c64>
 2e0:	67324b2f 	ldrvs	r4, [r2, -pc, lsr #22]!
 2e4:	48244b3d 	stmdami	r4!, {r0, r2, r3, r4, r5, r8, r9, fp, lr}
 2e8:	e5213f23 	str	r3, [r1, #-3875]!	; 0xfffff0dd
 2ec:	2f91d72f 	svccs	0x0091d72f
 2f0:	1f57c984 	svcne	0x0057c984
 2f4:	56c9303f 			; <UNDEFINED> instruction: 0x56c9303f
 2f8:	2f3ec740 	svccs	0x003ec740
 2fc:	d72fe5e5 	strle	lr, [pc, -r5, ror #11]!
 300:	e5832f91 	str	r2, [r3, #3985]	; 0xf91
 304:	2f91d72f 	svccs	0x0091d72f
 308:	762f8383 	strtvc	r8, [pc], -r3, lsl #7
 30c:	4b59312f 	blmi	164c7d0 <_etext+0x164ad44>
 310:	4a56033e 	bmi	1581010 <_etext+0x157f584>
 314:	214a2d03 	cmpcs	sl, r3, lsl #26
 318:	4c5b3e94 	mrrcmi	14, 9, r3, fp, cr4
 31c:	3d3d3e31 	ldccc	14, cr3, [sp, #-196]!	; 0xffffff3c
 320:	3c06675b 	stccc	7, cr6, [r6], {91}	; 0x5b
 324:	063c3c3c 			; <UNDEFINED> instruction: 0x063c3c3c
 328:	063c063d 			; <UNDEFINED> instruction: 0x063c063d
 32c:	5a3e593d 	bpl	f96828 <_etext+0xf94d9c>
 330:	49022230 	stmdbmi	r2, {r4, r5, r9, sp}
 334:	83227514 			; <UNDEFINED> instruction: 0x83227514
 338:	75228322 	strvc	r8, [r2, #-802]!	; 0xfffffcde
 33c:	23228322 			; <UNDEFINED> instruction: 0x23228322
 340:	75695b3e 	strbvc	r5, [r9, #-2878]!	; 0xfffff4c2
 344:	3c06302f 	stccc	0, cr3, [r6], {47}	; 0x2f
 348:	214c0682 	smlalbbcs	r0, ip, r2, r6
 34c:	2f2f6777 	svccs	0x002f6777
 350:	ac3c0630 	ldcge	6, cr0, [ip], #-192	; 0xffffff40
 354:	77214c06 	strvc	r4, [r1, -r6, lsl #24]!
 358:	302f2f67 	eorcc	r2, pc, r7, ror #30
 35c:	061e673d 			; <UNDEFINED> instruction: 0x061e673d
 360:	4b500690 	blmi	1401da8 <_etext+0x140031c>
 364:	59692230 	stmdbpl	r9!, {r4, r5, r9, sp}^
 368:	3a3d214c 	bcc	f488a0 <_etext+0xf46e14>
 36c:	064a4a06 	strbeq	r4, [sl], -r6, lsl #20
 370:	6769676b 	strbvs	r6, [r9, -fp, ror #14]!
 374:	6721304b 	strvs	r3, [r1, -fp, asr #32]!
 378:	06376730 			; <UNDEFINED> instruction: 0x06376730
 37c:	09030690 	stmdbeq	r3, {r4, r7, r9, sl}
 380:	5969214a 	stmdbpl	r9!, {r1, r3, r6, r8, sp}^
 384:	064c2f2f 	strbeq	r2, [ip], -pc, lsr #30
 388:	5906584a 	stmdbpl	r6, {r1, r3, r6, fp, ip, lr}
 38c:	3d21313d 	stfccs	f3, [r1, #-244]!	; 0xffffff0c
 390:	4a063e83 	bmi	18fda4 <_etext+0x18e318>
 394:	06594b06 	ldrbeq	r4, [r9], -r6, lsl #22
 398:	5a4b064a 	bpl	12c1cc8 <_etext+0x12c023c>
 39c:	4d3f8369 	ldcmi	3, cr8, [pc, #-420]!	; 200 <_text+0x200>
 3a0:	3c6a0376 	stclcc	3, cr0, [sl], #-472	; 0xfffffe28
 3a4:	3e4a1903 	cdpcc	9, 4, cr1, cr10, cr3, {0}
 3a8:	31594d21 	cmpcc	r9, r1, lsr #26
 3ac:	3059834b 	subscc	r8, r9, fp, asr #6
 3b0:	304b5b5a 	subcc	r5, fp, sl, asr fp
 3b4:	68062006 	stmdavs	r6, {r1, r2, sp}
 3b8:	4c59693d 	mrrcmi	9, 3, r6, r9, cr13
 3bc:	393d4b21 	ldmdbcc	sp!, {r0, r5, r8, r9, fp, lr}
 3c0:	02213e4f 	eoreq	r3, r1, #1264	; 0x4f0
 3c4:	01010006 	tsteq	r1, r6
 3c8:	00000064 	andeq	r0, r0, r4, rrx
 3cc:	001e0002 	andseq	r0, lr, r2
 3d0:	01020000 	mrseq	r0, (UNDEF: 2)
 3d4:	000d0efb 	strdeq	r0, [sp], -fp
 3d8:	01010101 	tsteq	r1, r1, lsl #2
 3dc:	01000000 	mrseq	r0, (UNDEF: 0)
 3e0:	00010000 	andeq	r0, r1, r0
 3e4:	5f336d63 	svcpl	0x00336d63
 3e8:	00732e73 	rsbseq	r2, r3, r3, ror lr
 3ec:	00000000 	andeq	r0, r0, r0
 3f0:	e4020500 	str	r0, [r2], #-1280	; 0xfffffb00
 3f4:	0300000d 	movweq	r0, #13
 3f8:	2f2f0119 	svccs	0x002f0119
 3fc:	21302f2f 	teqcs	r0, pc, lsr #30
 400:	23212122 			; <UNDEFINED> instruction: 0x23212122
 404:	232f232f 			; <UNDEFINED> instruction: 0x232f232f
 408:	242f232f 	strtcs	r2, [pc], #-815	; 410 <init_systick+0x20>
 40c:	212f272f 			; <UNDEFINED> instruction: 0x212f272f
 410:	21212521 			; <UNDEFINED> instruction: 0x21212521
 414:	30212321 	eorcc	r2, r1, r1, lsr #6
 418:	2f232f2f 	svccs	0x00232f2f
 41c:	21232f23 			; <UNDEFINED> instruction: 0x21232f23
 420:	bc032123 	stflts	f2, [r3], {35}	; 0x23
 424:	03312e7f 	teqeq	r1, #2032	; 0x7f0
 428:	02362e1f 	eorseq	r2, r6, #496	; 0x1f0
 42c:	01010002 	tsteq	r1, r2
 430:	00000146 	andeq	r0, r0, r6, asr #2
 434:	008d0002 	addeq	r0, sp, r2
 438:	01020000 	mrseq	r0, (UNDEF: 2)
 43c:	000d0efb 	strdeq	r0, [sp], -fp
 440:	01010101 	tsteq	r1, r1, lsl #2
 444:	01000000 	mrseq	r0, (UNDEF: 0)
 448:	2f010000 	svccs	0x00010000
 44c:	2f727375 	svccs	0x00727375
 450:	6c636e69 	stclvs	14, cr6, [r3], #-420	; 0xfffffe5c
 454:	2f656475 	svccs	0x00656475
 458:	6c77656e 	cfldr64vs	mvdx6, [r7], #-440	; 0xfffffe48
 45c:	6d2f6269 	sfmvs	f6, 4, [pc, #-420]!	; 2c0 <clear_bss+0x34>
 460:	69686361 	stmdbvs	r8!, {r0, r5, r6, r8, r9, sp, lr}^
 464:	2f00656e 	svccs	0x0000656e
 468:	2f727375 	svccs	0x00727375
 46c:	6c636e69 	stclvs	14, cr6, [r3], #-420	; 0xfffffe5c
 470:	2f656475 	svccs	0x00656475
 474:	6c77656e 	cfldr64vs	mvdx6, [r7], #-440	; 0xfffffe48
 478:	732f6269 			; <UNDEFINED> instruction: 0x732f6269
 47c:	69007379 	stmdbvs	r0, {r0, r3, r4, r5, r6, r8, r9, ip, sp, lr}
 480:	756c636e 	strbvc	r6, [ip, #-878]!	; 0xfffffc92
 484:	00006564 	andeq	r6, r0, r4, ror #10
 488:	6b736174 	blvs	1cd8a60 <_etext+0x1cd6fd4>
 48c:	0000632e 	andeq	r6, r0, lr, lsr #6
 490:	645f0000 	ldrbvs	r0, [pc], #-0	; 498 <is_dec_asc+0x10>
 494:	75616665 	strbvc	r6, [r1, #-1637]!	; 0xfffff99b
 498:	745f746c 	ldrbvc	r7, [pc], #-1132	; 4a0 <is_dec_asc+0x18>
 49c:	73657079 	cmnvc	r5, #121	; 0x79
 4a0:	0100682e 	tsteq	r0, lr, lsr #16
 4a4:	735f0000 	cmpvc	pc, #0
 4a8:	6e696474 	mcrvs	4, 3, r6, cr9, cr4, {3}
 4ac:	00682e74 	rsbeq	r2, r8, r4, ror lr
 4b0:	6c000002 	stcvs	0, cr0, [r0], {2}
 4b4:	682e6269 	stmdavs	lr!, {r0, r3, r5, r6, r9, sp, lr}
 4b8:	00000300 	andeq	r0, r0, r0, lsl #6
 4bc:	6b736174 	blvs	1cd8a94 <_etext+0x1cd7008>
 4c0:	0300682e 	movweq	r6, #2094	; 0x82e
 4c4:	00000000 	andeq	r0, r0, r0
 4c8:	0e680205 	cdpeq	2, 6, cr0, cr8, cr5, {0}
 4cc:	11030000 	mrsne	r0, (UNDEF: 3)
 4d0:	75324b01 	ldrvc	r4, [r2, #-2817]!	; 0xfffff4ff
 4d4:	6767754b 	strbvs	r7, [r7, -fp, asr #10]!
 4d8:	67676767 	strbvs	r6, [r7, -r7, ror #14]!
 4dc:	67676767 	strbvs	r6, [r7, -r7, ror #14]!
 4e0:	67676767 	strbvs	r6, [r7, -r7, ror #14]!
 4e4:	3d3d3e68 	ldccc	14, cr3, [sp, #-416]!	; 0xfffffe60
 4e8:	593d3d5a 	ldmdbpl	sp!, {r1, r3, r4, r6, r8, sl, fp, ip, sp}
 4ec:	af3d4dc9 	svcge	0x003d4dc9
 4f0:	234b3f3d 	movtcs	r3, #48957	; 0xbf3d
 4f4:	323d593d 	eorscc	r5, sp, #999424	; 0xf4000
 4f8:	2fa1213d 	svccs	0x00a1213d
 4fc:	4b2f694b 	blmi	bdaa30 <_etext+0xbd8fa4>
 500:	a14b3d3d 	cmpge	fp, sp, lsr sp
 504:	5a67424b 	bpl	19d0e38 <_etext+0x19cf3ac>
 508:	4b5b2f3d 	blmi	16cc204 <_etext+0x16ca778>
 50c:	3d3d3f75 	ldccc	15, cr3, [sp, #-468]!	; 0xfffffe2c
 510:	21333d2f 	teqcs	r3, pc, lsr #26
 514:	3d963d3d 	ldccc	13, cr3, [r6, #244]	; 0xf4
 518:	033c7603 	teqeq	ip, #3145728	; 0x300000
 51c:	e5834a12 	str	r4, [r3, #2578]	; 0xa12
 520:	3d4ef3f3 	stclcc	3, cr15, [lr, #-972]	; 0xfffffc34
 524:	3d3d932f 	ldccc	3, cr9, [sp, #-188]!	; 0xffffff44
 528:	3d3d3d2f 	ldccc	13, cr3, [sp, #-188]!	; 0xffffff44
 52c:	063c069d 			; <UNDEFINED> instruction: 0x063c069d
 530:	083d8340 	ldmdaeq	sp!, {r6, r8, r9, pc}
 534:	2f3d3d3f 	svccs	0x003d3d3f
 538:	3d4b5b21 	vstrcc	d21, [fp, #-132]	; 0xffffff7c
 53c:	3e3d3f2f 	cdpcc	15, 3, cr3, cr13, cr15, {1}
 540:	5b3d684b 	blpl	f5a674 <_etext+0xf58be8>
 544:	9f4b3d3d 	svcls	0x004b3d3d
 548:	445b3d31 	ldrbmi	r3, [fp], #-3377	; 0xfffff2cf
 54c:	852fad4b 	strhi	sl, [pc, #-3403]!	; fffff809 <_stack_top+0xdfff3809>
 550:	8567d74b 	strbhi	sp, [r7, #-1867]!	; 0xfffff8b5
 554:	68d7d74b 	ldmvs	r7, {r0, r1, r3, r6, r8, r9, sl, ip, lr, pc}^
 558:	3d598567 	cfldr64cc	mvdx8, [r9, #-412]	; 0xfffffe64
 55c:	4b696767 	blmi	1a5a300 <_etext+0x1a58874>
 560:	4b696767 	blmi	1a5a304 <_etext+0x1a58878>
 564:	6875683f 	ldmdavs	r5!, {r0, r1, r2, r3, r4, r5, fp, sp, lr}^
 568:	3d34593d 	ldccc	9, cr5, [r4, #-244]!	; 0xffffff0c
 56c:	673e4b5b 			; <UNDEFINED> instruction: 0x673e4b5b
 570:	313d6791 	teqcc	sp, r1	; <illegal shifter operand>
 574:	0003023d 	andeq	r0, r3, sp, lsr r2
 578:	01300101 	teqeq	r0, r1, lsl #2
 57c:	00020000 	andeq	r0, r2, r0
 580:	00000082 	andeq	r0, r0, r2, lsl #1
 584:	0efb0102 	cdpeq	1, 15, cr0, cr11, cr2, {0}
 588:	0101000d 	tsteq	r1, sp
 58c:	00000101 	andeq	r0, r0, r1, lsl #2
 590:	00000100 	andeq	r0, r0, r0, lsl #2
 594:	73752f01 	cmnvc	r5, #1, 30
 598:	6e692f72 	mcrvs	15, 3, r2, cr9, cr2, {3}
 59c:	64756c63 	ldrbtvs	r6, [r5], #-3171	; 0xfffff39d
 5a0:	656e2f65 	strbvs	r2, [lr, #-3941]!	; 0xfffff09b
 5a4:	62696c77 	rsbvs	r6, r9, #30464	; 0x7700
 5a8:	63616d2f 	cmnvs	r1, #3008	; 0xbc0
 5ac:	656e6968 	strbvs	r6, [lr, #-2408]!	; 0xfffff698
 5b0:	73752f00 	cmnvc	r5, #0, 30
 5b4:	6e692f72 	mcrvs	15, 3, r2, cr9, cr2, {3}
 5b8:	64756c63 	ldrbtvs	r6, [r5], #-3171	; 0xfffff39d
 5bc:	656e2f65 	strbvs	r2, [lr, #-3941]!	; 0xfffff09b
 5c0:	62696c77 	rsbvs	r6, r9, #30464	; 0x7700
 5c4:	7379732f 	cmnvc	r9, #-1140850688	; 0xbc000000
 5c8:	636e6900 	cmnvs	lr, #0, 18
 5cc:	6564756c 	strbvs	r7, [r4, #-1388]!	; 0xfffffa94
 5d0:	696c0000 	stmdbvs	ip!, {}^	; <UNPREDICTABLE>
 5d4:	00632e62 	rsbeq	r2, r3, r2, ror #28
 5d8:	5f000000 	svcpl	0x00000000
 5dc:	61666564 	cmnvs	r6, r4, ror #10
 5e0:	5f746c75 	svcpl	0x00746c75
 5e4:	65707974 	ldrbvs	r7, [r0, #-2420]!	; 0xfffff68c
 5e8:	00682e73 	rsbeq	r2, r8, r3, ror lr
 5ec:	5f000001 	svcpl	0x00000001
 5f0:	69647473 	stmdbvs	r4!, {r0, r1, r4, r5, r6, sl, ip, sp, lr}^
 5f4:	682e746e 	stmdavs	lr!, {r1, r2, r3, r5, r6, sl, ip, sp, lr}
 5f8:	00000200 	andeq	r0, r0, r0, lsl #4
 5fc:	2e62696c 	cdpcs	9, 6, cr6, cr2, cr12, {3}
 600:	00030068 	andeq	r0, r3, r8, rrx
 604:	05000000 	streq	r0, [r0, #-0]
 608:	00149002 	andseq	r9, r4, r2
 60c:	3d4b1500 	cfstr64cc	mvdx1, [fp, #-0]
 610:	5b212f5b 	blpl	84c384 <_etext+0x84a8f8>
 614:	59699159 	stmdbpl	r9!, {r0, r3, r4, r6, r8, ip, pc}^
 618:	034b5b9f 	movteq	r5, #48031	; 0xbb9f
 61c:	75592e15 	ldrbvc	r2, [r9, #-3605]	; 0xfffff1eb
 620:	91679167 	cmnls	r7, r7, ror #2
 624:	213f8467 	teqcs	pc, r7, ror #8
 628:	3d3d4b69 	fldmdbxcc	sp!, {d4-d55}	;@ Deprecated
 62c:	3d4c5b3e 	vstrcc	d21, [ip, #-248]	; 0xffffff08
 630:	4b4d4c3d 	blmi	135372c <_etext+0x1351ca0>
 634:	213e3d2f 	teqcs	lr, pc, lsr #26
 638:	2f2f4b77 	svccs	0x002f4b77
 63c:	69213e4b 	stmdbvs	r1!, {r0, r1, r3, r6, r9, sl, fp, ip, sp}
 640:	4b2f2f4b 	blmi	bcc374 <_etext+0xbca8e8>
 644:	4b69213e 	blmi	1a48b44 <_etext+0x1a470b8>
 648:	213e3d2f 	teqcs	lr, pc, lsr #26
 64c:	3d2f4b77 	fstmdbxcc	pc!, {d4-d62}	;@ Deprecated
 650:	4c77213e 	ldfmie	f2, [r7], #-248	; 0xffffff08
 654:	3d2f2f2f 	stccc	15, cr2, [pc, #-188]!	; 5a0 <printf_str+0x28>
 658:	4b3d2f23 	blmi	f4c2ec <_etext+0xf4a860>
 65c:	383d3d2f 	ldmdacc	sp!, {r0, r1, r2, r3, r5, r8, sl, fp, ip, sp}
 660:	43063c06 	movwmi	r3, #27654	; 0x6c06
 664:	223e3d3d 	eorscs	r3, lr, #3904	; 0xf40
 668:	2f2f5969 	svccs	0x002f5969
 66c:	3e2f233d 	mcrcc	3, 1, r2, cr15, cr13, {1}
 670:	3d3d3d3d 	ldccc	13, cr3, [sp, #-244]!	; 0xffffff0c
 674:	5969215a 	stmdbpl	r9!, {r1, r3, r4, r6, r8, sp}^
 678:	233d2f2f 	teqcs	sp, #47, 30	; 0xbc
 67c:	3d3d3e2f 	ldccc	14, cr3, [sp, #-188]!	; 0xffffff44
 680:	215a3d3d 	cmpcs	sl, sp, lsr sp
 684:	2f2f4b69 	svccs	0x002f4b69
 688:	2f233d30 	svccs	0x00233d30
 68c:	3d234b3d 	fstmdbxcc	r3!, {d4-d33}	;@ Deprecated
 690:	3d3d3d3d 	ldccc	13, cr3, [sp, #-244]!	; 0xffffff0c
 694:	5977215a 	ldmdbpl	r7!, {r1, r3, r4, r6, r8, sp}^
 698:	3c06302f 	stccc	0, cr3, [r6], {47}	; 0x2f
 69c:	3d3d4006 	ldccc	0, cr4, [sp, #-24]!	; 0xffffffe8
 6a0:	40063c06 	andmi	r3, r6, r6, lsl #24
 6a4:	3e593d3d 	mrccc	13, 2, r3, cr9, cr13, {1}
 6a8:	00030221 	andeq	r0, r3, r1, lsr #4
 6ac:	Address 0x00000000000006ac is out of bounds.


Disassembly of section .debug_str:

00000000 <.debug_str>:
   0:	66705f67 	ldrbtvs	r5, [r0], -r7, ror #30
   4:	6365566e 	cmnvs	r5, #115343360	; 0x6e00000
   8:	73726f74 	cmnvc	r2, #116, 30	; 0x1d0
   c:	6e6d2f00 	cdpvs	15, 6, cr2, cr13, cr0, {0}
  10:	2f652f74 	svccs	0x00652f74
  14:	74697277 	strbtvc	r7, [r9], #-631	; 0xfffffd89
  18:	74725f65 	ldrbtvc	r5, [r2], #-3941	; 0xfffff09b
  1c:	695f736f 	ldmdbvs	pc, {r0, r1, r2, r3, r5, r6, r8, r9, ip, sp, lr}^	; <UNPREDICTABLE>
  20:	64335f6e 	ldrtvs	r5, [r3], #-3950	; 0xfffff092
  24:	2f737961 	svccs	0x00737961
  28:	735f3930 	cmpvc	pc, #48, 18	; 0xc0000
  2c:	65707375 	ldrbvs	r7, [r0, #-885]!	; 0xfffffc8b
  30:	725f646e 	subsvc	r6, pc, #1845493760	; 0x6e000000
  34:	6d757365 	ldclvs	3, cr7, [r5, #-404]!	; 0xfffffe6c
  38:	6e750065 	cdpvs	0, 7, cr0, cr5, cr5, {3}
  3c:	6e676973 	mcrvs	9, 3, r6, cr7, cr3, {3}
  40:	63206465 			; <UNDEFINED> instruction: 0x63206465
  44:	00726168 	rsbseq	r6, r2, r8, ror #2
  48:	726f6873 	rsbvc	r6, pc, #7536640	; 0x730000
  4c:	6e752074 	mrcvs	0, 3, r2, cr5, cr4, {3}
  50:	6e676973 	mcrvs	9, 3, r6, cr7, cr3, {3}
  54:	69206465 	stmdbvs	r0!, {r0, r2, r5, r6, sl, sp, lr}
  58:	4900746e 	stmdbmi	r0, {r1, r2, r3, r5, r6, sl, ip, sp, lr}
  5c:	6544746e 	strbvs	r7, [r4, #-1134]	; 0xfffffb92
  60:	6c756166 	ldfvse	f6, [r5], #-408	; 0xfffffe68
  64:	6e614874 	mcrvs	8, 3, r4, cr1, cr4, {3}
  68:	72656c64 	rsbvc	r6, r5, #100, 24	; 0x6400
  6c:	75614600 	strbvc	r4, [r1, #-1536]!	; 0xfffffa00
  70:	5349746c 	movtpl	r7, #37996	; 0x946c
  74:	6f6c0052 	svcvs	0x006c0052
  78:	6c20676e 	stcvs	7, cr6, [r0], #-440	; 0xfffffe48
  7c:	20676e6f 	rsbcs	r6, r7, pc, ror #28
  80:	69736e75 	ldmdbvs	r3!, {r0, r2, r4, r5, r6, r9, sl, fp, sp, lr}^
  84:	64656e67 	strbtvs	r6, [r5], #-3687	; 0xfffff199
  88:	746e6920 	strbtvc	r6, [lr], #-2336	; 0xfffff6e0
  8c:	554e4700 	strbpl	r4, [lr, #-1792]	; 0xfffff900
  90:	34204320 	strtcc	r4, [r0], #-800	; 0xfffffce0
  94:	332e392e 			; <UNDEFINED> instruction: 0x332e392e
  98:	31303220 	teqcc	r0, r0, lsr #4
  9c:	32353035 	eorscc	r3, r5, #53	; 0x35
  a0:	70282039 	eorvc	r2, r8, r9, lsr r0
  a4:	65726572 	ldrbvs	r6, [r2, #-1394]!	; 0xfffffa8e
  a8:	7361656c 	cmnvc	r1, #108, 10	; 0x1b000000
  ac:	2d202965 	stccs	9, cr2, [r0, #-404]!	; 0xfffffe6c
  b0:	7570636d 	ldrbvc	r6, [r0, #-877]!	; 0xfffffc93
  b4:	726f633d 	rsbvc	r6, pc, #-201326592	; 0xf4000000
  b8:	2d786574 	cfldr64cs	mvdx6, [r8, #-464]!	; 0xfffffe30
  bc:	2d20336d 	stccs	3, cr3, [r0, #-436]!	; 0xfffffe4c
  c0:	7568746d 	strbvc	r7, [r8, #-1133]!	; 0xfffffb93
  c4:	2d20626d 	sfmcs	f6, 4, [r0, #-436]!	; 0xfffffe4c
  c8:	672d2067 	strvs	r2, [sp, -r7, rrx]!
  cc:	72617764 	rsbvc	r7, r1, #100, 14	; 0x1900000
  d0:	20322d66 	eorscs	r2, r2, r6, ror #26
  d4:	7473672d 	ldrbtvc	r6, [r3], #-1837	; 0xfffff8d3
  d8:	74636972 	strbtvc	r6, [r3], #-2418	; 0xfffff68e
  dc:	6177642d 	cmnvs	r7, sp, lsr #8
  e0:	2d206672 	stccs	6, cr6, [r0, #-456]!	; 0xfffffe38
  e4:	2d20304f 	stccs	0, cr3, [r0, #-316]!	; 0xfffffec4
  e8:	3d647473 	cfstrdcc	mvd7, [r4, #-460]!	; 0xfffffe34
  ec:	20313163 	eorscs	r3, r1, r3, ror #2
  f0:	6f6e662d 	svcvs	0x006e662d
  f4:	6975622d 	ldmdbvs	r5!, {r0, r2, r3, r5, r9, sp, lr}^
  f8:	6e69746c 	cdpvs	4, 6, cr7, cr9, cr12, {3}
  fc:	7a697300 	bvc	1a5cd04 <_etext+0x1a5b278>
 100:	70797465 	rsbsvc	r7, r9, r5, ror #8
 104:	6f6c0065 	svcvs	0x006c0065
 108:	6c20676e 	stcvs	7, cr6, [r0], #-440	; 0xfffffe48
 10c:	20676e6f 	rsbcs	r6, r7, pc, ror #28
 110:	00746e69 	rsbseq	r6, r4, r9, ror #28
 114:	726f6873 	rsbvc	r6, pc, #7536640	; 0x730000
 118:	6e692074 	mcrvs	0, 3, r2, cr9, cr4, {3}
 11c:	6d4e0074 	stclvs	0, cr0, [lr, #-464]	; 0xfffffe30
 120:	00525369 	subseq	r5, r2, r9, ror #6
 124:	5f746e69 	svcpl	0x00746e69
 128:	74636576 	strbtvc	r6, [r3], #-1398	; 0xfffffa8a
 12c:	632e726f 			; <UNDEFINED> instruction: 0x632e726f
 130:	6c656400 	cfstrdvs	mvd6, [r5], #-0
 134:	6e5f7961 	cdpvs	9, 5, cr7, cr15, cr1, {3}
 138:	0065646f 	rsbeq	r6, r5, pc, ror #8
 13c:	74617473 	strbtvc	r7, [r1], #-1139	; 0xfffffb8d
 140:	696c0065 	stmdbvs	ip!, {r0, r2, r5, r6}^
 144:	6e5f7473 	mrcvs	4, 2, r7, cr15, cr3, {3}
 148:	5f65646f 	svcpl	0x0065646f
 14c:	616d0074 	smcvs	53252	; 0xd004
 150:	5f006e69 	svcpl	0x00006e69
 154:	6e69755f 	mcrvs	5, 3, r7, cr9, cr15, {2}
 158:	5f323374 	svcpl	0x00323374
 15c:	696c0074 	stmdbvs	ip!, {r2, r4, r5, r6}^
 160:	6e5f7473 	mrcvs	4, 2, r7, cr15, cr3, {3}
 164:	5f65646f 	svcpl	0x0065646f
 168:	00676174 	rsbeq	r6, r7, r4, ror r1
 16c:	6b736174 	blvs	1cd8744 <_etext+0x1cd6cb8>
 170:	74735f31 	ldrbtvc	r5, [r3], #-3889	; 0xfffff0cf
 174:	6174006b 	cmnvs	r4, fp, rrx
 178:	745f6b73 	ldrbvc	r6, [pc], #-2931	; 180 <_text+0x180>
 17c:	6e5f6700 	cdpvs	7, 5, cr6, cr15, cr0, {0}
 180:	5f747865 	svcpl	0x00747865
 184:	6b736174 	blvs	1cd875c <_etext+0x1cd6cd0>
 188:	62655f00 	rsbvs	r5, r5, #0, 30
 18c:	5f007373 	svcpl	0x00007373
 190:	6e69755f 	mcrvs	5, 3, r7, cr9, cr15, {2}
 194:	745f3874 	ldrbvc	r3, [pc], #-2164	; 19c <_text+0x19c>
 198:	73617400 	cmnvc	r1, #0, 8
 19c:	61745f6b 	cmnvs	r4, fp, ror #30
 1a0:	61740067 	cmnvs	r4, r7, rrx
 1a4:	5f326b73 	svcpl	0x00326b73
 1a8:	006b7473 	rsbeq	r7, fp, r3, ror r4
 1ac:	63696c73 	cmnvs	r9, #29440	; 0x7300
 1b0:	74730065 	ldrbtvc	r0, [r3], #-101	; 0xffffff9b
 1b4:	006b6361 	rsbeq	r6, fp, r1, ror #6
 1b8:	61726170 	cmnvs	r2, r0, ror r1
 1bc:	5f5f006d 	svcpl	0x005f006d
 1c0:	636e7566 	cmnvs	lr, #427819008	; 0x19800000
 1c4:	73005f5f 	movwvc	r5, #3935	; 0xf5f
 1c8:	74726174 	ldrbtvc	r6, [r2], #-372	; 0xfffffe8c
 1cc:	73617400 	cmnvc	r1, #0, 8
 1d0:	655f336b 	ldrbvs	r3, [pc, #-875]	; fffffe6d <_stack_top+0xdfff3e6d>
 1d4:	7972746e 	ldmdbvc	r2!, {r1, r2, r3, r5, r6, sl, ip, sp, lr}^
 1d8:	73617400 	cmnvc	r1, #0, 8
 1dc:	655f326b 	ldrbvs	r3, [pc, #-619]	; ffffff79 <_stack_top+0xdfff3f79>
 1e0:	7972746e 	ldmdbvc	r2!, {r1, r2, r3, r5, r6, sl, ip, sp, lr}^
 1e4:	6c656400 	cfstrdvs	mvd6, [r5], #-0
 1e8:	745f7961 	ldrbvc	r7, [pc], #-2401	; 1f0 <_text+0x1f0>
 1ec:	736b6369 	cmnvc	fp, #-1543503871	; 0xa4000001
 1f0:	69616d00 	stmdbvs	r1!, {r8, sl, fp, sp, lr}^
 1f4:	00632e6e 	rsbeq	r2, r3, lr, ror #28
 1f8:	70737573 	rsbsvc	r7, r3, r3, ror r5
 1fc:	5f646e65 	svcpl	0x00646e65
 200:	00746e63 	rsbseq	r6, r4, r3, ror #28
 204:	6b736174 	blvs	1cd87dc <_etext+0x1cd6d50>
 208:	6174735f 	cmnvs	r4, pc, asr r3
 20c:	745f6b63 	ldrbvc	r6, [pc], #-2915	; 214 <_text+0x214>
 210:	73617400 	cmnvc	r1, #0, 8
 214:	7400316b 	strvc	r3, [r0], #-363	; 0xfffffe95
 218:	326b7361 	rsbcc	r7, fp, #-2080374783	; 0x84000001
 21c:	73617400 	cmnvc	r1, #0, 8
 220:	6300336b 	movwvs	r3, #875	; 0x36b
 224:	7261656c 	rsbvc	r6, r1, #108, 10	; 0x1b000000
 228:	7373625f 	cmnvc	r3, #-268435451	; 0xf0000005
 22c:	69727000 	ldmdbvs	r2!, {ip, sp, lr}^
 230:	696c5f6f 	stmdbvs	ip!, {r0, r1, r2, r3, r5, r6, r8, r9, sl, fp, ip, lr}^
 234:	6e5f7473 	mrcvs	4, 2, r7, cr15, cr3, {3}
 238:	0065646f 	rsbeq	r6, r5, pc, ror #8
 23c:	6b736174 	blvs	1cd8814 <_etext+0x1cd6d88>
 240:	74735f33 	ldrbtvc	r5, [r3], #-3891	; 0xfffff0cd
 244:	6174006b 	cmnvs	r4, fp, rrx
 248:	5f316b73 	svcpl	0x00316b73
 24c:	72746e65 	rsbsvc	r6, r4, #1616	; 0x650
 250:	79730079 	ldmdbvc	r3!, {r0, r3, r4, r5, r6}^
 254:	63697473 	cmnvs	r9, #1929379840	; 0x73000000
 258:	00745f6b 	rsbseq	r5, r4, fp, ror #30
 25c:	74737973 	ldrbtvc	r7, [r3], #-2419	; 0xfffff68d
 260:	5f6b6369 	svcpl	0x006b6369
 264:	646e6168 	strbtvs	r6, [lr], #-360	; 0xfffffe98
 268:	0072656c 	rsbseq	r6, r2, ip, ror #10
 26c:	5f737973 	svcpl	0x00737973
 270:	6f697270 	svcvs	0x00697270
 274:	7300705f 	movwvc	r7, #95	; 0x5f
 278:	69747379 	ldmdbvs	r4!, {r0, r3, r4, r5, r6, r8, r9, ip, sp, lr}^
 27c:	745f6b63 	ldrbvc	r6, [pc], #-2915	; 284 <IntDefaultHandler+0x8>
 280:	63006761 	movwvs	r6, #1889	; 0x761
 284:	006c7274 	rsbeq	r7, ip, r4, ror r2
 288:	67697274 			; <UNDEFINED> instruction: 0x67697274
 28c:	5f726567 	svcpl	0x00726567
 290:	646e6570 	strbtvs	r6, [lr], #-1392	; 0xfffffa90
 294:	0076735f 	rsbseq	r7, r6, pc, asr r3
 298:	74696e69 	strbtvc	r6, [r9], #-3689	; 0xfffff197
 29c:	7379735f 	cmnvc	r9, #2080374785	; 0x7c000001
 2a0:	6b636974 	blvs	18da878 <_etext+0x18d8dec>
 2a4:	616f6c00 	cmnvs	pc, r0, lsl #24
 2a8:	6d630064 	stclvs	0, cr0, [r3, #-400]!	; 0xfffffe70
 2ac:	00632e33 	rsbeq	r2, r3, r3, lsr lr
 2b0:	74737973 	ldrbtvc	r7, [r3], #-2419	; 0xfffff68d
 2b4:	5f6b6369 	svcpl	0x006b6369
 2b8:	61630070 	smcvs	12288	; 0x3000
 2bc:	0062726c 	rsbeq	r7, r2, ip, ror #4
 2c0:	75736572 	ldrbvc	r6, [r3, #-1394]!	; 0xfffffa8e
 2c4:	7300746c 	movwvc	r7, #1132	; 0x46c
 2c8:	00317274 	eorseq	r7, r1, r4, ror r2
 2cc:	746c756d 	strbtvc	r7, [ip], #-1389	; 0xfffffa93
 2d0:	696c7069 	stmdbvs	ip!, {r0, r3, r5, r6, ip, sp, lr}^
 2d4:	55007265 	strpl	r7, [r0, #-613]	; 0xfffffd9b
 2d8:	30545241 	subscc	r5, r4, r1, asr #4
 2dc:	73005244 	movwvc	r5, #580	; 0x244
 2e0:	00327274 	eorseq	r7, r2, r4, ror r2
 2e4:	65707075 	ldrbvs	r7, [r0, #-117]!	; 0xffffff8b
 2e8:	65685f72 	strbvs	r5, [r8, #-3954]!	; 0xfffff08e
 2ec:	73615f78 	cmnvc	r1, #120, 30	; 0x1e0
 2f0:	61745f63 	cmnvs	r4, r3, ror #30
 2f4:	00656c62 	rsbeq	r6, r5, r2, ror #24
 2f8:	636d656d 	cmnvs	sp, #457179136	; 0x1b400000
 2fc:	70007970 	andvc	r7, r0, r0, ror r9
 300:	6372735f 	cmnvs	r2, #2080374785	; 0x7c000001
 304:	69727000 	ldmdbvs	r2!, {ip, sp, lr}^
 308:	5f66746e 	svcpl	0x0066746e
 30c:	00727473 	rsbseq	r7, r2, r3, ror r4
 310:	74646977 	strbtvc	r6, [r4], #-2423	; 0xfffff689
 314:	656d0068 	strbvs	r0, [sp, #-104]!	; 0xffffff98
 318:	706d636d 	rsbvc	r6, sp, sp, ror #6
 31c:	5f6f6e00 	svcpl	0x006f6e00
 320:	6e697270 	mcrvs	2, 3, r7, cr9, cr0, {3}
 324:	5f006b74 	svcpl	0x00006b74
 328:	5f61765f 	svcpl	0x0061765f
 32c:	7473696c 	ldrbtvc	r6, [r3], #-2412	; 0xfffff694
 330:	6d656d00 	stclvs	13, cr6, [r5, #-0]
 334:	00746573 	rsbseq	r6, r4, r3, ror r5
 338:	74727473 	ldrbtvc	r7, [r2], #-1139	; 0xfffffb8d
 33c:	70006c6f 	andvc	r6, r0, pc, ror #24
 340:	6d656d5f 	stclvs	13, cr6, [r5, #-380]!	; 0xfffffe84
 344:	72700031 	rsbsvc	r0, r0, #49	; 0x31
 348:	66746e69 	ldrbtvs	r6, [r4], -r9, ror #28
 34c:	7865685f 	stmdavc	r5!, {r0, r1, r2, r3, r4, r6, fp, sp, lr}^
 350:	72747300 	rsbsvc	r7, r4, #0, 6
 354:	6c756f74 	ldclvs	15, cr6, [r5], #-464	; 0xfffffe30
 358:	645f7000 	ldrbvs	r7, [pc], #-0	; 360 <task3_entry+0x18>
 35c:	74007473 	strvc	r7, [r0], #-1139	; 0xfffffb8d
 360:	775f706d 	ldrbvc	r7, [pc, -sp, rrx]
 364:	78656800 	stmdavc	r5!, {fp, sp, lr}^
 368:	6965775f 	stmdbvs	r5!, {r0, r1, r2, r3, r4, r6, r8, r9, sl, ip, sp, lr}^
 36c:	5f746867 	svcpl	0x00746867
 370:	756c6176 	strbvc	r6, [ip, #-374]!	; 0xfffffe8a
 374:	61745f65 	cmnvs	r4, r5, ror #30
 378:	00656c62 	rsbeq	r6, r5, r2, ror #24
 37c:	5f786568 	svcpl	0x00786568
 380:	006c6176 	rsbeq	r6, ip, r6, ror r1
 384:	70615f5f 	rsbvc	r5, r1, pc, asr pc
 388:	72747300 	rsbsvc	r7, r4, #0, 6
 38c:	006e656c 	rsbeq	r6, lr, ip, ror #10
 390:	63727473 	cmnvs	r2, #1929379840	; 0x73000000
 394:	70007970 	andvc	r7, r0, r0, ror r9
 398:	746e6972 	strbtvc	r6, [lr], #-2418	; 0xfffff68e
 39c:	68635f66 	stmdavs	r3!, {r1, r2, r5, r6, r8, r9, sl, fp, ip, lr}^
 3a0:	70007261 	andvc	r7, r0, r1, ror #4
 3a4:	6d656d5f 	stclvs	13, cr6, [r5, #-380]!	; 0xfffffe84
 3a8:	65730032 	ldrbvs	r0, [r3, #-50]!	; 0xffffffce
 3ac:	635f646e 	cmpvs	pc, #1845493760	; 0x6e000000
 3b0:	00726168 	rsbseq	r6, r2, r8, ror #2
 3b4:	70677261 	rsbvc	r7, r7, r1, ror #4
 3b8:	6f007274 	svcvs	0x00007274
 3bc:	74735f73 	ldrbtvc	r5, [r3], #-3955	; 0xfffff08d
 3c0:	2e6f6964 	cdpcs	9, 6, cr6, cr15, cr4, {3}
 3c4:	74730063 	ldrbtvc	r0, [r3], #-99	; 0xffffff9d
 3c8:	706d6372 	rsbvc	r6, sp, r2, ror r3
 3cc:	675f5f00 	ldrbvs	r5, [pc, -r0, lsl #30]
 3d0:	5f63756e 	svcpl	0x0063756e
 3d4:	6c5f6176 	ldfvse	f6, [pc], {118}	; 0x76
 3d8:	00747369 	rsbseq	r7, r4, r9, ror #6
 3dc:	615f7369 	cmpvs	pc, r9, ror #6
 3e0:	73006373 	movwvc	r6, #883	; 0x373
 3e4:	636e7274 	cmnvs	lr, #116, 4	; 0x40000007
 3e8:	6900706d 	stmdbvs	r0, {r0, r2, r3, r5, r6, ip, sp, lr}
 3ec:	65645f73 	strbvs	r5, [r4, #-3955]!	; 0xfffff08d
 3f0:	73615f63 	cmnvc	r1, #396	; 0x18c
 3f4:	72700063 	rsbsvc	r0, r0, #99	; 0x63
 3f8:	66746e69 	ldrbtvs	r6, [r4], -r9, ror #28
 3fc:	6365645f 	cmnvs	r5, #1593835520	; 0x5f000000
 400:	5f736900 	svcpl	0x00736900
 404:	5f786568 	svcpl	0x00786568
 408:	00637361 	rsbeq	r7, r3, r1, ror #6
 40c:	6e697270 	mcrvs	2, 3, r7, cr9, cr0, {3}
 410:	685f6674 	ldmdavs	pc, {r2, r4, r5, r6, r9, sl, sp, lr}^	; <UNPREDICTABLE>
 414:	755f7865 	ldrbvc	r7, [pc, #-2149]	; fffffbb7 <_stack_top+0xdfff3bb7>
 418:	72657070 	rsbvc	r7, r5, #112	; 0x70
 41c:	6c646900 	stclvs	9, cr6, [r4], #-0
 420:	61745f65 	cmnvs	r4, r5, ror #30
 424:	655f6b73 	ldrbvs	r6, [pc, #-2931]	; fffff8b9 <_stack_top+0xdfff38b9>
 428:	7972746e 	ldmdbvc	r2!, {r1, r2, r3, r5, r6, sl, ip, sp, lr}^
 42c:	73617400 	cmnvc	r1, #0, 8
 430:	65645f6b 	strbvs	r5, [r4, #-3947]!	; 0xfffff095
 434:	5f79616c 	svcpl	0x0079616c
 438:	74696177 	strbtvc	r6, [r9], #-375	; 0xfffffe89
 43c:	695f6700 	ldmdbvs	pc, {r8, r9, sl, sp, lr}^	; <UNPREDICTABLE>
 440:	5f656c64 	svcpl	0x00656c64
 444:	6b736174 	blvs	1cd8a1c <_etext+0x1cd6f90>
 448:	6b74735f 	blvs	1d1d1cc <_etext+0x1d1b740>
 44c:	5f6f6e00 	svcpl	0x006f6e00
 450:	6465656e 	strbtvs	r6, [r5], #-1390	; 0xfffffa92
 454:	6863735f 	stmdavs	r3!, {r0, r1, r2, r3, r4, r6, r8, r9, ip, sp, lr}^
 458:	6c006465 	cfstrsvs	mvf6, [r0], {101}	; 0x65
 45c:	5f747369 	svcpl	0x00747369
 460:	61740074 	cmnvs	r4, r4, ror r0
 464:	632e6b73 			; <UNDEFINED> instruction: 0x632e6b73
 468:	73696c00 	cmnvc	r9, #0, 24
 46c:	61745f74 	cmnvs	r4, r4, ror pc
 470:	5f670067 	svcpl	0x00670067
 474:	656c6469 	strbvs	r6, [ip, #-1129]!	; 0xfffffb97
 478:	7361745f 	cmnvc	r1, #1593835520	; 0x5f000000
 47c:	6f6e006b 	svcvs	0x006e006b
 480:	635f6564 	cmpvs	pc, #100, 10	; 0x19000000
 484:	746e756f 	strbtvc	r7, [lr], #-1391	; 0xfffffa91
 488:	67696800 	strbvs	r6, [r9, -r0, lsl #16]!
 48c:	74736568 	ldrbtvc	r6, [r3], #-1384	; 0xfffffa98
 490:	6972705f 	ldmdbvs	r2!, {r0, r1, r2, r3, r4, r6, ip, sp, lr}^
 494:	6174006f 	cmnvs	r4, pc, rrx
 498:	735f6b73 	cmpvc	pc, #117760	; 0x1cc00
 49c:	65747379 	ldrbvs	r7, [r4, #-889]!	; 0xfffffc87
 4a0:	69745f6d 	ldmdbvs	r4!, {r0, r2, r3, r5, r6, r8, r9, sl, fp, ip, lr}^
 4a4:	685f6b63 	ldmdavs	pc, {r0, r1, r5, r6, r8, r9, fp, sp, lr}^	; <UNPREDICTABLE>
 4a8:	6c646e61 	stclvs	14, cr6, [r4], #-388	; 0xfffffe7c
 4ac:	62007265 	andvs	r7, r0, #1342177286	; 0x50000006
 4b0:	616d7469 	cmnvs	sp, r9, ror #8
 4b4:	00745f70 	rsbseq	r5, r4, r0, ror pc
 4b8:	6b736174 	blvs	1cd8a90 <_etext+0x1cd7004>
 4bc:	6c65645f 	cfstrdvs	mvd6, [r5], #-380	; 0xfffffe84
 4c0:	74007961 	strvc	r7, [r0], #-2401	; 0xfffff69f
 4c4:	5f6b7361 	svcpl	0x006b7361
 4c8:	74697865 	strbtvc	r7, [r9], #-2149	; 0xfffff79b
 4cc:	6972635f 	ldmdbvs	r2!, {r0, r1, r2, r3, r4, r6, r8, r9, sp, lr}^
 4d0:	61636974 	smcvs	13972	; 0x3694
 4d4:	5f67006c 	svcpl	0x0067006c
 4d8:	65686373 	strbvs	r6, [r8, #-883]!	; 0xfffffc8d
 4dc:	6f6c5f64 	svcvs	0x006c5f64
 4e0:	74006b63 	strvc	r6, [r0], #-2915	; 0xfffff49d
 4e4:	5f706d65 	svcpl	0x00706d65
 4e8:	65646f6e 	strbvs	r6, [r4, #-3950]!	; 0xfffff092
 4ec:	635f6700 	cmpvs	pc, #0, 14
 4f0:	65727275 	ldrbvs	r7, [r2, #-629]!	; 0xfffffd8b
 4f4:	745f746e 	ldrbvc	r7, [pc], #-1134	; 4fc <is_hex_asc>
 4f8:	006b7361 	rsbeq	r7, fp, r1, ror #6
 4fc:	74696e69 	strbtvc	r6, [r9], #-3689	; 0xfffff197
 500:	7361745f 	cmnvc	r1, #1593835520	; 0x5f000000
 504:	6f6d5f6b 	svcvs	0x006d5f6b
 508:	656c7564 	strbvs	r7, [ip, #-1380]!	; 0xfffffa9c
 50c:	73617400 	cmnvc	r1, #0, 8
 510:	6e695f6b 	cdpvs	15, 6, cr5, cr9, cr11, {3}
 514:	74007469 	strvc	r7, [r0], #-1129	; 0xfffffb97
 518:	5f6b7361 	svcpl	0x006b7361
 51c:	70737573 	rsbsvc	r7, r3, r3, ror r5
 520:	00646e65 	rsbeq	r6, r4, r5, ror #28
 524:	6b736174 	blvs	1cd8afc <_etext+0x1cd7070>
 528:	6863735f 	stmdavs	r3!, {r0, r1, r2, r3, r4, r6, r8, r9, ip, sp, lr}^
 52c:	655f6465 	ldrbvs	r6, [pc, #-1125]	; cf <_text+0xcf>
 530:	6c62616e 	stfvse	f6, [r2], #-440	; 0xfffffe48
 534:	74730065 	ldrbtvc	r0, [r3], #-101	; 0xffffff9b
 538:	73757461 	cmnvc	r5, #1627389952	; 0x61000000
 53c:	73617400 	cmnvc	r1, #0, 8
 540:	75725f6b 	ldrbvc	r5, [r2, #-3947]!	; 0xfffff095
 544:	69665f6e 	stmdbvs	r6!, {r1, r2, r3, r5, r6, r8, r9, sl, fp, ip, lr}^
 548:	00747372 	rsbseq	r7, r4, r2, ror r3
 54c:	6b736174 	blvs	1cd8b24 <_etext+0x1cd7098>
 550:	6c65645f 	cfstrdvs	mvd6, [r5], #-380	; 0xfffffe84
 554:	775f7961 	ldrbvc	r7, [pc, -r1, ror #18]
 558:	75656b61 	strbvc	r6, [r5, #-2913]!	; 0xfffff49f
 55c:	61740070 	cmnvs	r4, r0, ror r0
 560:	655f6b73 	ldrbvs	r6, [pc, #-2931]	; fffff9f5 <_stack_top+0xdfff39f5>
 564:	7265746e 	rsbvc	r7, r5, #1845493760	; 0x6e000000
 568:	6972635f 	ldmdbvs	r2!, {r0, r1, r2, r3, r4, r6, r8, r9, sp, lr}^
 56c:	61636974 	smcvs	13972	; 0x3694
 570:	6573006c 	ldrbvs	r0, [r3, #-108]!	; 0xffffff94
 574:	646e6f63 	strbtvs	r6, [lr], #-3939	; 0xfffff09d
 578:	61740073 	cmnvs	r4, r3, ror r0
 57c:	725f6b73 	subsvc	r6, pc, #117760	; 0x1cc00
 580:	79646165 	stmdbvc	r4!, {r0, r2, r5, r6, r8, sp, lr}^
 584:	6d657400 	cfstrdvs	mvd7, [r5, #-0]
 588:	61745f70 	cmnvs	r4, r0, ror pc
 58c:	705f6b73 	subsvc	r6, pc, r3, ror fp	; <UNPREDICTABLE>
 590:	73617400 	cmnvc	r1, #0, 8
 594:	63735f6b 	cmnvs	r3, #428	; 0x1ac
 598:	00646568 	rsbeq	r6, r4, r8, ror #10
 59c:	6b736174 	blvs	1cd8b74 <_etext+0x1cd70e8>
 5a0:	6863735f 	stmdavs	r3!, {r0, r1, r2, r3, r4, r6, r8, r9, ip, sp, lr}^
 5a4:	645f6465 	ldrbvs	r6, [pc], #-1125	; 5ac <printf_hex>
 5a8:	62617369 	rsbvs	r7, r1, #-1543503871	; 0xa4000001
 5ac:	7400656c 	strvc	r6, [r0], #-1388	; 0xfffffa94
 5b0:	5f6b7361 	svcpl	0x006b7361
 5b4:	68676968 	stmdavs	r7!, {r3, r5, r6, r8, fp, sp, lr}^
 5b8:	5f747365 	svcpl	0x00747365
 5bc:	64616572 	strbtvs	r6, [r1], #-1394	; 0xfffffa8e
 5c0:	5f670079 	svcpl	0x00670079
 5c4:	656c6469 	strbvs	r6, [ip, #-1129]!	; 0xfffffb97
 5c8:	7361745f 	cmnvc	r1, #1593835520	; 0x5f000000
 5cc:	626f5f6b 	rsbvs	r5, pc, #428	; 0x1ac
 5d0:	5f67006a 	svcpl	0x0067006a
 5d4:	6b736174 	blvs	1cd8bac <_etext+0x1cd7120>
 5d8:	6261745f 	rsbvs	r7, r1, #1593835520	; 0x5f000000
 5dc:	6700656c 	strvs	r6, [r0, -ip, ror #10]
 5e0:	7361745f 	cmnvc	r1, #1593835520	; 0x5f000000
 5e4:	65645f6b 	strbvs	r5, [r4, #-3947]!	; 0xfffff095
 5e8:	5f79616c 	svcpl	0x0079616c
 5ec:	7473696c 	ldrbtvc	r6, [r3], #-2412	; 0xfffff694
 5f0:	73617400 	cmnvc	r1, #0, 8
 5f4:	6e755f6b 	cdpvs	15, 7, cr5, cr5, cr11, {3}
 5f8:	64616572 	strbtvs	r6, [r1], #-1394	; 0xfffffa8e
 5fc:	5f670079 	svcpl	0x00670079
 600:	6b736174 	blvs	1cd8bd8 <_etext+0x1cd714c>
 604:	6972705f 	ldmdbvs	r2!, {r0, r1, r2, r3, r4, r6, ip, sp, lr}^
 608:	69625f6f 	stmdbvs	r2!, {r0, r1, r2, r3, r5, r6, r8, r9, sl, fp, ip, lr}^
 60c:	70616d74 	rsbvc	r6, r1, r4, ror sp
 610:	73617400 	cmnvc	r1, #0, 8
 614:	77735f6b 	ldrbvc	r5, [r3, -fp, ror #30]!
 618:	68637469 	stmdavs	r3!, {r0, r3, r5, r6, sl, ip, sp, lr}^
 61c:	73617400 	cmnvc	r1, #0, 8
 620:	65645f6b 	strbvs	r5, [r4, #-3947]!	; 0xfffff095
 624:	5f79616c 	svcpl	0x0079616c
 628:	61740073 	cmnvs	r4, r3, ror r0
 62c:	725f6b73 	subsvc	r6, pc, #117760	; 0x1cc00
 630:	6d757365 	ldclvs	3, cr7, [r5, #-404]!	; 0xfffffe6c
 634:	69620065 	stmdbvs	r2!, {r0, r2, r5, r6}^
 638:	70616d74 	rsbvc	r6, r1, r4, ror sp
 63c:	6761745f 			; <UNDEFINED> instruction: 0x6761745f
 640:	73696c00 	cmnvc	r9, #0, 24
 644:	65685f74 	strbvs	r5, [r8, #-3956]!	; 0xfffff08c
 648:	71006461 	tstvc	r0, r1, ror #8
 64c:	6b636975 	blvs	18dac28 <_etext+0x18d919c>
 650:	6261745f 	rsbvs	r7, r1, #1593835520	; 0x5f000000
 654:	6200656c 	andvs	r6, r0, #108, 10	; 0x1b000000
 658:	616d7469 	cmnvs	sp, r9, ror #8
 65c:	65735f70 	ldrbvs	r5, [r3, #-3952]!	; 0xfffff090
 660:	656e0074 	strbvs	r0, [lr, #-116]!	; 0xffffff8c
 664:	6e5f7478 	mrcvs	4, 2, r7, cr15, cr8, {3}
 668:	0065646f 	rsbeq	r6, r5, pc, ror #8
 66c:	6d746962 	ldclvs	9, cr6, [r4, #-392]!	; 0xfffffe78
 670:	635f7061 	cmpvs	pc, #97	; 0x61
 674:	7261656c 	rsbvc	r6, r1, #108, 10	; 0x1b000000
 678:	73696c00 	cmnvc	r9, #0, 24
 67c:	65725f74 	ldrbvs	r5, [r2, #-3956]!	; 0xfffff08c
 680:	65766f6d 	ldrbvs	r6, [r6, #-3949]!	; 0xfffff093
 684:	62696c00 	rsbvs	r6, r9, #0, 24
 688:	6300632e 	movwvs	r6, #814	; 0x32e
 68c:	6e5f7275 	mrcvs	2, 2, r7, cr15, cr5, {3}
 690:	0065646f 	rsbeq	r6, r5, pc, ror #8
 694:	7473696c 	ldrbtvc	r6, [r3], #-2412	; 0xfffff694
 698:	696e695f 	stmdbvs	lr!, {r0, r1, r2, r3, r4, r6, r8, fp, sp, lr}^
 69c:	6c630074 	stclvs	0, cr0, [r3], #-464	; 0xfffffe30
 6a0:	756e6165 	strbvc	r6, [lr, #-357]!	; 0xfffffe9b
 6a4:	69620070 	stmdbvs	r2!, {r4, r5, r6}^
 6a8:	70616d74 	rsbvc	r6, r1, r4, ror sp
 6ac:	7465675f 	strbtvc	r6, [r5], #-1887	; 0xfffff8a1
 6b0:	7269665f 	rsbvc	r6, r9, #99614720	; 0x5f00000
 6b4:	735f7473 	cmpvc	pc, #1929379840	; 0x73000000
 6b8:	62007465 	andvs	r7, r0, #1694498816	; 0x65000000
 6bc:	616d7469 	cmnvs	sp, r9, ror #8
 6c0:	6e695f70 	mcrvs	15, 3, r5, cr9, cr0, {3}
 6c4:	6c007469 	cfstrsvs	mvf7, [r0], {105}	; 0x69
 6c8:	5f747369 	svcpl	0x00747369
 6cc:	65707061 	ldrbvs	r7, [r0, #-97]!	; 0xffffff9f
 6d0:	6c5f646e 	cfldrdvs	mvd6, [pc], {110}	; 0x6e
 6d4:	00747361 	rsbseq	r7, r4, r1, ror #6
 6d8:	7473696c 	ldrbtvc	r6, [r3], #-2412	; 0xfffff694
 6dc:	6d65725f 	sfmvs	f7, 2, [r5, #-380]!	; 0xfffffe84
 6e0:	5f65766f 	svcpl	0x0065766f
 6e4:	73726966 	cmnvc	r2, #1671168	; 0x198000
 6e8:	696c0074 	stmdbvs	ip!, {r2, r4, r5, r6}^
 6ec:	6e5f7473 	mrcvs	4, 2, r7, cr15, cr3, {3}
 6f0:	5f65646f 	svcpl	0x0065646f
 6f4:	74696e69 	strbtvc	r6, [r9], #-3689	; 0xfffff197
 6f8:	74696200 	strbtvc	r6, [r9], #-512	; 0xfffffe00
 6fc:	5f70616d 	svcpl	0x0070616d
 700:	6e756f63 	cdpvs	15, 7, cr6, cr5, cr3, {3}
 704:	696c0074 	stmdbvs	ip!, {r2, r4, r5, r6}^
 708:	745f7473 	ldrbvc	r7, [pc], #-1139	; 710 <printf_dec+0x7c>
 70c:	006c6961 	rsbeq	r6, ip, r1, ror #18
 710:	7473696c 	ldrbtvc	r6, [r3], #-2412	; 0xfffff694
 714:	736e695f 	cmnvc	lr, #1556480	; 0x17c000
 718:	5f747265 	svcpl	0x00747265
 71c:	64616568 	strbtvs	r6, [r1], #-1384	; 0xfffffa98
 720:	73696c00 	cmnvc	r9, #0, 24
 724:	65725f74 	ldrbvs	r5, [r2, #-3956]!	; 0xfffff08c
 728:	65766f6d 	ldrbvs	r6, [r6, #-3949]!	; 0xfffff093
 72c:	6c6c615f 	stfvse	f6, [ip], #-380	; 0xfffffe84
 730:	646f6e00 	strbtvs	r6, [pc], #-3584	; 738 <printf_dec+0xa4>
 734:	72705f65 	rsbsvc	r5, r0, #404	; 0x194
 738:	6e007665 	cfmadd32vs	mvax3, mvfx7, mvfx0, mvfx5
 73c:	5f65646f 	svcpl	0x0065646f
 740:	7478656e 	ldrbtvc	r6, [r8], #-1390	; 0xfffffa92
 744:	73696c00 	cmnvc	r9, #0, 24
 748:	6f635f74 	svcvs	0x00635f74
 74c:	00746e75 	rsbseq	r6, r4, r5, ror lr

Disassembly of section .comment:

00000000 <.comment>:
   0:	3a434347 	bcc	10d0d24 <_etext+0x10cf298>
   4:	35312820 	ldrcc	r2, [r1, #-2080]!	; 0xfffff7e0
   8:	392e343a 	stmdbcc	lr!, {r1, r3, r4, r5, sl, ip, sp}
   c:	732b332e 			; <UNDEFINED> instruction: 0x732b332e
  10:	33326e76 	teqcc	r2, #1888	; 0x760
  14:	37373131 			; <UNDEFINED> instruction: 0x37373131
  18:	2029312d 	eorcs	r3, r9, sp, lsr #2
  1c:	2e392e34 	mrccs	14, 1, r2, cr9, cr4, {1}
  20:	30322033 	eorscc	r2, r2, r3, lsr r0
  24:	35303531 	ldrcc	r3, [r0, #-1329]!	; 0xfffffacf
  28:	28203932 	stmdacs	r0!, {r1, r4, r5, r8, fp, ip, sp}
  2c:	72657270 	rsbvc	r7, r5, #112, 4
  30:	61656c65 	cmnvs	r5, r5, ror #24
  34:	00296573 	eoreq	r6, r9, r3, ror r5

Disassembly of section .ARM.attributes:

00000000 <.ARM.attributes>:
   0:	00003041 	andeq	r3, r0, r1, asr #32
   4:	61656100 	cmnvs	r5, r0, lsl #2
   8:	01006962 	tsteq	r0, r2, ror #18
   c:	00000026 	andeq	r0, r0, r6, lsr #32
  10:	726f4305 	rsbvc	r4, pc, #335544320	; 0x14000000
  14:	2d786574 	cfldr64cs	mvdx6, [r8, #-464]!	; 0xfffffe30
  18:	0600334d 	streq	r3, [r0], -sp, asr #6
  1c:	094d070a 	stmdbeq	sp, {r1, r3, r8, r9, sl}^
  20:	14041202 	strne	r1, [r4], #-514	; 0xfffffdfe
  24:	17011501 	strne	r1, [r1, -r1, lsl #10]
  28:	1a011803 	bne	4603c <_etext+0x445b0>
  2c:	22061e01 	andcs	r1, r6, #1, 28
  30:	Address 0x0000000000000030 is out of bounds.


Disassembly of section .debug_frame:

00000000 <.debug_frame>:
   0:	0000000c 	andeq	r0, r0, ip
   4:	ffffffff 			; <UNDEFINED> instruction: 0xffffffff
   8:	7c020001 	stcvc	0, cr0, [r2], {1}
   c:	000d0c0e 	andeq	r0, sp, lr, lsl #24
  10:	00000014 	andeq	r0, r0, r4, lsl r0
  14:	00000000 	andeq	r0, r0, r0
  18:	0000026c 	andeq	r0, r0, ip, ror #4
  1c:	00000006 	andeq	r0, r0, r6
  20:	87040e41 	strhi	r0, [r4, -r1, asr #28]
  24:	070d4101 	streq	r4, [sp, -r1, lsl #2]
  28:	00000014 	andeq	r0, r0, r4, lsl r0
  2c:	00000000 	andeq	r0, r0, r0
  30:	00000274 	andeq	r0, r0, r4, ror r2
  34:	00000006 	andeq	r0, r0, r6
  38:	87040e41 	strhi	r0, [r4, -r1, asr #28]
  3c:	070d4101 	streq	r4, [sp, -r1, lsl #2]
  40:	00000018 	andeq	r0, r0, r8, lsl r0
  44:	00000000 	andeq	r0, r0, r0
  48:	0000027c 	andeq	r0, r0, ip, ror r2
  4c:	00000010 	andeq	r0, r0, r0, lsl r0
  50:	87080e41 	strhi	r0, [r8, -r1, asr #28]
  54:	41018e02 	tstmi	r1, r2, lsl #28
  58:	0000070d 	andeq	r0, r0, sp, lsl #14
  5c:	0000000c 	andeq	r0, r0, ip
  60:	ffffffff 			; <UNDEFINED> instruction: 0xffffffff
  64:	7c020001 	stcvc	0, cr0, [r2], {1}
  68:	000d0c0e 	andeq	r0, sp, lr, lsl #24
  6c:	00000024 	andeq	r0, r0, r4, lsr #32
  70:	0000005c 	andeq	r0, r0, ip, asr r0
  74:	0000028c 	andeq	r0, r0, ip, lsl #5
  78:	00000038 	andeq	r0, r0, r8, lsr r0
  7c:	87040e41 	strhi	r0, [r4, -r1, asr #28]
  80:	100e4101 	andne	r4, lr, r1, lsl #2
  84:	50070d41 	andpl	r0, r7, r1, asr #26
  88:	0d41040e 	cfstrdeq	mvd0, [r1, #-56]	; 0xffffffc8
  8c:	0ec7420d 	cdpeq	2, 12, cr4, cr7, cr13, {0}
  90:	00000000 	andeq	r0, r0, r0
  94:	0000001c 	andeq	r0, r0, ip, lsl r0
  98:	0000005c 	andeq	r0, r0, ip, asr r0
  9c:	000002c4 	andeq	r0, r0, r4, asr #5
  a0:	00000038 	andeq	r0, r0, r8, lsr r0
  a4:	87080e41 	strhi	r0, [r8, -r1, asr #28]
  a8:	41018e02 	tstmi	r1, r2, lsl #28
  ac:	0d41100e 	stcleq	0, cr1, [r1, #-56]	; 0xffffffc8
  b0:	00000007 	andeq	r0, r0, r7
  b4:	00000024 	andeq	r0, r0, r4, lsr #32
  b8:	0000005c 	andeq	r0, r0, ip, asr r0
  bc:	000002fc 	strdeq	r0, [r0], -ip
  c0:	0000001e 	andeq	r0, r0, lr, lsl r0
  c4:	87040e41 	strhi	r0, [r4, -r1, asr #28]
  c8:	100e4101 	andne	r4, lr, r1, lsl #2
  cc:	48070d41 	stmdami	r7, {r0, r6, r8, sl, fp}
  d0:	0d41040e 	cfstrdeq	mvd0, [r1, #-56]	; 0xffffffc8
  d4:	0ec7420d 	cdpeq	2, 12, cr4, cr7, cr13, {0}
  d8:	00000000 	andeq	r0, r0, r0
  dc:	0000001c 	andeq	r0, r0, ip, lsl r0
  e0:	0000005c 	andeq	r0, r0, ip, asr r0
  e4:	0000031c 	andeq	r0, r0, ip, lsl r3
  e8:	0000002c 	andeq	r0, r0, ip, lsr #32
  ec:	87080e41 	strhi	r0, [r8, -r1, asr #28]
  f0:	41018e02 	tstmi	r1, r2, lsl #28
  f4:	0d41100e 	stcleq	0, cr1, [r1, #-56]	; 0xffffffc8
  f8:	00000007 	andeq	r0, r0, r7
  fc:	0000001c 	andeq	r0, r0, ip, lsl r0
 100:	0000005c 	andeq	r0, r0, ip, asr r0
 104:	00000348 	andeq	r0, r0, r8, asr #6
 108:	0000001c 	andeq	r0, r0, ip, lsl r0
 10c:	87080e41 	strhi	r0, [r8, -r1, asr #28]
 110:	41018e02 	tstmi	r1, r2, lsl #28
 114:	0d41100e 	stcleq	0, cr1, [r1, #-56]	; 0xffffffc8
 118:	00000007 	andeq	r0, r0, r7
 11c:	0000001c 	andeq	r0, r0, ip, lsl r0
 120:	0000005c 	andeq	r0, r0, ip, asr r0
 124:	00000364 	andeq	r0, r0, r4, ror #6
 128:	0000008c 	andeq	r0, r0, ip, lsl #1
 12c:	87080e41 	strhi	r0, [r8, -r1, asr #28]
 130:	41018e02 	tstmi	r1, r2, lsl #28
 134:	0c41100e 	mcrreq	0, 0, r1, r1, cr14
 138:	00000807 	andeq	r0, r0, r7, lsl #16
 13c:	0000000c 	andeq	r0, r0, ip
 140:	ffffffff 			; <UNDEFINED> instruction: 0xffffffff
 144:	7c020001 	stcvc	0, cr0, [r2], {1}
 148:	000d0c0e 	andeq	r0, sp, lr, lsl #24
 14c:	00000024 	andeq	r0, r0, r4, lsr #32
 150:	0000013c 	andeq	r0, r0, ip, lsr r1
 154:	000003f0 	strdeq	r0, [r0], -r0	; <UNPREDICTABLE>
 158:	00000044 	andeq	r0, r0, r4, asr #32
 15c:	87040e41 	strhi	r0, [r4, -r1, asr #28]
 160:	180e4101 	stmdane	lr, {r0, r8, lr}
 164:	57070d41 	strpl	r0, [r7, -r1, asr #26]
 168:	0d41040e 	cfstrdeq	mvd0, [r1, #-56]	; 0xffffffc8
 16c:	0ec7420d 	cdpeq	2, 12, cr4, cr7, cr13, {0}
 170:	00000000 	andeq	r0, r0, r0
 174:	00000018 	andeq	r0, r0, r8, lsl r0
 178:	0000013c 	andeq	r0, r0, ip, lsr r1
 17c:	00000434 	andeq	r0, r0, r4, lsr r4
 180:	0000000a 	andeq	r0, r0, sl
 184:	87080e41 	strhi	r0, [r8, -r1, asr #28]
 188:	41018e02 	tstmi	r1, r2, lsl #28
 18c:	0000070d 	andeq	r0, r0, sp, lsl #14
 190:	0000001c 	andeq	r0, r0, ip, lsl r0
 194:	0000013c 	andeq	r0, r0, ip, lsr r1
 198:	00000440 	andeq	r0, r0, r0, asr #8
 19c:	00000024 	andeq	r0, r0, r4, lsr #32
 1a0:	87040e41 	strhi	r0, [r4, -r1, asr #28]
 1a4:	070d4101 	streq	r4, [sp, -r1, lsl #2]
 1a8:	420d0d48 	andmi	r0, sp, #72, 26	; 0x1200
 1ac:	00000ec7 	andeq	r0, r0, r7, asr #29
 1b0:	0000000c 	andeq	r0, r0, ip
 1b4:	ffffffff 			; <UNDEFINED> instruction: 0xffffffff
 1b8:	7c020001 	stcvc	0, cr0, [r2], {1}
 1bc:	000d0c0e 	andeq	r0, sp, lr, lsl #24
 1c0:	00000024 	andeq	r0, r0, r4, lsr #32
 1c4:	000001b0 			; <UNDEFINED> instruction: 0x000001b0
 1c8:	00000464 	andeq	r0, r0, r4, ror #8
 1cc:	00000024 	andeq	r0, r0, r4, lsr #32
 1d0:	87040e41 	strhi	r0, [r4, -r1, asr #28]
 1d4:	100e4101 	andne	r4, lr, r1, lsl #2
 1d8:	49070d41 	stmdbmi	r7, {r0, r6, r8, sl, fp}
 1dc:	0d41040e 	cfstrdeq	mvd0, [r1, #-56]	; 0xffffffc8
 1e0:	0ec7420d 	cdpeq	2, 12, cr4, cr7, cr13, {0}
 1e4:	00000000 	andeq	r0, r0, r0
 1e8:	00000024 	andeq	r0, r0, r4, lsr #32
 1ec:	000001b0 			; <UNDEFINED> instruction: 0x000001b0
 1f0:	00000488 	andeq	r0, r0, r8, lsl #9
 1f4:	00000040 	andeq	r0, r0, r0, asr #32
 1f8:	87040e41 	strhi	r0, [r4, -r1, asr #28]
 1fc:	180e4101 	stmdane	lr, {r0, r8, lr}
 200:	57070d41 	strpl	r0, [r7, -r1, asr #26]
 204:	0d41040e 	cfstrdeq	mvd0, [r1, #-56]	; 0xffffffc8
 208:	0ec7420d 	cdpeq	2, 12, cr4, cr7, cr13, {0}
 20c:	00000000 	andeq	r0, r0, r0
 210:	00000024 	andeq	r0, r0, r4, lsr #32
 214:	000001b0 			; <UNDEFINED> instruction: 0x000001b0
 218:	000004c8 	andeq	r0, r0, r8, asr #9
 21c:	00000034 	andeq	r0, r0, r4, lsr r0
 220:	87040e41 	strhi	r0, [r4, -r1, asr #28]
 224:	100e4101 	andne	r4, lr, r1, lsl #2
 228:	53070d41 	movwpl	r0, #32065	; 0x7d41
 22c:	0d41040e 	cfstrdeq	mvd0, [r1, #-56]	; 0xffffffc8
 230:	0ec7420d 	cdpeq	2, 12, cr4, cr7, cr13, {0}
 234:	00000000 	andeq	r0, r0, r0
 238:	00000024 	andeq	r0, r0, r4, lsr #32
 23c:	000001b0 			; <UNDEFINED> instruction: 0x000001b0
 240:	000004fc 	strdeq	r0, [r0], -ip
 244:	00000040 	andeq	r0, r0, r0, asr #32
 248:	87040e41 	strhi	r0, [r4, -r1, asr #28]
 24c:	100e4101 	andne	r4, lr, r1, lsl #2
 250:	59070d41 	stmdbpl	r7, {r0, r6, r8, sl, fp}
 254:	0d41040e 	cfstrdeq	mvd0, [r1, #-56]	; 0xffffffc8
 258:	0ec7420d 	cdpeq	2, 12, cr4, cr7, cr13, {0}
 25c:	00000000 	andeq	r0, r0, r0
 260:	00000020 	andeq	r0, r0, r0, lsr #32
 264:	000001b0 			; <UNDEFINED> instruction: 0x000001b0
 268:	0000053c 	andeq	r0, r0, ip, lsr r5
 26c:	0000003a 	andeq	r0, r0, sl, lsr r0
 270:	87080e41 	strhi	r0, [r8, -r1, asr #28]
 274:	41018e02 	tstmi	r1, r2, lsl #28
 278:	0d41180e 	stcleq	8, cr1, [r1, #-56]	; 0xffffffc8
 27c:	080e5807 	stmdaeq	lr, {r0, r1, r2, fp, ip, lr}
 280:	000d0d41 	andeq	r0, sp, r1, asr #26
 284:	00000020 	andeq	r0, r0, r0, lsr #32
 288:	000001b0 			; <UNDEFINED> instruction: 0x000001b0
 28c:	00000578 	andeq	r0, r0, r8, ror r5
 290:	00000032 	andeq	r0, r0, r2, lsr r0
 294:	87080e41 	strhi	r0, [r8, -r1, asr #28]
 298:	41018e02 	tstmi	r1, r2, lsl #28
 29c:	0d41100e 	stcleq	0, cr1, [r1, #-56]	; 0xffffffc8
 2a0:	080e5407 	stmdaeq	lr, {r0, r1, r2, sl, ip, lr}
 2a4:	000d0d41 	andeq	r0, sp, r1, asr #26
 2a8:	00000020 	andeq	r0, r0, r0, lsr #32
 2ac:	000001b0 			; <UNDEFINED> instruction: 0x000001b0
 2b0:	000005ac 	andeq	r0, r0, ip, lsr #11
 2b4:	00000074 	andeq	r0, r0, r4, ror r0
 2b8:	87080e41 	strhi	r0, [r8, -r1, asr #28]
 2bc:	41018e02 	tstmi	r1, r2, lsl #28
 2c0:	0d41180e 	stcleq	8, cr1, [r1, #-56]	; 0xffffffc8
 2c4:	080e7207 	stmdaeq	lr, {r0, r1, r2, r9, ip, sp, lr}
 2c8:	000d0d41 	andeq	r0, sp, r1, asr #26
 2cc:	00000020 	andeq	r0, r0, r0, lsr #32
 2d0:	000001b0 			; <UNDEFINED> instruction: 0x000001b0
 2d4:	00000620 	andeq	r0, r0, r0, lsr #12
 2d8:	00000074 	andeq	r0, r0, r4, ror r0
 2dc:	87080e41 	strhi	r0, [r8, -r1, asr #28]
 2e0:	41018e02 	tstmi	r1, r2, lsl #28
 2e4:	0d41180e 	stcleq	8, cr1, [r1, #-56]	; 0xffffffc8
 2e8:	080e7207 	stmdaeq	lr, {r0, r1, r2, r9, ip, sp, lr}
 2ec:	000d0d41 	andeq	r0, sp, r1, asr #26
 2f0:	00000024 	andeq	r0, r0, r4, lsr #32
 2f4:	000001b0 			; <UNDEFINED> instruction: 0x000001b0
 2f8:	00000694 	muleq	r0, r4, r6
 2fc:	00000274 	andeq	r0, r0, r4, ror r2
 300:	87080e41 	strhi	r0, [r8, -r1, asr #28]
 304:	41018e02 	tstmi	r1, r2, lsl #28
 308:	0d41200e 	stcleq	0, cr2, [r1, #-56]	; 0xffffffc8
 30c:	01300307 	teqeq	r0, r7, lsl #6
 310:	0d41080e 	stcleq	8, cr0, [r1, #-56]	; 0xffffffc8
 314:	0000000d 	andeq	r0, r0, sp
 318:	00000030 	andeq	r0, r0, r0, lsr r0
 31c:	000001b0 			; <UNDEFINED> instruction: 0x000001b0
 320:	00000908 	andeq	r0, r0, r8, lsl #18
 324:	00000010 	andeq	r0, r0, r0, lsl r0
 328:	80100e41 	andshi	r0, r0, r1, asr #28
 32c:	82038104 	andhi	r8, r3, #4, 2
 330:	41018302 	tstmi	r1, r2, lsl #6
 334:	0587140e 	streq	r1, [r7, #1038]	; 0x40e
 338:	41070d41 	tstmi	r7, r1, asr #26
 33c:	c7420d0d 	strbgt	r0, [r2, -sp, lsl #26]
 340:	c341100e 	movtgt	r1, #4110	; 0x100e
 344:	0ec0c1c2 	acseqdm	f4, f2
 348:	00000000 	andeq	r0, r0, r0
 34c:	00000038 	andeq	r0, r0, r8, lsr r0
 350:	000001b0 			; <UNDEFINED> instruction: 0x000001b0
 354:	00000918 	andeq	r0, r0, r8, lsl r9
 358:	00000184 	andeq	r0, r0, r4, lsl #3
 35c:	80100e41 	andshi	r0, r0, r1, asr #28
 360:	82038104 	andhi	r8, r3, #4, 2
 364:	41018302 	tstmi	r1, r2, lsl #6
 368:	0687180e 	streq	r1, [r7], lr, lsl #16
 36c:	0e41058e 	cdpeq	5, 4, cr0, cr1, cr14, {4}
 370:	070d4128 	streq	r4, [sp, -r8, lsr #2]
 374:	180eb902 	stmdane	lr, {r1, r8, fp, ip, sp, pc}
 378:	420d0d41 	andmi	r0, sp, #4160	; 0x1040
 37c:	100ec7ce 	andne	ip, lr, lr, asr #15
 380:	c1c2c341 	bicgt	ip, r2, r1, asr #6
 384:	00000ec0 	andeq	r0, r0, r0, asr #29
 388:	00000024 	andeq	r0, r0, r4, lsr #32
 38c:	000001b0 			; <UNDEFINED> instruction: 0x000001b0
 390:	00000a9c 	muleq	r0, ip, sl
 394:	00000042 	andeq	r0, r0, r2, asr #32
 398:	87040e41 	strhi	r0, [r4, -r1, asr #28]
 39c:	200e4101 	andcs	r4, lr, r1, lsl #2
 3a0:	5a070d41 	bpl	1c38ac <_etext+0x1c1e20>
 3a4:	0d41040e 	cfstrdeq	mvd0, [r1, #-56]	; 0xffffffc8
 3a8:	0ec7420d 	cdpeq	2, 12, cr4, cr7, cr13, {0}
 3ac:	00000000 	andeq	r0, r0, r0
 3b0:	00000024 	andeq	r0, r0, r4, lsr #32
 3b4:	000001b0 			; <UNDEFINED> instruction: 0x000001b0
 3b8:	00000ae0 	andeq	r0, r0, r0, ror #21
 3bc:	0000004a 	andeq	r0, r0, sl, asr #32
 3c0:	87040e41 	strhi	r0, [r4, -r1, asr #28]
 3c4:	280e4101 	stmdacs	lr, {r0, r8, lr}
 3c8:	5e070d41 	cdppl	13, 0, cr0, cr7, cr1, {2}
 3cc:	0d41040e 	cfstrdeq	mvd0, [r1, #-56]	; 0xffffffc8
 3d0:	0ec7420d 	cdpeq	2, 12, cr4, cr7, cr13, {0}
 3d4:	00000000 	andeq	r0, r0, r0
 3d8:	00000024 	andeq	r0, r0, r4, lsr #32
 3dc:	000001b0 			; <UNDEFINED> instruction: 0x000001b0
 3e0:	00000b2c 	andeq	r0, r0, ip, lsr #22
 3e4:	00000060 	andeq	r0, r0, r0, rrx
 3e8:	87040e41 	strhi	r0, [r4, -r1, asr #28]
 3ec:	280e4101 	stmdacs	lr, {r0, r8, lr}
 3f0:	69070d41 	stmdbvs	r7, {r0, r6, r8, sl, fp}
 3f4:	0d41040e 	cfstrdeq	mvd0, [r1, #-56]	; 0xffffffc8
 3f8:	0ec7420d 	cdpeq	2, 12, cr4, cr7, cr13, {0}
 3fc:	00000000 	andeq	r0, r0, r0
 400:	00000024 	andeq	r0, r0, r4, lsr #32
 404:	000001b0 			; <UNDEFINED> instruction: 0x000001b0
 408:	00000b8c 	andeq	r0, r0, ip, lsl #23
 40c:	00000054 	andeq	r0, r0, r4, asr r0
 410:	87040e41 	strhi	r0, [r4, -r1, asr #28]
 414:	180e4101 	stmdane	lr, {r0, r8, lr}
 418:	63070d41 	movwvs	r0, #32065	; 0x7d41
 41c:	0d41040e 	cfstrdeq	mvd0, [r1, #-56]	; 0xffffffc8
 420:	0ec7420d 	cdpeq	2, 12, cr4, cr7, cr13, {0}
 424:	00000000 	andeq	r0, r0, r0
 428:	00000024 	andeq	r0, r0, r4, lsr #32
 42c:	000001b0 			; <UNDEFINED> instruction: 0x000001b0
 430:	00000be0 	andeq	r0, r0, r0, ror #23
 434:	00000064 	andeq	r0, r0, r4, rrx
 438:	87040e41 	strhi	r0, [r4, -r1, asr #28]
 43c:	280e4101 	stmdacs	lr, {r0, r8, lr}
 440:	6b070d41 	blvs	1c394c <_etext+0x1c1ec0>
 444:	0d41040e 	cfstrdeq	mvd0, [r1, #-56]	; 0xffffffc8
 448:	0ec7420d 	cdpeq	2, 12, cr4, cr7, cr13, {0}
 44c:	00000000 	andeq	r0, r0, r0
 450:	00000020 	andeq	r0, r0, r0, lsr #32
 454:	000001b0 			; <UNDEFINED> instruction: 0x000001b0
 458:	00000c44 	andeq	r0, r0, r4, asr #24
 45c:	000000e8 	andeq	r0, r0, r8, ror #1
 460:	87080e41 	strhi	r0, [r8, -r1, asr #28]
 464:	41018e02 	tstmi	r1, r2, lsl #28
 468:	0d41200e 	stcleq	0, cr2, [r1, #-56]	; 0xffffffc8
 46c:	0e6f0207 	cdpeq	2, 6, cr0, cr15, cr7, {0}
 470:	0d0d4108 	stfeqs	f4, [sp, #-32]	; 0xffffffe0
 474:	00000020 	andeq	r0, r0, r0, lsr #32
 478:	000001b0 			; <UNDEFINED> instruction: 0x000001b0
 47c:	00000d2c 	andeq	r0, r0, ip, lsr #26
 480:	00000046 	andeq	r0, r0, r6, asr #32
 484:	87080e41 	strhi	r0, [r8, -r1, asr #28]
 488:	41018e02 	tstmi	r1, r2, lsl #28
 48c:	0d41180e 	stcleq	8, cr1, [r1, #-56]	; 0xffffffc8
 490:	080e5e07 	stmdaeq	lr, {r0, r1, r2, r9, sl, fp, ip, lr}
 494:	000d0d41 	andeq	r0, sp, r1, asr #26
 498:	00000024 	andeq	r0, r0, r4, lsr #32
 49c:	000001b0 			; <UNDEFINED> instruction: 0x000001b0
 4a0:	00000d74 	andeq	r0, r0, r4, ror sp
 4a4:	0000002c 	andeq	r0, r0, ip, lsr #32
 4a8:	87040e41 	strhi	r0, [r4, -r1, asr #28]
 4ac:	180e4101 	stmdane	lr, {r0, r8, lr}
 4b0:	4f070d41 	svcmi	0x00070d41
 4b4:	0d41040e 	cfstrdeq	mvd0, [r1, #-56]	; 0xffffffc8
 4b8:	0ec7420d 	cdpeq	2, 12, cr4, cr7, cr13, {0}
 4bc:	00000000 	andeq	r0, r0, r0
 4c0:	00000024 	andeq	r0, r0, r4, lsr #32
 4c4:	000001b0 			; <UNDEFINED> instruction: 0x000001b0
 4c8:	00000da0 	andeq	r0, r0, r0, lsr #27
 4cc:	00000044 	andeq	r0, r0, r4, asr #32
 4d0:	87040e41 	strhi	r0, [r4, -r1, asr #28]
 4d4:	180e4101 	stmdane	lr, {r0, r8, lr}
 4d8:	5b070d41 	blpl	1c39e4 <_etext+0x1c1f58>
 4dc:	0d41040e 	cfstrdeq	mvd0, [r1, #-56]	; 0xffffffc8
 4e0:	0ec7420d 	cdpeq	2, 12, cr4, cr7, cr13, {0}
 4e4:	00000000 	andeq	r0, r0, r0
 4e8:	0000000c 	andeq	r0, r0, ip
 4ec:	ffffffff 			; <UNDEFINED> instruction: 0xffffffff
 4f0:	7c020001 	stcvc	0, cr0, [r2], {1}
 4f4:	000d0c0e 	andeq	r0, sp, lr, lsl #24
 4f8:	00000018 	andeq	r0, r0, r8, lsl r0
 4fc:	000004e8 	andeq	r0, r0, r8, ror #9
 500:	00000e68 	andeq	r0, r0, r8, ror #28
 504:	0000000a 	andeq	r0, r0, sl
 508:	87040e41 	strhi	r0, [r4, -r1, asr #28]
 50c:	100e4101 	andne	r4, lr, r1, lsl #2
 510:	00070d41 	andeq	r0, r7, r1, asr #26
 514:	00000020 	andeq	r0, r0, r0, lsr #32
 518:	000004e8 	andeq	r0, r0, r8, ror #9
 51c:	00000e74 	andeq	r0, r0, r4, ror lr
 520:	00000148 	andeq	r0, r0, r8, asr #2
 524:	87080e41 	strhi	r0, [r8, -r1, asr #28]
 528:	41018e02 	tstmi	r1, r2, lsl #28
 52c:	0d41180e 	stcleq	8, cr1, [r1, #-56]	; 0xffffffc8
 530:	0e970207 	cdpeq	2, 9, cr0, cr7, cr7, {0}
 534:	0d0d4108 	stfeqs	f4, [sp, #-32]	; 0xffffffe0
 538:	00000020 	andeq	r0, r0, r0, lsr #32
 53c:	000004e8 	andeq	r0, r0, r8, ror #9
 540:	00000fbc 			; <UNDEFINED> instruction: 0x00000fbc
 544:	0000004c 	andeq	r0, r0, ip, asr #32
 548:	87080e41 	strhi	r0, [r8, -r1, asr #28]
 54c:	41018e02 	tstmi	r1, r2, lsl #28
 550:	0d41100e 	stcleq	0, cr1, [r1, #-56]	; 0xffffffc8
 554:	080e5a07 	stmdaeq	lr, {r0, r1, r2, r9, fp, ip, lr}
 558:	000d0d41 	andeq	r0, sp, r1, asr #26
 55c:	0000001c 	andeq	r0, r0, ip, lsl r0
 560:	000004e8 	andeq	r0, r0, r8, ror #9
 564:	00001008 	andeq	r1, r0, r8
 568:	00000018 	andeq	r0, r0, r8, lsl r0
 56c:	87040e41 	strhi	r0, [r4, -r1, asr #28]
 570:	070d4101 	streq	r4, [sp, -r1, lsl #2]
 574:	420d0d45 	andmi	r0, sp, #4416	; 0x1140
 578:	00000ec7 	andeq	r0, r0, r7, asr #29
 57c:	00000018 	andeq	r0, r0, r8, lsl r0
 580:	000004e8 	andeq	r0, r0, r8, ror #9
 584:	00001020 	andeq	r1, r0, r0, lsr #32
 588:	00000034 	andeq	r0, r0, r4, lsr r0
 58c:	87080e41 	strhi	r0, [r8, -r1, asr #28]
 590:	41018e02 	tstmi	r1, r2, lsl #28
 594:	0000070d 	andeq	r0, r0, sp, lsl #14
 598:	00000020 	andeq	r0, r0, r0, lsr #32
 59c:	000004e8 	andeq	r0, r0, r8, ror #9
 5a0:	00001054 	andeq	r1, r0, r4, asr r0
 5a4:	00000038 	andeq	r0, r0, r8, lsr r0
 5a8:	87080e41 	strhi	r0, [r8, -r1, asr #28]
 5ac:	41018e02 	tstmi	r1, r2, lsl #28
 5b0:	0d41180e 	stcleq	8, cr1, [r1, #-56]	; 0xffffffc8
 5b4:	080e5507 	stmdaeq	lr, {r0, r1, r2, r8, sl, ip, lr}
 5b8:	000d0d41 	andeq	r0, sp, r1, asr #26
 5bc:	00000020 	andeq	r0, r0, r0, lsr #32
 5c0:	000004e8 	andeq	r0, r0, r8, ror #9
 5c4:	0000108c 	andeq	r1, r0, ip, lsl #1
 5c8:	0000001c 	andeq	r0, r0, ip, lsl r0
 5cc:	87080e41 	strhi	r0, [r8, -r1, asr #28]
 5d0:	41018e02 	tstmi	r1, r2, lsl #28
 5d4:	0d41100e 	stcleq	0, cr1, [r1, #-56]	; 0xffffffc8
 5d8:	080e4907 	stmdaeq	lr, {r0, r1, r2, r8, fp, lr}
 5dc:	000d0d41 	andeq	r0, sp, r1, asr #26
 5e0:	00000020 	andeq	r0, r0, r0, lsr #32
 5e4:	000004e8 	andeq	r0, r0, r8, ror #9
 5e8:	000010a8 	andeq	r1, r0, r8, lsr #1
 5ec:	000000e0 	andeq	r0, r0, r0, ror #1
 5f0:	87080e41 	strhi	r0, [r8, -r1, asr #28]
 5f4:	41018e02 	tstmi	r1, r2, lsl #28
 5f8:	0d41180e 	stcleq	8, cr1, [r1, #-56]	; 0xffffffc8
 5fc:	0e650207 	cdpeq	2, 6, cr0, cr5, cr7, {0}
 600:	0d0d4108 	stfeqs	f4, [sp, #-32]	; 0xffffffe0
 604:	00000020 	andeq	r0, r0, r0, lsr #32
 608:	000004e8 	andeq	r0, r0, r8, ror #9
 60c:	00001188 	andeq	r1, r0, r8, lsl #3
 610:	00000080 	andeq	r0, r0, r0, lsl #1
 614:	87080e41 	strhi	r0, [r8, -r1, asr #28]
 618:	41018e02 	tstmi	r1, r2, lsl #28
 61c:	0c41180e 	mcrreq	8, 0, r1, r1, cr14
 620:	0e6a1007 	cdpeq	0, 6, cr1, cr10, cr7, {0}
 624:	0d0d4108 	stfeqs	f4, [sp, #-32]	; 0xffffffe0
 628:	00000020 	andeq	r0, r0, r0, lsr #32
 62c:	000004e8 	andeq	r0, r0, r8, ror #9
 630:	00001208 	andeq	r1, r0, r8, lsl #4
 634:	0000001a 	andeq	r0, r0, sl, lsl r0
 638:	87080e41 	strhi	r0, [r8, -r1, asr #28]
 63c:	41018e02 	tstmi	r1, r2, lsl #28
 640:	0d41100e 	stcleq	0, cr1, [r1, #-56]	; 0xffffffc8
 644:	080e4807 	stmdaeq	lr, {r0, r1, r2, fp, lr}
 648:	000d0d41 	andeq	r0, sp, r1, asr #26
 64c:	00000020 	andeq	r0, r0, r0, lsr #32
 650:	000004e8 	andeq	r0, r0, r8, ror #9
 654:	00001224 	andeq	r1, r0, r4, lsr #4
 658:	00000018 	andeq	r0, r0, r8, lsl r0
 65c:	87080e41 	strhi	r0, [r8, -r1, asr #28]
 660:	41018e02 	tstmi	r1, r2, lsl #28
 664:	0d41100e 	stcleq	0, cr1, [r1, #-56]	; 0xffffffc8
 668:	080e4707 	stmdaeq	lr, {r0, r1, r2, r8, r9, sl, lr}
 66c:	000d0d41 	andeq	r0, sp, r1, asr #26
 670:	00000020 	andeq	r0, r0, r0, lsr #32
 674:	000004e8 	andeq	r0, r0, r8, ror #9
 678:	0000123c 	andeq	r1, r0, ip, lsr r2
 67c:	00000030 	andeq	r0, r0, r0, lsr r0
 680:	87080e41 	strhi	r0, [r8, -r1, asr #28]
 684:	41018e02 	tstmi	r1, r2, lsl #28
 688:	0d41100e 	stcleq	0, cr1, [r1, #-56]	; 0xffffffc8
 68c:	080e5107 	stmdaeq	lr, {r0, r1, r2, r8, ip, lr}
 690:	000d0d41 	andeq	r0, sp, r1, asr #26
 694:	00000020 	andeq	r0, r0, r0, lsr #32
 698:	000004e8 	andeq	r0, r0, r8, ror #9
 69c:	0000126c 	andeq	r1, r0, ip, ror #4
 6a0:	0000003c 	andeq	r0, r0, ip, lsr r0
 6a4:	87080e41 	strhi	r0, [r8, -r1, asr #28]
 6a8:	41018e02 	tstmi	r1, r2, lsl #28
 6ac:	0d41100e 	stcleq	0, cr1, [r1, #-56]	; 0xffffffc8
 6b0:	080e5707 	stmdaeq	lr, {r0, r1, r2, r8, r9, sl, ip, lr}
 6b4:	000d0d41 	andeq	r0, sp, r1, asr #26
 6b8:	00000020 	andeq	r0, r0, r0, lsr #32
 6bc:	000004e8 	andeq	r0, r0, r8, ror #9
 6c0:	000012a8 	andeq	r1, r0, r8, lsr #5
 6c4:	00000038 	andeq	r0, r0, r8, lsr r0
 6c8:	87080e41 	strhi	r0, [r8, -r1, asr #28]
 6cc:	41018e02 	tstmi	r1, r2, lsl #28
 6d0:	0d41100e 	stcleq	0, cr1, [r1, #-56]	; 0xffffffc8
 6d4:	080e5307 	stmdaeq	lr, {r0, r1, r2, r8, r9, ip, lr}
 6d8:	000d0d41 	andeq	r0, sp, r1, asr #26
 6dc:	00000020 	andeq	r0, r0, r0, lsr #32
 6e0:	000004e8 	andeq	r0, r0, r8, ror #9
 6e4:	000012e0 	andeq	r1, r0, r0, ror #5
 6e8:	00000040 	andeq	r0, r0, r0, asr #32
 6ec:	87080e41 	strhi	r0, [r8, -r1, asr #28]
 6f0:	41018e02 	tstmi	r1, r2, lsl #28
 6f4:	0d41100e 	stcleq	0, cr1, [r1, #-56]	; 0xffffffc8
 6f8:	080e5607 	stmdaeq	lr, {r0, r1, r2, r9, sl, ip, lr}
 6fc:	000d0d41 	andeq	r0, sp, r1, asr #26
 700:	00000020 	andeq	r0, r0, r0, lsr #32
 704:	000004e8 	andeq	r0, r0, r8, ror #9
 708:	00001320 	andeq	r1, r0, r0, lsr #6
 70c:	00000068 	andeq	r0, r0, r8, rrx
 710:	87080e41 	strhi	r0, [r8, -r1, asr #28]
 714:	41018e02 	tstmi	r1, r2, lsl #28
 718:	0d41100e 	stcleq	0, cr1, [r1, #-56]	; 0xffffffc8
 71c:	080e6a07 	stmdaeq	lr, {r0, r1, r2, r9, fp, sp, lr}
 720:	000d0d41 	andeq	r0, sp, r1, asr #26
 724:	00000020 	andeq	r0, r0, r0, lsr #32
 728:	000004e8 	andeq	r0, r0, r8, ror #9
 72c:	00001388 	andeq	r1, r0, r8, lsl #7
 730:	00000034 	andeq	r0, r0, r4, lsr r0
 734:	87080e41 	strhi	r0, [r8, -r1, asr #28]
 738:	41018e02 	tstmi	r1, r2, lsl #28
 73c:	0d41100e 	stcleq	0, cr1, [r1, #-56]	; 0xffffffc8
 740:	080e5207 	stmdaeq	lr, {r0, r1, r2, r9, ip, lr}
 744:	000d0d41 	andeq	r0, sp, r1, asr #26
 748:	00000020 	andeq	r0, r0, r0, lsr #32
 74c:	000004e8 	andeq	r0, r0, r8, ror #9
 750:	000013bc 			; <UNDEFINED> instruction: 0x000013bc
 754:	0000002c 	andeq	r0, r0, ip, lsr #32
 758:	87080e41 	strhi	r0, [r8, -r1, asr #28]
 75c:	41018e02 	tstmi	r1, r2, lsl #28
 760:	0d41100e 	stcleq	0, cr1, [r1, #-56]	; 0xffffffc8
 764:	080e4e07 	stmdaeq	lr, {r0, r1, r2, r9, sl, fp, lr}
 768:	000d0d41 	andeq	r0, sp, r1, asr #26
 76c:	00000020 	andeq	r0, r0, r0, lsr #32
 770:	000004e8 	andeq	r0, r0, r8, ror #9
 774:	000013e8 	andeq	r1, r0, r8, ror #7
 778:	00000058 	andeq	r0, r0, r8, asr r0
 77c:	87080e41 	strhi	r0, [r8, -r1, asr #28]
 780:	41018e02 	tstmi	r1, r2, lsl #28
 784:	0d41180e 	stcleq	8, cr1, [r1, #-56]	; 0xffffffc8
 788:	080e6507 	stmdaeq	lr, {r0, r1, r2, r8, sl, sp, lr}
 78c:	000d0d41 	andeq	r0, sp, r1, asr #26
 790:	00000020 	andeq	r0, r0, r0, lsr #32
 794:	000004e8 	andeq	r0, r0, r8, ror #9
 798:	00001440 	andeq	r1, r0, r0, asr #8
 79c:	0000004e 	andeq	r0, r0, lr, asr #32
 7a0:	87080e41 	strhi	r0, [r8, -r1, asr #28]
 7a4:	41018e02 	tstmi	r1, r2, lsl #28
 7a8:	0d41180e 	stcleq	8, cr1, [r1, #-56]	; 0xffffffc8
 7ac:	080e6207 	stmdaeq	lr, {r0, r1, r2, r9, sp, lr}
 7b0:	000d0d41 	andeq	r0, sp, r1, asr #26
 7b4:	0000000c 	andeq	r0, r0, ip
 7b8:	ffffffff 			; <UNDEFINED> instruction: 0xffffffff
 7bc:	7c020001 	stcvc	0, cr0, [r2], {1}
 7c0:	000d0c0e 	andeq	r0, sp, lr, lsl #24
 7c4:	00000024 	andeq	r0, r0, r4, lsr #32
 7c8:	000007b4 			; <UNDEFINED> instruction: 0x000007b4
 7cc:	00001490 	muleq	r0, r0, r4
 7d0:	00000018 	andeq	r0, r0, r8, lsl r0
 7d4:	87040e41 	strhi	r0, [r4, -r1, asr #28]
 7d8:	100e4101 	andne	r4, lr, r1, lsl #2
 7dc:	45070d41 	strmi	r0, [r7, #-3393]	; 0xfffff2bf
 7e0:	0d41040e 	cfstrdeq	mvd0, [r1, #-56]	; 0xffffffc8
 7e4:	0ec7420d 	cdpeq	2, 12, cr4, cr7, cr13, {0}
 7e8:	00000000 	andeq	r0, r0, r0
 7ec:	0000001c 	andeq	r0, r0, ip, lsl r0
 7f0:	000007b4 			; <UNDEFINED> instruction: 0x000007b4
 7f4:	000014a8 	andeq	r1, r0, r8, lsr #9
 7f8:	00000010 	andeq	r0, r0, r0, lsl r0
 7fc:	87040e41 	strhi	r0, [r4, -r1, asr #28]
 800:	070d4101 	streq	r4, [sp, -r1, lsl #2]
 804:	420d0d43 	andmi	r0, sp, #4288	; 0x10c0
 808:	00000ec7 	andeq	r0, r0, r7, asr #29
 80c:	00000024 	andeq	r0, r0, r4, lsr #32
 810:	000007b4 			; <UNDEFINED> instruction: 0x000007b4
 814:	000014b8 			; <UNDEFINED> instruction: 0x000014b8
 818:	00000026 	andeq	r0, r0, r6, lsr #32
 81c:	87040e41 	strhi	r0, [r4, -r1, asr #28]
 820:	100e4101 	andne	r4, lr, r1, lsl #2
 824:	4c070d41 	stcmi	13, cr0, [r7], {65}	; 0x41
 828:	0d41040e 	cfstrdeq	mvd0, [r1, #-56]	; 0xffffffc8
 82c:	0ec7420d 	cdpeq	2, 12, cr4, cr7, cr13, {0}
 830:	00000000 	andeq	r0, r0, r0
 834:	00000024 	andeq	r0, r0, r4, lsr #32
 838:	000007b4 			; <UNDEFINED> instruction: 0x000007b4
 83c:	000014e0 	andeq	r1, r0, r0, ror #9
 840:	00000028 	andeq	r0, r0, r8, lsr #32
 844:	87040e41 	strhi	r0, [r4, -r1, asr #28]
 848:	100e4101 	andne	r4, lr, r1, lsl #2
 84c:	4d070d41 	stcmi	13, cr0, [r7, #-260]	; 0xfffffefc
 850:	0d41040e 	cfstrdeq	mvd0, [r1, #-56]	; 0xffffffc8
 854:	0ec7420d 	cdpeq	2, 12, cr4, cr7, cr13, {0}
 858:	00000000 	andeq	r0, r0, r0
 85c:	00000020 	andeq	r0, r0, r0, lsr #32
 860:	000007b4 			; <UNDEFINED> instruction: 0x000007b4
 864:	00001508 	andeq	r1, r0, r8, lsl #10
 868:	00000090 	muleq	r0, r0, r0
 86c:	87080e41 	strhi	r0, [r8, -r1, asr #28]
 870:	41018e02 	tstmi	r1, r2, lsl #28
 874:	0d41180e 	stcleq	8, cr1, [r1, #-56]	; 0xffffffc8
 878:	0e410207 	cdpeq	2, 4, cr0, cr1, cr7, {0}
 87c:	0d0d4108 	stfeqs	f4, [sp, #-32]	; 0xffffffe0
 880:	00000024 	andeq	r0, r0, r4, lsr #32
 884:	000007b4 			; <UNDEFINED> instruction: 0x000007b4
 888:	00001598 	muleq	r0, r8, r5
 88c:	00000024 	andeq	r0, r0, r4, lsr #32
 890:	87040e41 	strhi	r0, [r4, -r1, asr #28]
 894:	100e4101 	andne	r4, lr, r1, lsl #2
 898:	4b070d41 	blmi	1c3da4 <_etext+0x1c2318>
 89c:	0d41040e 	cfstrdeq	mvd0, [r1, #-56]	; 0xffffffc8
 8a0:	0ec7420d 	cdpeq	2, 12, cr4, cr7, cr13, {0}
 8a4:	00000000 	andeq	r0, r0, r0
 8a8:	00000020 	andeq	r0, r0, r0, lsr #32
 8ac:	000007b4 			; <UNDEFINED> instruction: 0x000007b4
 8b0:	000015bc 			; <UNDEFINED> instruction: 0x000015bc
 8b4:	00000022 	andeq	r0, r0, r2, lsr #32
 8b8:	87080e41 	strhi	r0, [r8, -r1, asr #28]
 8bc:	41018e02 	tstmi	r1, r2, lsl #28
 8c0:	0d41100e 	stcleq	0, cr1, [r1, #-56]	; 0xffffffc8
 8c4:	080e4c07 	stmdaeq	lr, {r0, r1, r2, sl, fp, lr}
 8c8:	000d0d41 	andeq	r0, sp, r1, asr #26
 8cc:	00000024 	andeq	r0, r0, r4, lsr #32
 8d0:	000007b4 			; <UNDEFINED> instruction: 0x000007b4
 8d4:	000015e0 	andeq	r1, r0, r0, ror #11
 8d8:	00000026 	andeq	r0, r0, r6, lsr #32
 8dc:	87040e41 	strhi	r0, [r4, -r1, asr #28]
 8e0:	180e4101 	stmdane	lr, {r0, r8, lr}
 8e4:	4c070d41 	stcmi	13, cr0, [r7], {65}	; 0x41
 8e8:	0d41040e 	cfstrdeq	mvd0, [r1, #-56]	; 0xffffffc8
 8ec:	0ec7420d 	cdpeq	2, 12, cr4, cr7, cr13, {0}
 8f0:	00000000 	andeq	r0, r0, r0
 8f4:	00000024 	andeq	r0, r0, r4, lsr #32
 8f8:	000007b4 			; <UNDEFINED> instruction: 0x000007b4
 8fc:	00001608 	andeq	r1, r0, r8, lsl #12
 900:	0000002c 	andeq	r0, r0, ip, lsr #32
 904:	87040e41 	strhi	r0, [r4, -r1, asr #28]
 908:	180e4101 	stmdane	lr, {r0, r8, lr}
 90c:	4f070d41 	svcmi	0x00070d41
 910:	0d41040e 	cfstrdeq	mvd0, [r1, #-56]	; 0xffffffc8
 914:	0ec7420d 	cdpeq	2, 12, cr4, cr7, cr13, {0}
 918:	00000000 	andeq	r0, r0, r0
 91c:	00000024 	andeq	r0, r0, r4, lsr #32
 920:	000007b4 			; <UNDEFINED> instruction: 0x000007b4
 924:	00001634 	andeq	r1, r0, r4, lsr r6
 928:	0000002c 	andeq	r0, r0, ip, lsr #32
 92c:	87040e41 	strhi	r0, [r4, -r1, asr #28]
 930:	180e4101 	stmdane	lr, {r0, r8, lr}
 934:	4f070d41 	svcmi	0x00070d41
 938:	0d41040e 	cfstrdeq	mvd0, [r1, #-56]	; 0xffffffc8
 93c:	0ec7420d 	cdpeq	2, 12, cr4, cr7, cr13, {0}
 940:	00000000 	andeq	r0, r0, r0
 944:	00000024 	andeq	r0, r0, r4, lsr #32
 948:	000007b4 			; <UNDEFINED> instruction: 0x000007b4
 94c:	00001660 	andeq	r1, r0, r0, ror #12
 950:	00000026 	andeq	r0, r0, r6, lsr #32
 954:	87040e41 	strhi	r0, [r4, -r1, asr #28]
 958:	180e4101 	stmdane	lr, {r0, r8, lr}
 95c:	4c070d41 	stcmi	13, cr0, [r7], {65}	; 0x41
 960:	0d41040e 	cfstrdeq	mvd0, [r1, #-56]	; 0xffffffc8
 964:	0ec7420d 	cdpeq	2, 12, cr4, cr7, cr13, {0}
 968:	00000000 	andeq	r0, r0, r0
 96c:	00000024 	andeq	r0, r0, r4, lsr #32
 970:	000007b4 			; <UNDEFINED> instruction: 0x000007b4
 974:	00001688 	andeq	r1, r0, r8, lsl #13
 978:	00000026 	andeq	r0, r0, r6, lsr #32
 97c:	87040e41 	strhi	r0, [r4, -r1, asr #28]
 980:	180e4101 	stmdane	lr, {r0, r8, lr}
 984:	4c070d41 	stcmi	13, cr0, [r7], {65}	; 0x41
 988:	0d41040e 	cfstrdeq	mvd0, [r1, #-56]	; 0xffffffc8
 98c:	0ec7420d 	cdpeq	2, 12, cr4, cr7, cr13, {0}
 990:	00000000 	andeq	r0, r0, r0
 994:	00000024 	andeq	r0, r0, r4, lsr #32
 998:	000007b4 			; <UNDEFINED> instruction: 0x000007b4
 99c:	000016b0 			; <UNDEFINED> instruction: 0x000016b0
 9a0:	0000006e 	andeq	r0, r0, lr, rrx
 9a4:	87040e41 	strhi	r0, [r4, -r1, asr #28]
 9a8:	200e4101 	andcs	r4, lr, r1, lsl #2
 9ac:	70070d41 	andvc	r0, r7, r1, asr #26
 9b0:	0d41040e 	cfstrdeq	mvd0, [r1, #-56]	; 0xffffffc8
 9b4:	0ec7420d 	cdpeq	2, 12, cr4, cr7, cr13, {0}
 9b8:	00000000 	andeq	r0, r0, r0
 9bc:	00000024 	andeq	r0, r0, r4, lsr #32
 9c0:	000007b4 			; <UNDEFINED> instruction: 0x000007b4
 9c4:	00001720 	andeq	r1, r0, r0, lsr #14
 9c8:	00000052 	andeq	r0, r0, r2, asr r0
 9cc:	87040e41 	strhi	r0, [r4, -r1, asr #28]
 9d0:	180e4101 	stmdane	lr, {r0, r8, lr}
 9d4:	62070d41 	andvs	r0, r7, #4160	; 0x1040
 9d8:	0d41040e 	cfstrdeq	mvd0, [r1, #-56]	; 0xffffffc8
 9dc:	0ec7420d 	cdpeq	2, 12, cr4, cr7, cr13, {0}
 9e0:	00000000 	andeq	r0, r0, r0
 9e4:	00000024 	andeq	r0, r0, r4, lsr #32
 9e8:	000007b4 			; <UNDEFINED> instruction: 0x000007b4
 9ec:	00001774 	andeq	r1, r0, r4, ror r7
 9f0:	00000052 	andeq	r0, r0, r2, asr r0
 9f4:	87040e41 	strhi	r0, [r4, -r1, asr #28]
 9f8:	180e4101 	stmdane	lr, {r0, r8, lr}
 9fc:	62070d41 	andvs	r0, r7, #4160	; 0x1040
 a00:	0d41040e 	cfstrdeq	mvd0, [r1, #-56]	; 0xffffffc8
 a04:	0ec7420d 	cdpeq	2, 12, cr4, cr7, cr13, {0}
 a08:	00000000 	andeq	r0, r0, r0
 a0c:	00000024 	andeq	r0, r0, r4, lsr #32
 a10:	000007b4 			; <UNDEFINED> instruction: 0x000007b4
 a14:	000017c8 	andeq	r1, r0, r8, asr #15
 a18:	00000066 	andeq	r0, r0, r6, rrx
 a1c:	87040e41 	strhi	r0, [r4, -r1, asr #28]
 a20:	200e4101 	andcs	r4, lr, r1, lsl #2
 a24:	6c070d41 	stcvs	13, cr0, [r7], {65}	; 0x41
 a28:	0d41040e 	cfstrdeq	mvd0, [r1, #-56]	; 0xffffffc8
 a2c:	0ec7420d 	cdpeq	2, 12, cr4, cr7, cr13, {0}
 a30:	00000000 	andeq	r0, r0, r0
 a34:	00000020 	andeq	r0, r0, r0, lsr #32
 a38:	000007b4 			; <UNDEFINED> instruction: 0x000007b4
 a3c:	00001830 	andeq	r1, r0, r0, lsr r8
 a40:	0000005a 	andeq	r0, r0, sl, asr r0
 a44:	87080e41 	strhi	r0, [r8, -r1, asr #28]
 a48:	41018e02 	tstmi	r1, r2, lsl #28
 a4c:	0d41180e 	stcleq	8, cr1, [r1, #-56]	; 0xffffffc8
 a50:	080e6807 	stmdaeq	lr, {r0, r1, r2, fp, sp, lr}
 a54:	000d0d41 	andeq	r0, sp, r1, asr #26
